
Discarded input sections

 .debug_line    0x00000000      0x163 /tmp/ccKwYJDu.o
 .debug_line_str
                0x00000000       0x22 /tmp/ccKwYJDu.o
 .debug_info    0x00000000       0x25 /tmp/ccKwYJDu.o
 .debug_abbrev  0x00000000       0x14 /tmp/ccKwYJDu.o
 .debug_aranges
                0x00000000       0x20 /tmp/ccKwYJDu.o
 .debug_str     0x00000000       0x2e /tmp/ccKwYJDu.o
 .debug_line    0x00000000       0x7a /tmp/ccZOjieN.o
 .debug_line_str
                0x00000000       0x23 /tmp/ccZOjieN.o
 .debug_info    0x00000000       0x31 /tmp/ccZOjieN.o
 .debug_abbrev  0x00000000       0x28 /tmp/ccZOjieN.o
 .debug_aranges
                0x00000000       0x20 /tmp/ccZOjieN.o
 .debug_str     0x00000000       0x38 /tmp/ccZOjieN.o
 .debug_line    0x00000000      0x152 /tmp/ccaQ0jGT.o
 .debug_line_str
                0x00000000       0x20 /tmp/ccaQ0jGT.o
 .debug_info    0x00000000       0x54 /tmp/ccaQ0jGT.o
 .debug_abbrev  0x00000000       0x28 /tmp/ccaQ0jGT.o
 .debug_aranges
                0x00000000       0x20 /tmp/ccaQ0jGT.o
 .debug_str     0x00000000       0x52 /tmp/ccaQ0jGT.o
 .debug_info    0x00000000      0x446 /tmp/ccEk31jt.o
 .debug_abbrev  0x00000000      0x10d /tmp/ccEk31jt.o
 .debug_loclists
                0x00000000      0x66a /tmp/ccEk31jt.o
 .debug_aranges
                0x00000000       0x20 /tmp/ccEk31jt.o
 .debug_line    0x00000000      0x514 /tmp/ccEk31jt.o
 .debug_str     0x00000000      0x162 /tmp/ccEk31jt.o
 .debug_line_str
                0x00000000       0x9d /tmp/ccEk31jt.o
 .debug_frame   0x00000000       0xb0 /tmp/ccEk31jt.o
 .debug_info    0x00000000      0x1fa /tmp/cc1Wc4Tn.o
 .debug_abbrev  0x00000000      0x11a /tmp/cc1Wc4Tn.o
 .debug_loclists
                0x00000000       0x3b /tmp/cc1Wc4Tn.o
 .debug_aranges
                0x00000000       0x20 /tmp/cc1Wc4Tn.o
 .debug_line    0x00000000      0x28f /tmp/cc1Wc4Tn.o
 .debug_str     0x00000000      0x1ea /tmp/cc1Wc4Tn.o
 .debug_line_str
                0x00000000       0xb6 /tmp/cc1Wc4Tn.o
 .debug_frame   0x00000000       0x98 /tmp/cc1Wc4Tn.o
 .debug_info    0x00000000      0x203 /tmp/ccjve6cI.o
 .debug_abbrev  0x00000000       0xf5 /tmp/ccjve6cI.o
 .debug_loclists
                0x00000000       0x7a /tmp/ccjve6cI.o
 .debug_aranges
                0x00000000       0x20 /tmp/ccjve6cI.o
 .debug_line    0x00000000      0x1a3 /tmp/ccjve6cI.o
 .debug_str     0x00000000      0x189 /tmp/ccjve6cI.o
 .debug_line_str
                0x00000000       0xaa /tmp/ccjve6cI.o
 .debug_frame   0x00000000       0x50 /tmp/ccjve6cI.o
 .debug_info    0x00000000      0x234 /tmp/ccO3lS9b.o
 .debug_abbrev  0x00000000       0xb6 /tmp/ccO3lS9b.o
 .debug_loclists
                0x00000000      0x129 /tmp/ccO3lS9b.o
 .debug_aranges
                0x00000000       0x20 /tmp/ccO3lS9b.o
 .debug_line    0x00000000      0x29a /tmp/ccO3lS9b.o
 .debug_str     0x00000000      0x149 /tmp/ccO3lS9b.o
 .debug_line_str
                0x00000000       0x9f /tmp/ccO3lS9b.o
 .debug_frame   0x00000000       0x70 /tmp/ccO3lS9b.o
 .debug_info    0x00000000       0x80 /tmp/ccFo8ATQ.o
 .debug_abbrev  0x00000000       0x6c /tmp/ccFo8ATQ.o
 .debug_loclists
                0x00000000       0x41 /tmp/ccFo8ATQ.o
 .debug_aranges
                0x00000000       0x20 /tmp/ccFo8ATQ.o
 .debug_line    0x00000000       0xae /tmp/ccFo8ATQ.o
 .debug_str     0x00000000       0x6f /tmp/ccFo8ATQ.o
 .debug_line_str
                0x00000000       0x34 /tmp/ccFo8ATQ.o
 .debug_frame   0x00000000       0x20 /tmp/ccFo8ATQ.o
 .debug_info    0x00000000      0x115 /tmp/ccVBJZrK.o
 .debug_abbrev  0x00000000       0xd3 /tmp/ccVBJZrK.o
 .debug_loclists
                0x00000000       0x7d /tmp/ccVBJZrK.o
 .debug_aranges
                0x00000000       0x20 /tmp/ccVBJZrK.o
 .debug_line    0x00000000       0xfe /tmp/ccVBJZrK.o
 .debug_str     0x00000000      0x10b /tmp/ccVBJZrK.o
 .debug_line_str
                0x00000000       0xa3 /tmp/ccVBJZrK.o
 .debug_frame   0x00000000       0x20 /tmp/ccVBJZrK.o
 .debug_info    0x00000000      0x9b1 /tmp/ccYm5Zk5.o
 .debug_abbrev  0x00000000      0x26f /tmp/ccYm5Zk5.o
 .debug_loclists
                0x00000000      0xf10 /tmp/ccYm5Zk5.o
 .debug_aranges
                0x00000000       0x20 /tmp/ccYm5Zk5.o
 .debug_rnglists
                0x00000000       0x68 /tmp/ccYm5Zk5.o
 .debug_line    0x00000000     0x113b /tmp/ccYm5Zk5.o
 .debug_str     0x00000000      0x1e1 /tmp/ccYm5Zk5.o
 .debug_line_str
                0x00000000       0xb3 /tmp/ccYm5Zk5.o
 .debug_frame   0x00000000      0x12c /tmp/ccYm5Zk5.o
 .debug_info    0x00000000      0x15f /tmp/cc6Z91ph.o
 .debug_abbrev  0x00000000      0x11e /tmp/cc6Z91ph.o
 .debug_loclists
                0x00000000       0x34 /tmp/cc6Z91ph.o
 .debug_aranges
                0x00000000       0x20 /tmp/cc6Z91ph.o
 .debug_rnglists
                0x00000000       0x13 /tmp/cc6Z91ph.o
 .debug_line    0x00000000      0x13a /tmp/cc6Z91ph.o
 .debug_str     0x00000000      0x148 /tmp/cc6Z91ph.o
 .debug_line_str
                0x00000000       0xa5 /tmp/cc6Z91ph.o
 .debug_frame   0x00000000       0x50 /tmp/cc6Z91ph.o
 .debug_info    0x00000000     0x136a /tmp/ccrQo9rx.o
 .debug_abbrev  0x00000000      0x338 /tmp/ccrQo9rx.o
 .debug_loclists
                0x00000000     0x160b /tmp/ccrQo9rx.o
 .debug_aranges
                0x00000000       0x20 /tmp/ccrQo9rx.o
 .debug_rnglists
                0x00000000       0x92 /tmp/ccrQo9rx.o
 .debug_line    0x00000000     0x199d /tmp/ccrQo9rx.o
 .debug_str     0x00000000      0x4a9 /tmp/ccrQo9rx.o
 .debug_line_str
                0x00000000       0xa8 /tmp/ccrQo9rx.o
 .debug_frame   0x00000000      0x240 /tmp/ccrQo9rx.o
 .debug_info    0x00000000      0x52f /tmp/ccL93tXc.o
 .debug_abbrev  0x00000000      0x229 /tmp/ccL93tXc.o
 .debug_loclists
                0x00000000      0x345 /tmp/ccL93tXc.o
 .debug_aranges
                0x00000000       0x20 /tmp/ccL93tXc.o
 .debug_rnglists
                0x00000000       0x5f /tmp/ccL93tXc.o
 .debug_line    0x00000000      0x67e /tmp/ccL93tXc.o
 .debug_str     0x00000000      0x29c /tmp/ccL93tXc.o
 .debug_line_str
                0x00000000       0xaa /tmp/ccL93tXc.o
 .debug_frame   0x00000000       0xc8 /tmp/ccL93tXc.o
 .debug_info    0x00000000      0x3b8 /tmp/cc6rHtbs.o
 .debug_abbrev  0x00000000      0x194 /tmp/cc6rHtbs.o
 .debug_loclists
                0x00000000      0x119 /tmp/cc6rHtbs.o
 .debug_aranges
                0x00000000       0x20 /tmp/cc6rHtbs.o
 .debug_line    0x00000000      0x279 /tmp/cc6rHtbs.o
 .debug_str     0x00000000      0x242 /tmp/cc6rHtbs.o
 .debug_line_str
                0x00000000       0xd7 /tmp/cc6rHtbs.o
 .debug_frame   0x00000000       0x90 /tmp/cc6rHtbs.o
 .debug_info    0x00000000      0x202 /tmp/ccnzqhr2.o
 .debug_abbrev  0x00000000      0x154 /tmp/ccnzqhr2.o
 .debug_loclists
                0x00000000       0x30 /tmp/ccnzqhr2.o
 .debug_aranges
                0x00000000       0x28 /tmp/ccnzqhr2.o
 .debug_rnglists
                0x00000000       0x19 /tmp/ccnzqhr2.o
 .debug_line    0x00000000      0x100 /tmp/ccnzqhr2.o
 .debug_str     0x00000000      0x17d /tmp/ccnzqhr2.o
 .debug_line_str
                0x00000000       0x8a /tmp/ccnzqhr2.o
 .debug_frame   0x00000000       0x38 /tmp/ccnzqhr2.o
 .debug_info    0x00000000      0x6e8 /tmp/ccuzmmwp.o
 .debug_abbrev  0x00000000      0x24f /tmp/ccuzmmwp.o
 .debug_loclists
                0x00000000      0x355 /tmp/ccuzmmwp.o
 .debug_aranges
                0x00000000       0x20 /tmp/ccuzmmwp.o
 .debug_rnglists
                0x00000000       0x1a /tmp/ccuzmmwp.o
 .debug_line    0x00000000      0x324 /tmp/ccuzmmwp.o
 .debug_str     0x00000000      0x414 /tmp/ccuzmmwp.o
 .debug_line_str
                0x00000000      0x103 /tmp/ccuzmmwp.o
 .debug_frame   0x00000000       0x44 /tmp/ccuzmmwp.o
 .debug_info    0x00000000     0x22ca /tmp/cc2HPARa.o
 .debug_abbrev  0x00000000      0x555 /tmp/cc2HPARa.o
 .debug_loclists
                0x00000000     0x1714 /tmp/cc2HPARa.o
 .debug_aranges
                0x00000000       0x20 /tmp/cc2HPARa.o
 .debug_rnglists
                0x00000000       0xd7 /tmp/cc2HPARa.o
 .debug_line    0x00000000     0x1aa5 /tmp/cc2HPARa.o
 .debug_str     0x00000000      0x6a2 /tmp/cc2HPARa.o
 .debug_line_str
                0x00000000      0x120 /tmp/cc2HPARa.o
 .debug_frame   0x00000000      0x2cc /tmp/cc2HPARa.o
 .debug_info    0x00000000      0xcfd /tmp/ccfIdksA.o
 .debug_abbrev  0x00000000      0x31a /tmp/ccfIdksA.o
 .debug_loclists
                0x00000000      0x555 /tmp/ccfIdksA.o
 .debug_aranges
                0x00000000       0x20 /tmp/ccfIdksA.o
 .debug_rnglists
                0x00000000       0x41 /tmp/ccfIdksA.o
 .debug_line    0x00000000      0xa81 /tmp/ccfIdksA.o
 .debug_str     0x00000000      0x435 /tmp/ccfIdksA.o
 .debug_line_str
                0x00000000      0x119 /tmp/ccfIdksA.o
 .debug_frame   0x00000000       0x80 /tmp/ccfIdksA.o
 .debug_info    0x00000000      0xc67 /tmp/ccgN5HM4.o
 .debug_abbrev  0x00000000      0x3a7 /tmp/ccgN5HM4.o
 .debug_loclists
                0x00000000      0x7bc /tmp/ccgN5HM4.o
 .debug_aranges
                0x00000000       0x20 /tmp/ccgN5HM4.o
 .debug_rnglists
                0x00000000       0xc2 /tmp/ccgN5HM4.o
 .debug_line    0x00000000      0x942 /tmp/ccgN5HM4.o
 .debug_str     0x00000000      0x4fa /tmp/ccgN5HM4.o
 .debug_line_str
                0x00000000      0x11c /tmp/ccgN5HM4.o
 .debug_frame   0x00000000      0x134 /tmp/ccgN5HM4.o
 .debug_info    0x00000000      0xf0d /tmp/ccj4BgP6.o
 .debug_abbrev  0x00000000      0x332 /tmp/ccj4BgP6.o
 .debug_loclists
                0x00000000      0x33f /tmp/ccj4BgP6.o
 .debug_aranges
                0x00000000       0x20 /tmp/ccj4BgP6.o
 .debug_rnglists
                0x00000000       0x1c /tmp/ccj4BgP6.o
 .debug_line    0x00000000      0x665 /tmp/ccj4BgP6.o
 .debug_str     0x00000000      0x53e /tmp/ccj4BgP6.o
 .debug_line_str
                0x00000000      0x15b /tmp/ccj4BgP6.o
 .debug_frame   0x00000000      0x170 /tmp/ccj4BgP6.o
 .debug_info    0x00000000      0x823 /tmp/ccpsvQGz.o
 .debug_abbrev  0x00000000      0x248 /tmp/ccpsvQGz.o
 .debug_aranges
                0x00000000       0x20 /tmp/ccpsvQGz.o
 .debug_line    0x00000000      0x175 /tmp/ccpsvQGz.o
 .debug_str     0x00000000      0x40b /tmp/ccpsvQGz.o
 .debug_line_str
                0x00000000      0x13a /tmp/ccpsvQGz.o
 .debug_frame   0x00000000       0x30 /tmp/ccpsvQGz.o
 .debug_info    0x00000000      0x842 /tmp/ccOqH3Ud.o
 .debug_abbrev  0x00000000      0x268 /tmp/ccOqH3Ud.o
 .debug_loclists
                0x00000000      0x154 /tmp/ccOqH3Ud.o
 .debug_aranges
                0x00000000       0x20 /tmp/ccOqH3Ud.o
 .debug_line    0x00000000      0x26a /tmp/ccOqH3Ud.o
 .debug_str     0x00000000      0x3d6 /tmp/ccOqH3Ud.o
 .debug_line_str
                0x00000000       0xf0 /tmp/ccOqH3Ud.o
 .debug_frame   0x00000000       0xb4 /tmp/ccOqH3Ud.o
 .debug_info    0x00000000      0x75c /tmp/ccplTDww.o
 .debug_abbrev  0x00000000      0x219 /tmp/ccplTDww.o
 .debug_loclists
                0x00000000       0xb4 /tmp/ccplTDww.o
 .debug_aranges
                0x00000000       0x20 /tmp/ccplTDww.o
 .debug_line    0x00000000       0x95 /tmp/ccplTDww.o
 .debug_str     0x00000000      0x488 /tmp/ccplTDww.o
 .debug_line_str
                0x00000000      0x10d /tmp/ccplTDww.o
 .debug_frame   0x00000000       0x2c /tmp/ccplTDww.o
 .debug_info    0x00000000     0x2d11 /tmp/ccCzOSo7.o
 .debug_abbrev  0x00000000      0x5b7 /tmp/ccCzOSo7.o
 .debug_loclists
                0x00000000     0x1df7 /tmp/ccCzOSo7.o
 .debug_aranges
                0x00000000       0x20 /tmp/ccCzOSo7.o
 .debug_rnglists
                0x00000000      0x2c0 /tmp/ccCzOSo7.o
 .debug_line    0x00000000     0x347f /tmp/ccCzOSo7.o
 .debug_str     0x00000000      0xa65 /tmp/ccCzOSo7.o
 .debug_line_str
                0x00000000      0x118 /tmp/ccCzOSo7.o
 .debug_frame   0x00000000      0x810 /tmp/ccCzOSo7.o
 .debug_info    0x00000000      0x6a7 /tmp/cc2horVW.o
 .debug_abbrev  0x00000000      0x1f7 /tmp/cc2horVW.o
 .debug_loclists
                0x00000000       0xe7 /tmp/cc2horVW.o
 .debug_aranges
                0x00000000       0x20 /tmp/cc2horVW.o
 .debug_line    0x00000000      0x13f /tmp/cc2horVW.o
 .debug_str     0x00000000      0x3bd /tmp/cc2horVW.o
 .debug_line_str
                0x00000000      0x109 /tmp/cc2horVW.o
 .debug_frame   0x00000000       0x58 /tmp/cc2horVW.o
 .debug_info    0x00000000      0x5eb /tmp/ccNrWa3q.o
 .debug_abbrev  0x00000000      0x1dc /tmp/ccNrWa3q.o
 .debug_loclists
                0x00000000       0xe4 /tmp/ccNrWa3q.o
 .debug_aranges
                0x00000000       0x20 /tmp/ccNrWa3q.o
 .debug_rnglists
                0x00000000       0x66 /tmp/ccNrWa3q.o
 .debug_line    0x00000000      0x30e /tmp/ccNrWa3q.o
 .debug_str     0x00000000      0x4dc /tmp/ccNrWa3q.o
 .debug_line_str
                0x00000000       0xf0 /tmp/ccNrWa3q.o
 .debug_frame   0x00000000       0x9c /tmp/ccNrWa3q.o
 .debug_info    0x00000000      0x3ef /tmp/cczPJUx5.o
 .debug_abbrev  0x00000000      0x161 /tmp/cczPJUx5.o
 .debug_loclists
                0x00000000      0x469 /tmp/cczPJUx5.o
 .debug_aranges
                0x00000000       0x20 /tmp/cczPJUx5.o
 .debug_rnglists
                0x00000000       0x16 /tmp/cczPJUx5.o
 .debug_line    0x00000000      0x5d8 /tmp/cczPJUx5.o
 .debug_str     0x00000000      0x16b /tmp/cczPJUx5.o
 .debug_line_str
                0x00000000       0xd3 /tmp/cczPJUx5.o
 .debug_frame   0x00000000       0x40 /tmp/cczPJUx5.o
 .debug_info    0x00000000       0x71 /tmp/ccSU4pzZ.o
 .debug_abbrev  0x00000000       0x2c /tmp/ccSU4pzZ.o
 .debug_aranges
                0x00000000       0x18 /tmp/ccSU4pzZ.o
 .debug_line    0x00000000       0x44 /tmp/ccSU4pzZ.o
 .debug_str     0x00000000       0xe2 /tmp/ccSU4pzZ.o
 .debug_line_str
                0x00000000       0x4a /tmp/ccSU4pzZ.o
 .debug_info    0x00000000      0x94c /tmp/cclzu0L5.o
 .debug_abbrev  0x00000000      0x247 /tmp/cclzu0L5.o
 .debug_loclists
                0x00000000      0x374 /tmp/cclzu0L5.o
 .debug_aranges
                0x00000000       0x20 /tmp/cclzu0L5.o
 .debug_line    0x00000000      0x3fb /tmp/cclzu0L5.o
 .debug_str     0x00000000      0x443 /tmp/cclzu0L5.o
 .debug_line_str
                0x00000000      0x134 /tmp/cclzu0L5.o
 .debug_frame   0x00000000       0xd8 /tmp/cclzu0L5.o
 .debug_info    0x00000000     0x553a /tmp/ccRg8UOO.o
 .debug_abbrev  0x00000000      0x470 /tmp/ccRg8UOO.o
 .debug_loclists
                0x00000000     0x55b7 /tmp/ccRg8UOO.o
 .debug_aranges
                0x00000000       0x20 /tmp/ccRg8UOO.o
 .debug_rnglists
                0x00000000      0x30d /tmp/ccRg8UOO.o
 .debug_line    0x00000000     0x8fae /tmp/ccRg8UOO.o
 .debug_str     0x00000000      0x8fb /tmp/ccRg8UOO.o
 .debug_line_str
                0x00000000      0x10f /tmp/ccRg8UOO.o
 .debug_frame   0x00000000      0xa18 /tmp/ccRg8UOO.o
 .debug_info    0x00000000      0x5c8 /tmp/cc0K3M7e.o
 .debug_abbrev  0x00000000      0x219 /tmp/cc0K3M7e.o
 .debug_loclists
                0x00000000       0x3c /tmp/cc0K3M7e.o
 .debug_aranges
                0x00000000       0x20 /tmp/cc0K3M7e.o
 .debug_rnglists
                0x00000000       0x16 /tmp/cc0K3M7e.o
 .debug_line    0x00000000      0x1b8 /tmp/cc0K3M7e.o
 .debug_str     0x00000000      0x3ba /tmp/cc0K3M7e.o
 .debug_line_str
                0x00000000      0x106 /tmp/cc0K3M7e.o
 .debug_frame   0x00000000       0x4c /tmp/cc0K3M7e.o
 .debug_info    0x00000000      0x563 /tmp/ccG0j23s.o
 .debug_abbrev  0x00000000      0x22a /tmp/ccG0j23s.o
 .debug_loclists
                0x00000000      0x169 /tmp/ccG0j23s.o
 .debug_aranges
                0x00000000       0x20 /tmp/ccG0j23s.o
 .debug_rnglists
                0x00000000       0x2d /tmp/ccG0j23s.o
 .debug_line    0x00000000      0x580 /tmp/ccG0j23s.o
 .debug_str     0x00000000      0x235 /tmp/ccG0j23s.o
 .debug_line_str
                0x00000000      0x11a /tmp/ccG0j23s.o
 .debug_frame   0x00000000       0xd4 /tmp/ccG0j23s.o
 .debug_info    0x00000000      0x2a7 /tmp/cca199mx.o
 .debug_abbrev  0x00000000      0x125 /tmp/cca199mx.o
 .debug_loclists
                0x00000000       0xd6 /tmp/cca199mx.o
 .debug_aranges
                0x00000000       0x20 /tmp/cca199mx.o
 .debug_line    0x00000000       0xcf /tmp/cca199mx.o
 .debug_str     0x00000000      0x17e /tmp/cca199mx.o
 .debug_line_str
                0x00000000      0x10b /tmp/cca199mx.o
 .debug_frame   0x00000000       0x40 /tmp/cca199mx.o
 .debug_info    0x00000000      0x27d /tmp/cc0olfk0.o
 .debug_abbrev  0x00000000      0x150 /tmp/cc0olfk0.o
 .debug_loclists
                0x00000000       0x94 /tmp/cc0olfk0.o
 .debug_aranges
                0x00000000       0x20 /tmp/cc0olfk0.o
 .debug_line    0x00000000      0x13a /tmp/cc0olfk0.o
 .debug_str     0x00000000      0x1d0 /tmp/cc0olfk0.o
 .debug_line_str
                0x00000000       0xdd /tmp/cc0olfk0.o
 .debug_frame   0x00000000       0x54 /tmp/cc0olfk0.o
 .debug_info    0x00000000     0x1519 /tmp/ccYar3Mq.o
 .debug_abbrev  0x00000000      0x4e5 /tmp/ccYar3Mq.o
 .debug_loclists
                0x00000000      0x5f7 /tmp/ccYar3Mq.o
 .debug_aranges
                0x00000000       0x20 /tmp/ccYar3Mq.o
 .debug_rnglists
                0x00000000      0x175 /tmp/ccYar3Mq.o
 .debug_line    0x00000000      0xf97 /tmp/ccYar3Mq.o
 .debug_str     0x00000000      0x84b /tmp/ccYar3Mq.o
 .debug_line_str
                0x00000000      0x161 /tmp/ccYar3Mq.o
 .debug_frame   0x00000000      0x124 /tmp/ccYar3Mq.o
 .debug_info    0x00000000      0x90c /tmp/ccJmXKr2.o
 .debug_abbrev  0x00000000      0x256 /tmp/ccJmXKr2.o
 .debug_loclists
                0x00000000      0x3f9 /tmp/ccJmXKr2.o
 .debug_aranges
                0x00000000       0x20 /tmp/ccJmXKr2.o
 .debug_rnglists
                0x00000000       0xeb /tmp/ccJmXKr2.o
 .debug_line    0x00000000      0x68b /tmp/ccJmXKr2.o
 .debug_str     0x00000000      0x2ac /tmp/ccJmXKr2.o
 .debug_line_str
                0x00000000      0x11e /tmp/ccJmXKr2.o
 .debug_frame   0x00000000       0x64 /tmp/ccJmXKr2.o

Memory Configuration

Name             Origin             Length             Attributes
FLASH            0x00000000         0x01000000         axrl!w
RAM              0x30000000         0x00020000         axw!rl
*default*        0x00000000         0xffffffff

Linker script and memory map


.text           0x00000000    0x22478
                0x00000000                        . = ALIGN (0x4)
 *(.text)
 .text          0x00000000       0xd8 /tmp/ccKwYJDu.o
 .text          0x000000d8       0x24 /tmp/ccZOjieN.o
                0x000000d8                __muldi3
 .text          0x000000fc       0xb4 /tmp/ccaQ0jGT.o
                0x000000fc                __divsi3
                0x00000104                __udivsi3
                0x0000014c                __umodsi3
                0x00000180                __modsi3
 .text          0x000001b0      0x1ec /tmp/ccEk31jt.o
                0x000001b0                memcpy
                0x000001d4                memset
                0x000001f0                strlen
                0x00000210                memcmp
                0x00000240                strchr
                0x0000025c                strcmp
                0x00000288                strncpy
                0x000002e8                strcpy
                0x00000304                strncmp
                0x0000033c                memmove
 .text          0x0000039c      0x14c /tmp/cc1Wc4Tn.o
                0x0000039c                hal_hp_uart_init
                0x000003d4                hal_hp_uart_config
                0x0000042c                hal_hp_uart_send
                0x0000044c                hal_hp_uart_putstr
                0x00000480                hal_hp_uart_recv
                0x000004a4                hal_hp_uart_recv_str
 .text          0x000004e8       0xa0 /tmp/ccjve6cI.o
                0x000004e8                pwm_hal_init
                0x00000508                pwm_hal_set_compare
                0x0000055c                pwm_hal_enable
                0x00000574                pwm_hal_disable
 .text          0x00000588      0x108 /tmp/ccO3lS9b.o
                0x00000588                hal_delay_us
                0x00000608                hal_delay_ms
                0x00000614                delay_ms
                0x00000620                hal_delay_s
                0x0000062c                hal_sys_tick_init
                0x00000668                hal_get_sys_tick
 .text          0x00000690       0x28 /tmp/ccFo8ATQ.o
                0x00000690                __mulsi3
 .text          0x000006b8       0x48 /tmp/ccVBJZrK.o
                0x000006b8                __lshrdi3
 .text          0x00000700      0x8ec /tmp/ccYm5Zk5.o
                0x00000908                vprintf
                0x00000b58                vsnprintf
                0x00000f7c                snprintf
                0x00000fb0                printf
 .text          0x00000fec       0x58 /tmp/cc6Z91ph.o
                0x00000fec                hal_sys_uart_init
                0x00000ffc                hal_sys_putchar
                0x00001008                hal_sys_putstr
                0x00001028                hal_sys_getchar
 .text          0x00001044      0xba8 /tmp/ccrQo9rx.o
                0x00001094                hal_qspi_init
                0x000010c8                hal_qspi_deinit
                0x000010e4                hal_qspi_write_8
                0x00001128                hal_qspi_write_8_cs
                0x00001184                hal_qspi_write_16
                0x000011c0                hal_qspi_write_16_cs
                0x0000121c                hal_qspi_write_32
                0x00001254                hal_qspi_write_32_cs
                0x000012ac                hal_qspi_write_32x2
                0x000012e8                hal_qspi_write_32x2_cs
                0x00001344                hal_qspi_write_32x8
                0x0000139c                hal_qspi_write_32x8_cs
                0x00001414                hal_qspi_write_32x16
                0x000014ac                hal_qspi_write_32x16_cs
                0x00001564                hal_qspi_write_32x32
                0x00001680                hal_qspi_write_32x32_cs
                0x000017bc                hal_qspi_send_cmd
                0x0000182c                hal_qspi_write
                0x000019dc                hal_qspi_read
 .text          0x00001bec      0x2dc /tmp/ccL93tXc.o
                0x00001c48                hal_i2c_init
                0x00001c74                hal_i2c_deinit
                0x00001c8c                hal_i2c_write_nbyte
                0x00001d94                hal_i2c_read_nbyte
 .text          0x00001ec8      0x128 /tmp/cc6rHtbs.o
                0x00001ec8                gpio_hal_input_enable
                0x00001ee4                gpio_hal_output_enable
                0x00001f04                gpio_hal_set_level
                0x00001f34                gpio_hal_get_level
                0x00001f70                gpio_hal_read_update
                0x00001f8c                gpio_hal_write_update
                0x00001fb8                gpio_hal_set_fcfg
                0x00001fd4                gpio_hal_set_mux
 .text          0x00001ff0       0x10 /tmp/ccnzqhr2.o
                0x00001ff0                easy_print
 .text          0x00002000      0x128 /tmp/ccuzmmwp.o
                0x000020c0                sfud_spi_port_init
 .text          0x00002128     0x12f4 /tmp/cc2HPARa.o
                0x0000214c                sfud_get_device
                0x00002164                sfud_get_device_num
                0x0000216c                sfud_get_device_table
                0x00002178                sfud_read_status
                0x000022a4                sfud_read
                0x0000251c                sfud_chip_erase
                0x00002680                sfud_erase
                0x00002aec                sfud_write
                0x00002d94                sfud_erase_write
                0x00002de8                sfud_write_status
                0x00002ee0                sfud_device_init
                0x000033b8                sfud_init
 .text          0x0000341c      0x760 /tmp/ccfIdksA.o
                0x00003514                sfud_read_sfdp
                0x00003af8                sfud_sfdp_get_suitable_eraser
 .text          0x00003b7c      0x594 /tmp/ccgN5HM4.o
                0x00003bf0                shellExtParsePara
                0x00003ea4                shellExtRun
 .text          0x00004110      0x594 /tmp/ccj4BgP6.o
                0x00004110                exec_func
                0x000041c8                set_fnode
                0x000041d4                create_shell_env_varible
                0x00004234                shellRead
                0x00004290                shellWrite
                0x000042e4                getcwd
                0x0000439c                chdir
                0x00004450                listdir
                0x000045c0                createfile
 .text          0x000046a4       0xf0 /tmp/ccpsvQGz.o
                0x000046a4                load_shell
 .text          0x00004794      0x184 /tmp/ccOqH3Ud.o
                0x00004794                shellCD
                0x0000483c                shellLS
                0x000048a0                shellTOUCH
                0x000048fc                shellFsInit
 .text          0x00004918       0x20 /tmp/ccplTDww.o
                0x00004918                agencyshellRun
 .text          0x00004938     0x2010 /tmp/ccCzOSo7.o
                0x00004994                shellRemove
                0x000049d0                shellGetCurrent
                0x00004a00                shellWriteString
                0x00004adc                shellPrint
                0x00004b50                shellCheckPermission
                0x00004bb8                shellToHex
                0x00004c78                shellToDec
                0x00004dcc                shellListItem
                0x00004f8c                shellListCommand
                0x00005028                shellListVar
                0x000050c8                shellListUser
                0x00005168                shellListKey
                0x00005214                shellListAll
                0x00005218                shellDeleteCommandLine
                0x0000526c                shellClearCommandLine
                0x000052c8                shellInsertByte
                0x00005478                shellDeleteByte
                0x000055c8                shellSplit
                0x000056f8                shellSeekCommand
                0x00005804                shellGetVarValue
                0x000059a8                shellSetVarValue
                0x00005a88                shellSetVar
                0x00005b44                shellSetUser
                0x00005bf8                shellInit
                0x00005cd8                shellRunCommand
                0x00005e24                shellNormalInput
                0x00005e34                shellExec
                0x00005fe0                shellUp
                0x0000609c                shellDown
                0x0000613c                shellRight
                0x00006168                shellLeft
                0x000061ac                shellTab
                0x00006410                shellBackspace
                0x00006418                shellDelete
                0x00006420                shellEnter
                0x00006440                shellHelp
                0x0000652c                shellHandler
                0x000066ec                shellTask
                0x00006730                shellUsers
                0x00006758                shellCmds
                0x00006780                shellVars
                0x000067a8                shellKeys
                0x000067d0                shellClear
                0x00006800                shellRun
                0x000068a4                shellExecute
 .text          0x00006948       0x84 /tmp/cc2horVW.o
                0x00006948                shellCompanionAdd
                0x00006984                shellCompanionDel
                0x000069b4                shellCompanionGet
 .text          0x000069cc      0x184 /tmp/ccNrWa3q.o
                0x000069cc                MYSPI_Init
                0x00006a30                MYSPI_Start
                0x00006a54                MYSPI_Stop
                0x00006a78                MYSPI_SwapByte
 .text          0x00006b50      0x270 /tmp/cczPJUx5.o
                0x00006b50                ff_uni2oem
                0x00006c38                ff_oem2uni
                0x00006cd0                ff_wtoupper
 .text          0x00006dc0        0x0 /tmp/ccSU4pzZ.o
 .text          0x00006dc0      0x2bc /tmp/cclzu0L5.o
                0x00006dc0                disk_status
                0x00006e48                disk_initialize
                0x00006ed4                disk_read
                0x00006f80                disk_write
                0x0000702c                disk_ioctl
 .text          0x0000707c     0x4aec /tmp/ccRg8UOO.o
                0x00009310                f_mount
                0x000093a0                f_open
                0x00009684                f_read
                0x000098d0                f_write
                0x00009c4c                f_sync
                0x00009d50                f_close
                0x00009d94                f_chdrive
                0x00009dd0                f_chdir
                0x00009e70                f_getcwd
                0x0000a090                f_lseek
                0x0000a2c8                f_opendir
                0x0000a37c                f_closedir
                0x0000a3ac                f_readdir
                0x0000a454                f_stat
                0x0000a4d8                f_getfree
                0x0000a680                f_truncate
                0x0000a7a8                f_unlink
                0x0000a8a8                f_mkdir
                0x0000aa90                f_rename
                0x0000ac18                f_mkfs
                0x0000b5d8                f_gets
                0x0000b684                f_putc
                0x0000b6d8                f_puts
                0x0000b738                f_printf
 .text          0x0000bb68      0x160 /tmp/cc0K3M7e.o
                0x0000bb68                load_filesystem
 .text          0x0000bcc8      0x3d0 /tmp/ccG0j23s.o
                0x0000bcc8                create_task
                0x0000bd7c                delete_task
                0x0000bdf8                suspend_task
                0x0000be40                resume_task
                0x0000bf28                task_scheduler
 .text          0x0000c098       0x28 /tmp/cca199mx.o
                0x0000c098                ctx_init
                0x0000c0a8                enter_load_from_ctx
                0x0000c0b8                exit_save_to_ctx
 .text          0x0000c0c0       0xb8 /tmp/cc0olfk0.o
                0x0000c0c0                log_init
                0x0000c0cc                log_close
                0x0000c0d0                log_print
 .text          0x0000c178      0x9a0 /tmp/ccYar3Mq.o
                0x0000c260                editor_line_length
                0x0000c2c8                editor_build_line_offsets
                0x0000c450                editor_construct_path
                0x0000c520                editCmd
 .text          0x0000cb18      0x388 /tmp/ccJmXKr2.o
                0x0000cb18                editor_render
 *(.text*)
 .text.startup  0x0000cea0       0x48 /tmp/ccnzqhr2.o
                0x0000cea0                main
 *(.rodata)
 .rodata        0x0000cee8       0xb0 /tmp/ccYm5Zk5.o
 .rodata        0x0000cf98        0xc /tmp/ccnzqhr2.o
 .rodata        0x0000cfa4      0x310 /tmp/cc2HPARa.o
 .rodata        0x0000d2b4       0x3e /tmp/ccfIdksA.o
 *fill*         0x0000d2f2        0x2 
 .rodata        0x0000d2f4       0x20 /tmp/ccgN5HM4.o
 .rodata        0x0000d314       0xf0 /tmp/ccj4BgP6.o
 .rodata        0x0000d404      0x230 /tmp/ccplTDww.o
                0x0000d404                shellCommandList
 .rodata        0x0000d634       0x30 /tmp/ccCzOSo7.o
 .rodata        0x0000d664    0x1318e /tmp/cczPJUx5.o
 *fill*         0x000207f2        0x2 
 .rodata        0x000207f4       0x14 /tmp/cclzu0L5.o
 .rodata        0x00020808       0x3e /tmp/ccRg8UOO.o
 *fill*         0x00020846        0x2 
 .rodata        0x00020848       0x10 /tmp/cc0K3M7e.o
 .rodata        0x00020858       0x28 /tmp/cc0olfk0.o
 .rodata        0x00020880       0x10 /tmp/ccYar3Mq.o
 *(.rodata*)
 .rodata.str1.4
                0x00020890     0x1bdb /tmp/ccYm5Zk5.o
                                 0x2f (size before relaxing)
 .rodata.str1.4
                0x0002246b        0x0 /tmp/cc6rHtbs.o
                                 0x6a (size before relaxing)
 .rodata.str1.4
                0x0002246b        0x0 /tmp/ccnzqhr2.o
                                 0x39 (size before relaxing)
 .rodata.str1.4
                0x0002246b        0x0 /tmp/cc2HPARa.o
                                0x5dd (size before relaxing)
 .rodata.str1.4
                0x0002246b        0x0 /tmp/ccfIdksA.o
                                0x726 (size before relaxing)
 .rodata.str1.4
                0x0002246b        0x0 /tmp/ccgN5HM4.o
                                 0x54 (size before relaxing)
 .rodata.str1.4
                0x0002246b        0x0 /tmp/ccpsvQGz.o
                                 0x6b (size before relaxing)
 .rodata.str1.4
                0x0002246b        0x0 /tmp/ccOqH3Ud.o
                                 0x1e (size before relaxing)
 .rodata.str1.4
                0x0002246b        0x0 /tmp/ccplTDww.o
                                0x24b (size before relaxing)
 .rodata.str1.4
                0x0002246b        0x0 /tmp/ccCzOSo7.o
                                0x5b6 (size before relaxing)
 .rodata.str1.4
                0x0002246b        0x0 /tmp/cclzu0L5.o
                                0x11e (size before relaxing)
 .rodata.str1.4
                0x0002246b        0x0 /tmp/ccRg8UOO.o
                                 0x88 (size before relaxing)
 .rodata.str1.4
                0x0002246b        0x0 /tmp/cc0K3M7e.o
                                0x11c (size before relaxing)
 .rodata.str1.4
                0x0002246b        0x0 /tmp/ccG0j23s.o
                                 0x7c (size before relaxing)
 .rodata.str1.4
                0x0002246b        0x0 /tmp/cc0olfk0.o
                                 0x6e (size before relaxing)
 .rodata.str1.4
                0x0002246b        0x0 /tmp/ccYar3Mq.o
                                 0xca (size before relaxing)
 .rodata.str1.4
                0x0002246b        0x0 /tmp/ccJmXKr2.o
                                0x10b (size before relaxing)
 *(.srodata)
 *fill*         0x0002246b        0x1 
 .srodata       0x0002246c        0x7 /tmp/ccgN5HM4.o
 *fill*         0x00022473        0x1 
 .srodata       0x00022474        0x2 /tmp/ccplTDww.o
                0x00022474                shellCommandCount
 *(.srodata*)
                0x00022478                        . = ALIGN (0x4)
 *fill*         0x00022476        0x2 
                0x00022478                        _etext = .
                0x00022478                        _sidata = _etext

.rela.dyn       0x00022478        0x0
 .rela.text     0x00022478        0x0 /tmp/ccKwYJDu.o

.data           0x30000000       0x7c load address 0x00022478
                0x30000000                        . = ALIGN (0x4)
                0x30000000                        _sdata = .
                0x30000000                        _ram_start = .
                0x30000000                        . = ALIGN (0x4)
 *(.data)
 .data          0x30000000        0x0 /tmp/ccKwYJDu.o
 .data          0x30000000        0x0 /tmp/ccZOjieN.o
 .data          0x30000000        0x0 /tmp/ccaQ0jGT.o
 .data          0x30000000        0x0 /tmp/ccEk31jt.o
 .data          0x30000000        0x0 /tmp/cc1Wc4Tn.o
 .data          0x30000000        0x0 /tmp/ccjve6cI.o
 .data          0x30000000        0x0 /tmp/ccO3lS9b.o
 .data          0x30000000        0x0 /tmp/ccFo8ATQ.o
 .data          0x30000000        0x0 /tmp/ccVBJZrK.o
 .data          0x30000000        0x0 /tmp/ccYm5Zk5.o
 .data          0x30000000        0x0 /tmp/cc6Z91ph.o
 .data          0x30000000        0x0 /tmp/ccrQo9rx.o
 .data          0x30000000        0x0 /tmp/ccL93tXc.o
 .data          0x30000000        0x0 /tmp/cc6rHtbs.o
 .data          0x30000000        0x0 /tmp/ccnzqhr2.o
 .data          0x30000000        0x0 /tmp/ccuzmmwp.o
 .data          0x30000000       0x74 /tmp/cc2HPARa.o
 .data          0x30000074        0x0 /tmp/ccfIdksA.o
 .data          0x30000074        0x0 /tmp/ccgN5HM4.o
 .data          0x30000074        0x0 /tmp/ccj4BgP6.o
 .data          0x30000074        0x0 /tmp/ccpsvQGz.o
 .data          0x30000074        0x0 /tmp/ccOqH3Ud.o
 .data          0x30000074        0x0 /tmp/ccplTDww.o
 .data          0x30000074        0x0 /tmp/ccCzOSo7.o
 .data          0x30000074        0x0 /tmp/cc2horVW.o
 .data          0x30000074        0x0 /tmp/ccNrWa3q.o
 .data          0x30000074        0x0 /tmp/cczPJUx5.o
 .data          0x30000074        0x0 /tmp/ccSU4pzZ.o
 .data          0x30000074        0x0 /tmp/cclzu0L5.o
 .data          0x30000074        0x0 /tmp/ccRg8UOO.o
 .data          0x30000074        0x0 /tmp/cc0K3M7e.o
 .data          0x30000074        0x0 /tmp/ccG0j23s.o
 .data          0x30000074        0x0 /tmp/cca199mx.o
 .data          0x30000074        0x0 /tmp/cc0olfk0.o
 .data          0x30000074        0x0 /tmp/ccYar3Mq.o
 .data          0x30000074        0x0 /tmp/ccJmXKr2.o
 *(.data*)
 *(.sdata)
 .sdata         0x30000074        0x2 /tmp/ccCzOSo7.o
                0x30000074                pairedChars
 *fill*         0x30000076        0x2 
 .sdata         0x30000078        0x4 /tmp/cc0olfk0.o
 *(.sdata*)
                0x3000007c                        . = ALIGN (0x4)
                0x3000007c                        _edata = .

.bss            0x3000007c     0xf314 load address 0x000224f4
                0x3000007c                        . = ALIGN (0x4)
                0x3000007c                        _sbss = .
 *(.bss)
 .bss           0x3000007c        0x0 /tmp/ccKwYJDu.o
 .bss           0x3000007c        0x0 /tmp/ccZOjieN.o
 .bss           0x3000007c        0x0 /tmp/ccaQ0jGT.o
 .bss           0x3000007c        0x0 /tmp/ccEk31jt.o
 .bss           0x3000007c        0x0 /tmp/cc1Wc4Tn.o
 .bss           0x3000007c        0x0 /tmp/ccjve6cI.o
 .bss           0x3000007c        0x0 /tmp/ccO3lS9b.o
 .bss           0x3000007c        0x0 /tmp/ccFo8ATQ.o
 .bss           0x3000007c        0x0 /tmp/ccVBJZrK.o
 .bss           0x3000007c        0x0 /tmp/ccYm5Zk5.o
 .bss           0x3000007c        0x0 /tmp/cc6Z91ph.o
 .bss           0x3000007c        0x0 /tmp/ccrQo9rx.o
 .bss           0x3000007c        0x0 /tmp/ccL93tXc.o
 .bss           0x3000007c        0x0 /tmp/cc6rHtbs.o
 .bss           0x3000007c        0x0 /tmp/ccnzqhr2.o
 .bss           0x3000007c        0x0 /tmp/ccuzmmwp.o
 .bss           0x3000007c      0x105 /tmp/cc2HPARa.o
 .bss           0x30000181        0x0 /tmp/ccfIdksA.o
 .bss           0x30000181        0x0 /tmp/ccgN5HM4.o
 *fill*         0x30000181        0x3 
 .bss           0x30000184       0x80 /tmp/ccj4BgP6.o
                0x30000184                envString
 .bss           0x30000204        0x0 /tmp/ccpsvQGz.o
 .bss           0x30000204        0x0 /tmp/ccOqH3Ud.o
 .bss           0x30000204        0x0 /tmp/ccplTDww.o
 .bss           0x30000204       0x1d /tmp/ccCzOSo7.o
 *fill*         0x30000221        0x3 
 .bss           0x30000224       0x18 /tmp/cc2horVW.o
                0x30000224                shellfs
 .bss           0x3000023c        0x0 /tmp/ccNrWa3q.o
 .bss           0x3000023c        0x0 /tmp/cczPJUx5.o
 .bss           0x3000023c        0x0 /tmp/ccSU4pzZ.o
 .bss           0x3000023c        0x0 /tmp/cclzu0L5.o
 .bss           0x3000023c      0x200 /tmp/ccRg8UOO.o
 .bss           0x3000043c     0x2038 /tmp/cc0K3M7e.o
                0x3000043c                work_buf
                0x3000143c                fs_Flash
 .bss           0x30002474      0xbc8 /tmp/ccG0j23s.o
 .bss           0x3000303c        0x0 /tmp/cca199mx.o
 .bss           0x3000303c        0x0 /tmp/cc0olfk0.o
 .bss           0x3000303c     0xc320 /tmp/ccYar3Mq.o
 .bss           0x3000f35c        0x0 /tmp/ccJmXKr2.o
 *(.bss*)
 *(.sbss)
 .sbss          0x3000f35c        0xc /tmp/cc6rHtbs.o
 .sbss          0x3000f368       0x10 /tmp/ccj4BgP6.o
                0x3000f368                fnode
                0x3000f36c                envFunc
                0x3000f370                envChar
                0x3000f372                envShort
                0x3000f374                envInt
 .sbss          0x3000f378        0x4 /tmp/cclzu0L5.o
 .sbss          0x3000f37c        0x8 /tmp/ccRg8UOO.o
 .sbss          0x3000f384        0x4 /tmp/cc0K3M7e.o
                0x3000f384                res_Flash
 .sbss          0x3000f388        0x8 /tmp/ccG0j23s.o
 *(.sbss*)
 *(COMMON)
                0x3000f390                        . = ALIGN (0x4)
                0x3000f390                        _ebss = .

.heap           0x3000f390        0x0
                0x3000f390                        . = ALIGN (0x4)
                0x3000f390                        _heap_start = .

.stack_dummy    0x30020000        0x0
                0x30020000                        PROVIDE (_stack_point = .)
LOAD /tmp/ccKwYJDu.o
LOAD /tmp/ccZOjieN.o
LOAD /tmp/ccaQ0jGT.o
LOAD /tmp/ccEk31jt.o
LOAD /tmp/cc1Wc4Tn.o
LOAD /tmp/ccjve6cI.o
LOAD /tmp/ccO3lS9b.o
LOAD /tmp/ccFo8ATQ.o
LOAD /tmp/ccVBJZrK.o
LOAD /tmp/ccYm5Zk5.o
LOAD /tmp/cc6Z91ph.o
LOAD /tmp/ccrQo9rx.o
LOAD /tmp/ccL93tXc.o
LOAD /tmp/cc6rHtbs.o
LOAD /tmp/ccnzqhr2.o
LOAD /tmp/ccuzmmwp.o
LOAD /tmp/cc2HPARa.o
LOAD /tmp/ccfIdksA.o
LOAD /tmp/ccgN5HM4.o
LOAD /tmp/ccj4BgP6.o
LOAD /tmp/ccpsvQGz.o
LOAD /tmp/ccOqH3Ud.o
LOAD /tmp/ccplTDww.o
LOAD /tmp/ccCzOSo7.o
LOAD /tmp/cc2horVW.o
LOAD /tmp/ccNrWa3q.o
LOAD /tmp/cczPJUx5.o
LOAD /tmp/ccSU4pzZ.o
LOAD /tmp/cclzu0L5.o
LOAD /tmp/ccRg8UOO.o
LOAD /tmp/cc0K3M7e.o
LOAD /tmp/ccG0j23s.o
LOAD /tmp/cca199mx.o
LOAD /tmp/cc0olfk0.o
LOAD /tmp/ccYar3Mq.o
LOAD /tmp/ccJmXKr2.o
OUTPUT(build/retrosoc_fw elf32-littleriscv)

.riscv.attributes
                0x00000000       0x2a
 .riscv.attributes
                0x00000000       0x28 /tmp/ccKwYJDu.o
 .riscv.attributes
                0x00000028       0x28 /tmp/ccZOjieN.o
 .riscv.attributes
                0x00000050       0x28 /tmp/ccaQ0jGT.o
 .riscv.attributes
                0x00000078       0x2a /tmp/ccEk31jt.o
 .riscv.attributes
                0x000000a2       0x2a /tmp/cc1Wc4Tn.o
 .riscv.attributes
                0x000000cc       0x2a /tmp/ccjve6cI.o
 .riscv.attributes
                0x000000f6       0x2a /tmp/ccO3lS9b.o
 .riscv.attributes
                0x00000120       0x2a /tmp/ccFo8ATQ.o
 .riscv.attributes
                0x0000014a       0x2a /tmp/ccVBJZrK.o
 .riscv.attributes
                0x00000174       0x2a /tmp/ccYm5Zk5.o
 .riscv.attributes
                0x0000019e       0x2a /tmp/cc6Z91ph.o
 .riscv.attributes
                0x000001c8       0x2a /tmp/ccrQo9rx.o
 .riscv.attributes
                0x000001f2       0x2a /tmp/ccL93tXc.o
 .riscv.attributes
                0x0000021c       0x2a /tmp/cc6rHtbs.o
 .riscv.attributes
                0x00000246       0x2a /tmp/ccnzqhr2.o
 .riscv.attributes
                0x00000270       0x2a /tmp/ccuzmmwp.o
 .riscv.attributes
                0x0000029a       0x2a /tmp/cc2HPARa.o
 .riscv.attributes
                0x000002c4       0x2a /tmp/ccfIdksA.o
 .riscv.attributes
                0x000002ee       0x2a /tmp/ccgN5HM4.o
 .riscv.attributes
                0x00000318       0x2a /tmp/ccj4BgP6.o
 .riscv.attributes
                0x00000342       0x2a /tmp/ccpsvQGz.o
 .riscv.attributes
                0x0000036c       0x2a /tmp/ccOqH3Ud.o
 .riscv.attributes
                0x00000396       0x2a /tmp/ccplTDww.o
 .riscv.attributes
                0x000003c0       0x2a /tmp/ccCzOSo7.o
 .riscv.attributes
                0x000003ea       0x2a /tmp/cc2horVW.o
 .riscv.attributes
                0x00000414       0x2a /tmp/ccNrWa3q.o
 .riscv.attributes
                0x0000043e       0x2a /tmp/cczPJUx5.o
 .riscv.attributes
                0x00000468       0x2a /tmp/ccSU4pzZ.o
 .riscv.attributes
                0x00000492       0x2a /tmp/cclzu0L5.o
 .riscv.attributes
                0x000004bc       0x2a /tmp/ccRg8UOO.o
 .riscv.attributes
                0x000004e6       0x2a /tmp/cc0K3M7e.o
 .riscv.attributes
                0x00000510       0x2a /tmp/ccG0j23s.o
 .riscv.attributes
                0x0000053a       0x2a /tmp/cca199mx.o
 .riscv.attributes
                0x00000564       0x2a /tmp/cc0olfk0.o
 .riscv.attributes
                0x0000058e       0x2a /tmp/ccYar3Mq.o
 .riscv.attributes
                0x000005b8       0x2a /tmp/ccJmXKr2.o

.comment        0x00000000       0x19
 .comment       0x00000000       0x19 /tmp/ccEk31jt.o
                                 0x1a (size before relaxing)
 .comment       0x00000019        0x0 /tmp/cc1Wc4Tn.o
                                 0x1a (size before relaxing)
 .comment       0x00000019        0x0 /tmp/ccjve6cI.o
                                 0x1a (size before relaxing)
 .comment       0x00000019        0x0 /tmp/ccO3lS9b.o
                                 0x1a (size before relaxing)
 .comment       0x00000019        0x0 /tmp/ccFo8ATQ.o
                                 0x1a (size before relaxing)
 .comment       0x00000019        0x0 /tmp/ccVBJZrK.o
                                 0x1a (size before relaxing)
 .comment       0x00000019        0x0 /tmp/ccYm5Zk5.o
                                 0x1a (size before relaxing)
 .comment       0x00000019        0x0 /tmp/cc6Z91ph.o
                                 0x1a (size before relaxing)
 .comment       0x00000019        0x0 /tmp/ccrQo9rx.o
                                 0x1a (size before relaxing)
 .comment       0x00000019        0x0 /tmp/ccL93tXc.o
                                 0x1a (size before relaxing)
 .comment       0x00000019        0x0 /tmp/cc6rHtbs.o
                                 0x1a (size before relaxing)
 .comment       0x00000019        0x0 /tmp/ccnzqhr2.o
                                 0x1a (size before relaxing)
 .comment       0x00000019        0x0 /tmp/ccuzmmwp.o
                                 0x1a (size before relaxing)
 .comment       0x00000019        0x0 /tmp/cc2HPARa.o
                                 0x1a (size before relaxing)
 .comment       0x00000019        0x0 /tmp/ccfIdksA.o
                                 0x1a (size before relaxing)
 .comment       0x00000019        0x0 /tmp/ccgN5HM4.o
                                 0x1a (size before relaxing)
 .comment       0x00000019        0x0 /tmp/ccj4BgP6.o
                                 0x1a (size before relaxing)
 .comment       0x00000019        0x0 /tmp/ccpsvQGz.o
                                 0x1a (size before relaxing)
 .comment       0x00000019        0x0 /tmp/ccOqH3Ud.o
                                 0x1a (size before relaxing)
 .comment       0x00000019        0x0 /tmp/ccplTDww.o
                                 0x1a (size before relaxing)
 .comment       0x00000019        0x0 /tmp/ccCzOSo7.o
                                 0x1a (size before relaxing)
 .comment       0x00000019        0x0 /tmp/cc2horVW.o
                                 0x1a (size before relaxing)
 .comment       0x00000019        0x0 /tmp/ccNrWa3q.o
                                 0x1a (size before relaxing)
 .comment       0x00000019        0x0 /tmp/cczPJUx5.o
                                 0x1a (size before relaxing)
 .comment       0x00000019        0x0 /tmp/ccSU4pzZ.o
                                 0x1a (size before relaxing)
 .comment       0x00000019        0x0 /tmp/cclzu0L5.o
                                 0x1a (size before relaxing)
 .comment       0x00000019        0x0 /tmp/ccRg8UOO.o
                                 0x1a (size before relaxing)
 .comment       0x00000019        0x0 /tmp/cc0K3M7e.o
                                 0x1a (size before relaxing)
 .comment       0x00000019        0x0 /tmp/ccG0j23s.o
                                 0x1a (size before relaxing)
 .comment       0x00000019        0x0 /tmp/cca199mx.o
                                 0x1a (size before relaxing)
 .comment       0x00000019        0x0 /tmp/cc0olfk0.o
                                 0x1a (size before relaxing)
 .comment       0x00000019        0x0 /tmp/ccYar3Mq.o
                                 0x1a (size before relaxing)
 .comment       0x00000019        0x0 /tmp/ccJmXKr2.o
                                 0x1a (size before relaxing)

.note.GNU-stack
                0x00000000        0x0
 .note.GNU-stack
                0x00000000        0x0 /tmp/ccEk31jt.o
 .note.GNU-stack
                0x00000000        0x0 /tmp/cc1Wc4Tn.o
 .note.GNU-stack
                0x00000000        0x0 /tmp/ccjve6cI.o
 .note.GNU-stack
                0x00000000        0x0 /tmp/ccO3lS9b.o
 .note.GNU-stack
                0x00000000        0x0 /tmp/ccFo8ATQ.o
 .note.GNU-stack
                0x00000000        0x0 /tmp/ccVBJZrK.o
 .note.GNU-stack
                0x00000000        0x0 /tmp/ccYm5Zk5.o
 .note.GNU-stack
                0x00000000        0x0 /tmp/cc6Z91ph.o
 .note.GNU-stack
                0x00000000        0x0 /tmp/ccrQo9rx.o
 .note.GNU-stack
                0x00000000        0x0 /tmp/ccL93tXc.o
 .note.GNU-stack
                0x00000000        0x0 /tmp/cc6rHtbs.o
 .note.GNU-stack
                0x00000000        0x0 /tmp/ccnzqhr2.o
 .note.GNU-stack
                0x00000000        0x0 /tmp/ccuzmmwp.o
 .note.GNU-stack
                0x00000000        0x0 /tmp/cc2HPARa.o
 .note.GNU-stack
                0x00000000        0x0 /tmp/ccfIdksA.o
 .note.GNU-stack
                0x00000000        0x0 /tmp/ccgN5HM4.o
 .note.GNU-stack
                0x00000000        0x0 /tmp/ccj4BgP6.o
 .note.GNU-stack
                0x00000000        0x0 /tmp/ccpsvQGz.o
 .note.GNU-stack
                0x00000000        0x0 /tmp/ccOqH3Ud.o
 .note.GNU-stack
                0x00000000        0x0 /tmp/ccplTDww.o
 .note.GNU-stack
                0x00000000        0x0 /tmp/ccCzOSo7.o
 .note.GNU-stack
                0x00000000        0x0 /tmp/cc2horVW.o
 .note.GNU-stack
                0x00000000        0x0 /tmp/ccNrWa3q.o
 .note.GNU-stack
                0x00000000        0x0 /tmp/cczPJUx5.o
 .note.GNU-stack
                0x00000000        0x0 /tmp/ccSU4pzZ.o
 .note.GNU-stack
                0x00000000        0x0 /tmp/cclzu0L5.o
 .note.GNU-stack
                0x00000000        0x0 /tmp/ccRg8UOO.o
 .note.GNU-stack
                0x00000000        0x0 /tmp/cc0K3M7e.o
 .note.GNU-stack
                0x00000000        0x0 /tmp/ccG0j23s.o
 .note.GNU-stack
                0x00000000        0x0 /tmp/cca199mx.o
 .note.GNU-stack
                0x00000000        0x0 /tmp/cc0olfk0.o
 .note.GNU-stack
                0x00000000        0x0 /tmp/ccYar3Mq.o
 .note.GNU-stack
                0x00000000        0x0 /tmp/ccJmXKr2.o

Cross Reference Table

Symbol                                            File
MYSPI_Init                                        /tmp/ccNrWa3q.o
MYSPI_Start                                       /tmp/ccNrWa3q.o
MYSPI_Stop                                        /tmp/ccNrWa3q.o
MYSPI_SwapByte                                    /tmp/ccNrWa3q.o
__divsi3                                          /tmp/ccaQ0jGT.o
__lshrdi3                                         /tmp/ccVBJZrK.o
__modsi3                                          /tmp/ccaQ0jGT.o
__muldi3                                          /tmp/ccZOjieN.o
__mulsi3                                          /tmp/ccFo8ATQ.o
__udivsi3                                         /tmp/ccaQ0jGT.o
__umodsi3                                         /tmp/ccaQ0jGT.o
_ebss                                             /tmp/ccKwYJDu.o
_edata                                            /tmp/ccKwYJDu.o
_sbss                                             /tmp/ccKwYJDu.o
_sdata                                            /tmp/ccKwYJDu.o
_sidata                                           /tmp/ccKwYJDu.o
_stack_point                                      /tmp/ccKwYJDu.o
agencyshellRun                                    /tmp/ccplTDww.o
chdir                                             /tmp/ccj4BgP6.o
                                                  /tmp/ccpsvQGz.o
create_shell_env_varible                          /tmp/ccj4BgP6.o
                                                  /tmp/ccnzqhr2.o
create_task                                       /tmp/ccG0j23s.o
createfile                                        /tmp/ccj4BgP6.o
                                                  /tmp/ccpsvQGz.o
ctx_init                                          /tmp/cca199mx.o
                                                  /tmp/ccG0j23s.o
delay_ms                                          /tmp/ccO3lS9b.o
delete_task                                       /tmp/ccG0j23s.o
disk_initialize                                   /tmp/cclzu0L5.o
                                                  /tmp/ccRg8UOO.o
disk_ioctl                                        /tmp/cclzu0L5.o
                                                  /tmp/ccRg8UOO.o
disk_read                                         /tmp/cclzu0L5.o
                                                  /tmp/ccRg8UOO.o
disk_status                                       /tmp/cclzu0L5.o
                                                  /tmp/ccRg8UOO.o
disk_write                                        /tmp/cclzu0L5.o
                                                  /tmp/ccRg8UOO.o
easy_print                                        /tmp/ccnzqhr2.o
editCmd                                           /tmp/ccYar3Mq.o
                                                  /tmp/ccplTDww.o
editor_build_line_offsets                         /tmp/ccYar3Mq.o
editor_construct_path                             /tmp/ccYar3Mq.o
editor_line_length                                /tmp/ccYar3Mq.o
                                                  /tmp/ccJmXKr2.o
editor_render                                     /tmp/ccJmXKr2.o
                                                  /tmp/ccYar3Mq.o
enter_load_from_ctx                               /tmp/cca199mx.o
                                                  /tmp/ccG0j23s.o
envChar                                           /tmp/ccj4BgP6.o
                                                  /tmp/ccplTDww.o
envFunc                                           /tmp/ccj4BgP6.o
                                                  /tmp/ccplTDww.o
envInt                                            /tmp/ccj4BgP6.o
                                                  /tmp/ccplTDww.o
envShort                                          /tmp/ccj4BgP6.o
                                                  /tmp/ccplTDww.o
envString                                         /tmp/ccj4BgP6.o
                                                  /tmp/ccplTDww.o
exec_func                                         /tmp/ccj4BgP6.o
exit_save_to_ctx                                  /tmp/cca199mx.o
                                                  /tmp/ccG0j23s.o
f_chdir                                           /tmp/ccRg8UOO.o
                                                  /tmp/ccj4BgP6.o
f_chdrive                                         /tmp/ccRg8UOO.o
f_close                                           /tmp/ccRg8UOO.o
                                                  /tmp/ccYar3Mq.o
                                                  /tmp/ccj4BgP6.o
f_closedir                                        /tmp/ccRg8UOO.o
                                                  /tmp/ccj4BgP6.o
f_getcwd                                          /tmp/ccRg8UOO.o
                                                  /tmp/ccj4BgP6.o
f_getfree                                         /tmp/ccRg8UOO.o
f_gets                                            /tmp/ccRg8UOO.o
f_lseek                                           /tmp/ccRg8UOO.o
f_mkdir                                           /tmp/ccRg8UOO.o
f_mkfs                                            /tmp/ccRg8UOO.o
                                                  /tmp/cc0K3M7e.o
f_mount                                           /tmp/ccRg8UOO.o
                                                  /tmp/cc0K3M7e.o
f_open                                            /tmp/ccRg8UOO.o
                                                  /tmp/ccYar3Mq.o
                                                  /tmp/ccj4BgP6.o
f_opendir                                         /tmp/ccRg8UOO.o
                                                  /tmp/ccj4BgP6.o
f_printf                                          /tmp/ccRg8UOO.o
f_putc                                            /tmp/ccRg8UOO.o
f_puts                                            /tmp/ccRg8UOO.o
f_read                                            /tmp/ccRg8UOO.o
                                                  /tmp/ccYar3Mq.o
f_readdir                                         /tmp/ccRg8UOO.o
                                                  /tmp/ccj4BgP6.o
f_rename                                          /tmp/ccRg8UOO.o
f_stat                                            /tmp/ccRg8UOO.o
f_sync                                            /tmp/ccRg8UOO.o
f_truncate                                        /tmp/ccRg8UOO.o
f_unlink                                          /tmp/ccRg8UOO.o
f_write                                           /tmp/ccRg8UOO.o
                                                  /tmp/ccYar3Mq.o
ff_oem2uni                                        /tmp/cczPJUx5.o
                                                  /tmp/ccRg8UOO.o
ff_uni2oem                                        /tmp/cczPJUx5.o
                                                  /tmp/ccRg8UOO.o
ff_wtoupper                                       /tmp/cczPJUx5.o
                                                  /tmp/ccRg8UOO.o
fnode                                             /tmp/ccj4BgP6.o
fs_Flash                                          /tmp/cc0K3M7e.o
getcwd                                            /tmp/ccj4BgP6.o
                                                  /tmp/ccpsvQGz.o
gpio_hal_get_level                                /tmp/cc6rHtbs.o
                                                  /tmp/ccNrWa3q.o
gpio_hal_input_enable                             /tmp/cc6rHtbs.o
                                                  /tmp/ccNrWa3q.o
gpio_hal_output_enable                            /tmp/cc6rHtbs.o
                                                  /tmp/ccNrWa3q.o
gpio_hal_read_update                              /tmp/cc6rHtbs.o
                                                  /tmp/ccNrWa3q.o
gpio_hal_set_fcfg                                 /tmp/cc6rHtbs.o
gpio_hal_set_level                                /tmp/cc6rHtbs.o
                                                  /tmp/ccNrWa3q.o
gpio_hal_set_mux                                  /tmp/cc6rHtbs.o
gpio_hal_write_update                             /tmp/cc6rHtbs.o
                                                  /tmp/ccNrWa3q.o
hal_delay_ms                                      /tmp/ccO3lS9b.o
hal_delay_s                                       /tmp/ccO3lS9b.o
hal_delay_us                                      /tmp/ccO3lS9b.o
                                                  /tmp/cc6rHtbs.o
hal_get_sys_tick                                  /tmp/ccO3lS9b.o
hal_hp_uart_config                                /tmp/cc1Wc4Tn.o
hal_hp_uart_init                                  /tmp/cc1Wc4Tn.o
hal_hp_uart_putstr                                /tmp/cc1Wc4Tn.o
hal_hp_uart_recv                                  /tmp/cc1Wc4Tn.o
hal_hp_uart_recv_str                              /tmp/cc1Wc4Tn.o
hal_hp_uart_send                                  /tmp/cc1Wc4Tn.o
hal_i2c_deinit                                    /tmp/ccL93tXc.o
hal_i2c_init                                      /tmp/ccL93tXc.o
hal_i2c_read_nbyte                                /tmp/ccL93tXc.o
hal_i2c_write_nbyte                               /tmp/ccL93tXc.o
hal_qspi_deinit                                   /tmp/ccrQo9rx.o
hal_qspi_init                                     /tmp/ccrQo9rx.o
                                                  /tmp/ccuzmmwp.o
hal_qspi_read                                     /tmp/ccrQo9rx.o
                                                  /tmp/ccuzmmwp.o
hal_qspi_send_cmd                                 /tmp/ccrQo9rx.o
                                                  /tmp/ccuzmmwp.o
hal_qspi_write                                    /tmp/ccrQo9rx.o
                                                  /tmp/ccuzmmwp.o
hal_qspi_write_16                                 /tmp/ccrQo9rx.o
hal_qspi_write_16_cs                              /tmp/ccrQo9rx.o
hal_qspi_write_32                                 /tmp/ccrQo9rx.o
hal_qspi_write_32_cs                              /tmp/ccrQo9rx.o
hal_qspi_write_32x16                              /tmp/ccrQo9rx.o
hal_qspi_write_32x16_cs                           /tmp/ccrQo9rx.o
hal_qspi_write_32x2                               /tmp/ccrQo9rx.o
hal_qspi_write_32x2_cs                            /tmp/ccrQo9rx.o
hal_qspi_write_32x32                              /tmp/ccrQo9rx.o
hal_qspi_write_32x32_cs                           /tmp/ccrQo9rx.o
hal_qspi_write_32x8                               /tmp/ccrQo9rx.o
hal_qspi_write_32x8_cs                            /tmp/ccrQo9rx.o
hal_qspi_write_8                                  /tmp/ccrQo9rx.o
hal_qspi_write_8_cs                               /tmp/ccrQo9rx.o
hal_sys_getchar                                   /tmp/cc6Z91ph.o
                                                  /tmp/ccYar3Mq.o
                                                  /tmp/ccj4BgP6.o
hal_sys_putchar                                   /tmp/cc6Z91ph.o
                                                  /tmp/ccJmXKr2.o
                                                  /tmp/ccj4BgP6.o
                                                  /tmp/ccYm5Zk5.o
hal_sys_putstr                                    /tmp/cc6Z91ph.o
hal_sys_tick_init                                 /tmp/ccO3lS9b.o
hal_sys_uart_init                                 /tmp/cc6Z91ph.o
                                                  /tmp/ccnzqhr2.o
listdir                                           /tmp/ccj4BgP6.o
                                                  /tmp/ccpsvQGz.o
load_filesystem                                   /tmp/cc0K3M7e.o
                                                  /tmp/ccpsvQGz.o
load_shell                                        /tmp/ccpsvQGz.o
                                                  /tmp/ccnzqhr2.o
log_close                                         /tmp/cc0olfk0.o
log_init                                          /tmp/cc0olfk0.o
log_print                                         /tmp/cc0olfk0.o
                                                  /tmp/cc0K3M7e.o
                                                  /tmp/ccRg8UOO.o
                                                  /tmp/cclzu0L5.o
                                                  /tmp/ccj4BgP6.o
                                                  /tmp/ccgN5HM4.o
                                                  /tmp/ccfIdksA.o
                                                  /tmp/cc2HPARa.o
                                                  /tmp/cc6rHtbs.o
main                                              /tmp/ccnzqhr2.o
                                                  /tmp/ccKwYJDu.o
memcmp                                            /tmp/ccEk31jt.o
                                                  /tmp/ccRg8UOO.o
memcpy                                            /tmp/ccEk31jt.o
                                                  /tmp/cca199mx.o
                                                  /tmp/ccG0j23s.o
                                                  /tmp/cc0K3M7e.o
                                                  /tmp/ccRg8UOO.o
                                                  /tmp/cc2horVW.o
                                                  /tmp/ccCzOSo7.o
                                                  /tmp/cc2HPARa.o
                                                  /tmp/ccnzqhr2.o
memmove                                           /tmp/ccEk31jt.o
                                                  /tmp/ccYar3Mq.o
memset                                            /tmp/ccEk31jt.o
                                                  /tmp/ccYar3Mq.o
                                                  /tmp/cca199mx.o
                                                  /tmp/ccG0j23s.o
                                                  /tmp/ccRg8UOO.o
                                                  /tmp/ccpsvQGz.o
                                                  /tmp/ccgN5HM4.o
                                                  /tmp/ccfIdksA.o
pairedChars                                       /tmp/ccCzOSo7.o
printf                                            /tmp/ccYm5Zk5.o
                                                  /tmp/ccJmXKr2.o
                                                  /tmp/ccYar3Mq.o
                                                  /tmp/cc0olfk0.o
                                                  /tmp/ccG0j23s.o
                                                  /tmp/cc0K3M7e.o
                                                  /tmp/ccpsvQGz.o
                                                  /tmp/ccnzqhr2.o
pwm_hal_disable                                   /tmp/ccjve6cI.o
pwm_hal_enable                                    /tmp/ccjve6cI.o
pwm_hal_init                                      /tmp/ccjve6cI.o
pwm_hal_set_compare                               /tmp/ccjve6cI.o
res_Flash                                         /tmp/cc0K3M7e.o
resume_task                                       /tmp/ccG0j23s.o
set_fnode                                         /tmp/ccj4BgP6.o
                                                  /tmp/ccnzqhr2.o
sfud_chip_erase                                   /tmp/cc2HPARa.o
sfud_device_init                                  /tmp/cc2HPARa.o
sfud_erase                                        /tmp/cc2HPARa.o
sfud_erase_write                                  /tmp/cc2HPARa.o
                                                  /tmp/cclzu0L5.o
sfud_get_device                                   /tmp/cc2HPARa.o
sfud_get_device_num                               /tmp/cc2HPARa.o
sfud_get_device_table                             /tmp/cc2HPARa.o
                                                  /tmp/cclzu0L5.o
sfud_init                                         /tmp/cc2HPARa.o
                                                  /tmp/cclzu0L5.o
sfud_read                                         /tmp/cc2HPARa.o
                                                  /tmp/cclzu0L5.o
sfud_read_sfdp                                    /tmp/ccfIdksA.o
                                                  /tmp/cc2HPARa.o
sfud_read_status                                  /tmp/cc2HPARa.o
                                                  /tmp/cclzu0L5.o
sfud_sfdp_get_suitable_eraser                     /tmp/ccfIdksA.o
                                                  /tmp/cc2HPARa.o
sfud_spi_port_init                                /tmp/ccuzmmwp.o
                                                  /tmp/cc2HPARa.o
sfud_write                                        /tmp/cc2HPARa.o
sfud_write_status                                 /tmp/cc2HPARa.o
shellBackspace                                    /tmp/ccCzOSo7.o
                                                  /tmp/ccplTDww.o
shellCD                                           /tmp/ccOqH3Ud.o
                                                  /tmp/ccplTDww.o
shellCheckPermission                              /tmp/ccCzOSo7.o
shellClear                                        /tmp/ccCzOSo7.o
                                                  /tmp/ccplTDww.o
shellClearCommandLine                             /tmp/ccCzOSo7.o
shellCmds                                         /tmp/ccCzOSo7.o
                                                  /tmp/ccplTDww.o
shellCommandCount                                 /tmp/ccplTDww.o
                                                  /tmp/ccCzOSo7.o
shellCommandList                                  /tmp/ccplTDww.o
                                                  /tmp/ccCzOSo7.o
shellCompanionAdd                                 /tmp/cc2horVW.o
                                                  /tmp/ccpsvQGz.o
shellCompanionDel                                 /tmp/cc2horVW.o
shellCompanionGet                                 /tmp/cc2horVW.o
                                                  /tmp/ccOqH3Ud.o
shellDelete                                       /tmp/ccCzOSo7.o
                                                  /tmp/ccplTDww.o
shellDeleteByte                                   /tmp/ccCzOSo7.o
shellDeleteCommandLine                            /tmp/ccCzOSo7.o
shellDown                                         /tmp/ccCzOSo7.o
                                                  /tmp/ccplTDww.o
shellEnter                                        /tmp/ccCzOSo7.o
                                                  /tmp/ccplTDww.o
shellExec                                         /tmp/ccCzOSo7.o
shellExecute                                      /tmp/ccCzOSo7.o
                                                  /tmp/ccplTDww.o
shellExtParsePara                                 /tmp/ccgN5HM4.o
                                                  /tmp/ccCzOSo7.o
shellExtRun                                       /tmp/ccgN5HM4.o
                                                  /tmp/ccCzOSo7.o
shellFsInit                                       /tmp/ccOqH3Ud.o
                                                  /tmp/ccpsvQGz.o
shellGetCurrent                                   /tmp/ccCzOSo7.o
                                                  /tmp/ccYar3Mq.o
                                                  /tmp/ccplTDww.o
                                                  /tmp/ccOqH3Ud.o
shellGetVarValue                                  /tmp/ccCzOSo7.o
                                                  /tmp/ccgN5HM4.o
shellHandler                                      /tmp/ccCzOSo7.o
shellHelp                                         /tmp/ccCzOSo7.o
                                                  /tmp/ccplTDww.o
shellInit                                         /tmp/ccCzOSo7.o
                                                  /tmp/ccpsvQGz.o
shellInsertByte                                   /tmp/ccCzOSo7.o
shellKeys                                         /tmp/ccCzOSo7.o
                                                  /tmp/ccplTDww.o
shellLS                                           /tmp/ccOqH3Ud.o
                                                  /tmp/ccplTDww.o
shellLeft                                         /tmp/ccCzOSo7.o
                                                  /tmp/ccplTDww.o
shellListAll                                      /tmp/ccCzOSo7.o
shellListCommand                                  /tmp/ccCzOSo7.o
shellListItem                                     /tmp/ccCzOSo7.o
shellListKey                                      /tmp/ccCzOSo7.o
shellListUser                                     /tmp/ccCzOSo7.o
shellListVar                                      /tmp/ccCzOSo7.o
shellNormalInput                                  /tmp/ccCzOSo7.o
shellPrint                                        /tmp/ccCzOSo7.o
shellRead                                         /tmp/ccj4BgP6.o
                                                  /tmp/ccpsvQGz.o
shellRemove                                       /tmp/ccCzOSo7.o
shellRight                                        /tmp/ccCzOSo7.o
                                                  /tmp/ccplTDww.o
shellRun                                          /tmp/ccCzOSo7.o
                                                  /tmp/ccplTDww.o
shellRunCommand                                   /tmp/ccCzOSo7.o
shellSeekCommand                                  /tmp/ccCzOSo7.o
                                                  /tmp/ccgN5HM4.o
shellSetUser                                      /tmp/ccCzOSo7.o
shellSetVar                                       /tmp/ccCzOSo7.o
                                                  /tmp/ccplTDww.o
shellSetVarValue                                  /tmp/ccCzOSo7.o
shellSplit                                        /tmp/ccCzOSo7.o
shellTOUCH                                        /tmp/ccOqH3Ud.o
                                                  /tmp/ccplTDww.o
shellTab                                          /tmp/ccCzOSo7.o
                                                  /tmp/ccplTDww.o
shellTask                                         /tmp/ccCzOSo7.o
                                                  /tmp/ccpsvQGz.o
shellToDec                                        /tmp/ccCzOSo7.o
shellToHex                                        /tmp/ccCzOSo7.o
shellUp                                           /tmp/ccCzOSo7.o
                                                  /tmp/ccplTDww.o
shellUsers                                        /tmp/ccCzOSo7.o
                                                  /tmp/ccplTDww.o
shellVars                                         /tmp/ccCzOSo7.o
                                                  /tmp/ccplTDww.o
shellWrite                                        /tmp/ccj4BgP6.o
                                                  /tmp/ccpsvQGz.o
shellWriteString                                  /tmp/ccCzOSo7.o
                                                  /tmp/ccOqH3Ud.o
shellfs                                           /tmp/cc2horVW.o
snprintf                                          /tmp/ccYm5Zk5.o
                                                  /tmp/ccJmXKr2.o
                                                  /tmp/ccYar3Mq.o
                                                  /tmp/ccj4BgP6.o
strchr                                            /tmp/ccEk31jt.o
                                                  /tmp/ccRg8UOO.o
strcmp                                            /tmp/ccEk31jt.o
                                                  /tmp/ccCzOSo7.o
strcpy                                            /tmp/ccEk31jt.o
                                                  /tmp/ccj4BgP6.o
strlen                                            /tmp/ccEk31jt.o
                                                  /tmp/ccYar3Mq.o
                                                  /tmp/ccCzOSo7.o
                                                  /tmp/ccj4BgP6.o
strncmp                                           /tmp/ccEk31jt.o
                                                  /tmp/ccCzOSo7.o
strncpy                                           /tmp/ccEk31jt.o
suspend_task                                      /tmp/ccG0j23s.o
task_scheduler                                    /tmp/ccG0j23s.o
vprintf                                           /tmp/ccYm5Zk5.o
                                                  /tmp/cc0olfk0.o
vsnprintf                                         /tmp/ccYm5Zk5.o
                                                  /tmp/ccCzOSo7.o
work_buf                                          /tmp/cc0K3M7e.o
