
Discarded input sections

 .debug_line    0x00000000      0x163 /tmp/ccdLbKEt.o
 .debug_line_str
                0x00000000       0x22 /tmp/ccdLbKEt.o
 .debug_info    0x00000000       0x25 /tmp/ccdLbKEt.o
 .debug_abbrev  0x00000000       0x14 /tmp/ccdLbKEt.o
 .debug_aranges
                0x00000000       0x20 /tmp/ccdLbKEt.o
 .debug_str     0x00000000       0x2e /tmp/ccdLbKEt.o
 .debug_line    0x00000000       0x7a /tmp/ccl1h2wu.o
 .debug_line_str
                0x00000000       0x23 /tmp/ccl1h2wu.o
 .debug_info    0x00000000       0x31 /tmp/ccl1h2wu.o
 .debug_abbrev  0x00000000       0x28 /tmp/ccl1h2wu.o
 .debug_aranges
                0x00000000       0x20 /tmp/ccl1h2wu.o
 .debug_str     0x00000000       0x38 /tmp/ccl1h2wu.o
 .debug_line    0x00000000      0x152 /tmp/ccFoJeuJ.o
 .debug_line_str
                0x00000000       0x20 /tmp/ccFoJeuJ.o
 .debug_info    0x00000000       0x54 /tmp/ccFoJeuJ.o
 .debug_abbrev  0x00000000       0x28 /tmp/ccFoJeuJ.o
 .debug_aranges
                0x00000000       0x20 /tmp/ccFoJeuJ.o
 .debug_str     0x00000000       0x52 /tmp/ccFoJeuJ.o
 .debug_info    0x00000000      0x446 /tmp/ccfGU1IX.o
 .debug_abbrev  0x00000000      0x10d /tmp/ccfGU1IX.o
 .debug_loclists
                0x00000000      0x66a /tmp/ccfGU1IX.o
 .debug_aranges
                0x00000000       0x20 /tmp/ccfGU1IX.o
 .debug_line    0x00000000      0x514 /tmp/ccfGU1IX.o
 .debug_str     0x00000000      0x162 /tmp/ccfGU1IX.o
 .debug_line_str
                0x00000000       0x9d /tmp/ccfGU1IX.o
 .debug_frame   0x00000000       0xb0 /tmp/ccfGU1IX.o
 .debug_info    0x00000000      0x1fa /tmp/ccxwSY1j.o
 .debug_abbrev  0x00000000      0x11a /tmp/ccxwSY1j.o
 .debug_loclists
                0x00000000       0x3b /tmp/ccxwSY1j.o
 .debug_aranges
                0x00000000       0x20 /tmp/ccxwSY1j.o
 .debug_line    0x00000000      0x28f /tmp/ccxwSY1j.o
 .debug_str     0x00000000      0x1ea /tmp/ccxwSY1j.o
 .debug_line_str
                0x00000000       0xb6 /tmp/ccxwSY1j.o
 .debug_frame   0x00000000       0x98 /tmp/ccxwSY1j.o
 .debug_info    0x00000000      0x203 /tmp/ccHyFeWa.o
 .debug_abbrev  0x00000000       0xf5 /tmp/ccHyFeWa.o
 .debug_loclists
                0x00000000       0x7a /tmp/ccHyFeWa.o
 .debug_aranges
                0x00000000       0x20 /tmp/ccHyFeWa.o
 .debug_line    0x00000000      0x1a3 /tmp/ccHyFeWa.o
 .debug_str     0x00000000      0x189 /tmp/ccHyFeWa.o
 .debug_line_str
                0x00000000       0xaa /tmp/ccHyFeWa.o
 .debug_frame   0x00000000       0x50 /tmp/ccHyFeWa.o
 .debug_info    0x00000000      0x234 /tmp/cc7Fmdsq.o
 .debug_abbrev  0x00000000       0xb6 /tmp/cc7Fmdsq.o
 .debug_loclists
                0x00000000      0x129 /tmp/cc7Fmdsq.o
 .debug_aranges
                0x00000000       0x20 /tmp/cc7Fmdsq.o
 .debug_line    0x00000000      0x29a /tmp/cc7Fmdsq.o
 .debug_str     0x00000000      0x149 /tmp/cc7Fmdsq.o
 .debug_line_str
                0x00000000       0x9f /tmp/cc7Fmdsq.o
 .debug_frame   0x00000000       0x70 /tmp/cc7Fmdsq.o
 .debug_info    0x00000000       0x80 /tmp/cc3cNt4T.o
 .debug_abbrev  0x00000000       0x6c /tmp/cc3cNt4T.o
 .debug_loclists
                0x00000000       0x41 /tmp/cc3cNt4T.o
 .debug_aranges
                0x00000000       0x20 /tmp/cc3cNt4T.o
 .debug_line    0x00000000       0xae /tmp/cc3cNt4T.o
 .debug_str     0x00000000       0x6f /tmp/cc3cNt4T.o
 .debug_line_str
                0x00000000       0x34 /tmp/cc3cNt4T.o
 .debug_frame   0x00000000       0x20 /tmp/cc3cNt4T.o
 .debug_info    0x00000000      0x115 /tmp/cceLnpZT.o
 .debug_abbrev  0x00000000       0xd3 /tmp/cceLnpZT.o
 .debug_loclists
                0x00000000       0x7d /tmp/cceLnpZT.o
 .debug_aranges
                0x00000000       0x20 /tmp/cceLnpZT.o
 .debug_line    0x00000000       0xfe /tmp/cceLnpZT.o
 .debug_str     0x00000000      0x10b /tmp/cceLnpZT.o
 .debug_line_str
                0x00000000       0xa3 /tmp/cceLnpZT.o
 .debug_frame   0x00000000       0x20 /tmp/cceLnpZT.o
 .debug_info    0x00000000      0x9b1 /tmp/ccw4clEd.o
 .debug_abbrev  0x00000000      0x26f /tmp/ccw4clEd.o
 .debug_loclists
                0x00000000      0xf10 /tmp/ccw4clEd.o
 .debug_aranges
                0x00000000       0x20 /tmp/ccw4clEd.o
 .debug_rnglists
                0x00000000       0x68 /tmp/ccw4clEd.o
 .debug_line    0x00000000     0x113b /tmp/ccw4clEd.o
 .debug_str     0x00000000      0x1e1 /tmp/ccw4clEd.o
 .debug_line_str
                0x00000000       0xb3 /tmp/ccw4clEd.o
 .debug_frame   0x00000000      0x12c /tmp/ccw4clEd.o
 .debug_info    0x00000000      0x15f /tmp/ccTRD9oq.o
 .debug_abbrev  0x00000000      0x11e /tmp/ccTRD9oq.o
 .debug_loclists
                0x00000000       0x34 /tmp/ccTRD9oq.o
 .debug_aranges
                0x00000000       0x20 /tmp/ccTRD9oq.o
 .debug_rnglists
                0x00000000       0x13 /tmp/ccTRD9oq.o
 .debug_line    0x00000000      0x13a /tmp/ccTRD9oq.o
 .debug_str     0x00000000      0x148 /tmp/ccTRD9oq.o
 .debug_line_str
                0x00000000       0xa5 /tmp/ccTRD9oq.o
 .debug_frame   0x00000000       0x50 /tmp/ccTRD9oq.o
 .debug_info    0x00000000     0x136a /tmp/ccUW8D1M.o
 .debug_abbrev  0x00000000      0x338 /tmp/ccUW8D1M.o
 .debug_loclists
                0x00000000     0x160b /tmp/ccUW8D1M.o
 .debug_aranges
                0x00000000       0x20 /tmp/ccUW8D1M.o
 .debug_rnglists
                0x00000000       0x92 /tmp/ccUW8D1M.o
 .debug_line    0x00000000     0x199d /tmp/ccUW8D1M.o
 .debug_str     0x00000000      0x4a9 /tmp/ccUW8D1M.o
 .debug_line_str
                0x00000000       0xa8 /tmp/ccUW8D1M.o
 .debug_frame   0x00000000      0x240 /tmp/ccUW8D1M.o
 .debug_info    0x00000000      0x52f /tmp/ccvnKTxw.o
 .debug_abbrev  0x00000000      0x229 /tmp/ccvnKTxw.o
 .debug_loclists
                0x00000000      0x345 /tmp/ccvnKTxw.o
 .debug_aranges
                0x00000000       0x20 /tmp/ccvnKTxw.o
 .debug_rnglists
                0x00000000       0x5f /tmp/ccvnKTxw.o
 .debug_line    0x00000000      0x67e /tmp/ccvnKTxw.o
 .debug_str     0x00000000      0x29c /tmp/ccvnKTxw.o
 .debug_line_str
                0x00000000       0xaa /tmp/ccvnKTxw.o
 .debug_frame   0x00000000       0xc8 /tmp/ccvnKTxw.o
 .debug_info    0x00000000      0x3b8 /tmp/cc2sITrz.o
 .debug_abbrev  0x00000000      0x194 /tmp/cc2sITrz.o
 .debug_loclists
                0x00000000      0x119 /tmp/cc2sITrz.o
 .debug_aranges
                0x00000000       0x20 /tmp/cc2sITrz.o
 .debug_line    0x00000000      0x279 /tmp/cc2sITrz.o
 .debug_str     0x00000000      0x242 /tmp/cc2sITrz.o
 .debug_line_str
                0x00000000       0xd7 /tmp/cc2sITrz.o
 .debug_frame   0x00000000       0x90 /tmp/cc2sITrz.o
 .debug_info    0x00000000      0x202 /tmp/cc0TBWUu.o
 .debug_abbrev  0x00000000      0x154 /tmp/cc0TBWUu.o
 .debug_loclists
                0x00000000       0x30 /tmp/cc0TBWUu.o
 .debug_aranges
                0x00000000       0x28 /tmp/cc0TBWUu.o
 .debug_rnglists
                0x00000000       0x19 /tmp/cc0TBWUu.o
 .debug_line    0x00000000      0x100 /tmp/cc0TBWUu.o
 .debug_str     0x00000000      0x17d /tmp/cc0TBWUu.o
 .debug_line_str
                0x00000000       0x8a /tmp/cc0TBWUu.o
 .debug_frame   0x00000000       0x38 /tmp/cc0TBWUu.o
 .debug_info    0x00000000     0x1036 /tmp/ccCUQKCS.o
 .debug_abbrev  0x00000000      0x363 /tmp/ccCUQKCS.o
 .debug_loclists
                0x00000000      0x221 /tmp/ccCUQKCS.o
 .debug_aranges
                0x00000000       0x20 /tmp/ccCUQKCS.o
 .debug_rnglists
                0x00000000       0x2b /tmp/ccCUQKCS.o
 .debug_line    0x00000000      0x3e9 /tmp/ccCUQKCS.o
 .debug_str     0x00000000      0x86a /tmp/ccCUQKCS.o
 .debug_line_str
                0x00000000      0x139 /tmp/ccCUQKCS.o
 .debug_frame   0x00000000       0x78 /tmp/ccCUQKCS.o
 .debug_info    0x00000000      0x897 /tmp/cc59U7HA.o
 .debug_abbrev  0x00000000      0x26e /tmp/cc59U7HA.o
 .debug_loclists
                0x00000000      0x2b0 /tmp/cc59U7HA.o
 .debug_aranges
                0x00000000       0x20 /tmp/cc59U7HA.o
 .debug_rnglists
                0x00000000       0x88 /tmp/cc59U7HA.o
 .debug_line    0x00000000      0x7f1 /tmp/cc59U7HA.o
 .debug_str     0x00000000      0x2cb /tmp/cc59U7HA.o
 .debug_line_str
                0x00000000       0xdb /tmp/cc59U7HA.o
 .debug_frame   0x00000000       0xac /tmp/cc59U7HA.o
 .debug_info    0x00000000     0x2f22 /tmp/cc6l8QMe.o
 .debug_abbrev  0x00000000      0x48c /tmp/cc6l8QMe.o
 .debug_loclists
                0x00000000     0x2083 /tmp/cc6l8QMe.o
 .debug_aranges
                0x00000000       0x20 /tmp/cc6l8QMe.o
 .debug_rnglists
                0x00000000      0x232 /tmp/cc6l8QMe.o
 .debug_line    0x00000000     0x1c05 /tmp/cc6l8QMe.o
 .debug_str     0x00000000      0x737 /tmp/cc6l8QMe.o
 .debug_line_str
                0x00000000       0xd2 /tmp/cc6l8QMe.o
 .debug_frame   0x00000000      0x4e0 /tmp/cc6l8QMe.o
 .debug_info    0x00000000     0x21cf /tmp/ccTmQ7WR.o
 .debug_abbrev  0x00000000      0x42b /tmp/ccTmQ7WR.o
 .debug_loclists
                0x00000000      0xce0 /tmp/ccTmQ7WR.o
 .debug_aranges
                0x00000000       0x20 /tmp/ccTmQ7WR.o
 .debug_rnglists
                0x00000000      0x1f5 /tmp/ccTmQ7WR.o
 .debug_line    0x00000000     0x1bda /tmp/ccTmQ7WR.o
 .debug_str     0x00000000      0x74c /tmp/ccTmQ7WR.o
 .debug_line_str
                0x00000000       0xf2 /tmp/ccTmQ7WR.o
 .debug_frame   0x00000000      0x3b4 /tmp/ccTmQ7WR.o
 .debug_info    0x00000000      0x6e8 /tmp/ccTZ5hr3.o
 .debug_abbrev  0x00000000      0x24f /tmp/ccTZ5hr3.o
 .debug_loclists
                0x00000000      0x355 /tmp/ccTZ5hr3.o
 .debug_aranges
                0x00000000       0x20 /tmp/ccTZ5hr3.o
 .debug_rnglists
                0x00000000       0x1a /tmp/ccTZ5hr3.o
 .debug_line    0x00000000      0x324 /tmp/ccTZ5hr3.o
 .debug_str     0x00000000      0x414 /tmp/ccTZ5hr3.o
 .debug_line_str
                0x00000000      0x103 /tmp/ccTZ5hr3.o
 .debug_frame   0x00000000       0x44 /tmp/ccTZ5hr3.o
 .debug_info    0x00000000     0x22ca /tmp/ccKjROW9.o
 .debug_abbrev  0x00000000      0x555 /tmp/ccKjROW9.o
 .debug_loclists
                0x00000000     0x1714 /tmp/ccKjROW9.o
 .debug_aranges
                0x00000000       0x20 /tmp/ccKjROW9.o
 .debug_rnglists
                0x00000000       0xd7 /tmp/ccKjROW9.o
 .debug_line    0x00000000     0x1aa5 /tmp/ccKjROW9.o
 .debug_str     0x00000000      0x6a2 /tmp/ccKjROW9.o
 .debug_line_str
                0x00000000      0x120 /tmp/ccKjROW9.o
 .debug_frame   0x00000000      0x2cc /tmp/ccKjROW9.o
 .debug_info    0x00000000      0xcfd /tmp/ccpQb0Ok.o
 .debug_abbrev  0x00000000      0x31a /tmp/ccpQb0Ok.o
 .debug_loclists
                0x00000000      0x555 /tmp/ccpQb0Ok.o
 .debug_aranges
                0x00000000       0x20 /tmp/ccpQb0Ok.o
 .debug_rnglists
                0x00000000       0x41 /tmp/ccpQb0Ok.o
 .debug_line    0x00000000      0xa81 /tmp/ccpQb0Ok.o
 .debug_str     0x00000000      0x435 /tmp/ccpQb0Ok.o
 .debug_line_str
                0x00000000      0x119 /tmp/ccpQb0Ok.o
 .debug_frame   0x00000000       0x80 /tmp/ccpQb0Ok.o
 .debug_info    0x00000000      0xc67 /tmp/ccsuGEfo.o
 .debug_abbrev  0x00000000      0x3a7 /tmp/ccsuGEfo.o
 .debug_loclists
                0x00000000      0x7bc /tmp/ccsuGEfo.o
 .debug_aranges
                0x00000000       0x20 /tmp/ccsuGEfo.o
 .debug_rnglists
                0x00000000       0xc2 /tmp/ccsuGEfo.o
 .debug_line    0x00000000      0x942 /tmp/ccsuGEfo.o
 .debug_str     0x00000000      0x4fa /tmp/ccsuGEfo.o
 .debug_line_str
                0x00000000      0x11c /tmp/ccsuGEfo.o
 .debug_frame   0x00000000      0x134 /tmp/ccsuGEfo.o
 .debug_info    0x00000000      0xf0d /tmp/cczhvEKP.o
 .debug_abbrev  0x00000000      0x332 /tmp/cczhvEKP.o
 .debug_loclists
                0x00000000      0x33f /tmp/cczhvEKP.o
 .debug_aranges
                0x00000000       0x20 /tmp/cczhvEKP.o
 .debug_rnglists
                0x00000000       0x1c /tmp/cczhvEKP.o
 .debug_line    0x00000000      0x665 /tmp/cczhvEKP.o
 .debug_str     0x00000000      0x53e /tmp/cczhvEKP.o
 .debug_line_str
                0x00000000      0x15b /tmp/cczhvEKP.o
 .debug_frame   0x00000000      0x170 /tmp/cczhvEKP.o
 .debug_info    0x00000000      0x823 /tmp/ccYQ2s8B.o
 .debug_abbrev  0x00000000      0x248 /tmp/ccYQ2s8B.o
 .debug_aranges
                0x00000000       0x20 /tmp/ccYQ2s8B.o
 .debug_line    0x00000000      0x175 /tmp/ccYQ2s8B.o
 .debug_str     0x00000000      0x40b /tmp/ccYQ2s8B.o
 .debug_line_str
                0x00000000      0x13a /tmp/ccYQ2s8B.o
 .debug_frame   0x00000000       0x30 /tmp/ccYQ2s8B.o
 .debug_info    0x00000000      0x842 /tmp/ccvyvkaj.o
 .debug_abbrev  0x00000000      0x268 /tmp/ccvyvkaj.o
 .debug_loclists
                0x00000000      0x154 /tmp/ccvyvkaj.o
 .debug_aranges
                0x00000000       0x20 /tmp/ccvyvkaj.o
 .debug_line    0x00000000      0x26a /tmp/ccvyvkaj.o
 .debug_str     0x00000000      0x3d6 /tmp/ccvyvkaj.o
 .debug_line_str
                0x00000000       0xf0 /tmp/ccvyvkaj.o
 .debug_frame   0x00000000       0xb4 /tmp/ccvyvkaj.o
 .debug_info    0x00000000      0x775 /tmp/ccZhAQSd.o
 .debug_abbrev  0x00000000      0x219 /tmp/ccZhAQSd.o
 .debug_loclists
                0x00000000       0xb4 /tmp/ccZhAQSd.o
 .debug_aranges
                0x00000000       0x20 /tmp/ccZhAQSd.o
 .debug_line    0x00000000       0x95 /tmp/ccZhAQSd.o
 .debug_str     0x00000000      0x48f /tmp/ccZhAQSd.o
 .debug_line_str
                0x00000000      0x10d /tmp/ccZhAQSd.o
 .debug_frame   0x00000000       0x2c /tmp/ccZhAQSd.o
 .debug_info    0x00000000     0x2d11 /tmp/ccSEqMiV.o
 .debug_abbrev  0x00000000      0x5b7 /tmp/ccSEqMiV.o
 .debug_loclists
                0x00000000     0x1df7 /tmp/ccSEqMiV.o
 .debug_aranges
                0x00000000       0x20 /tmp/ccSEqMiV.o
 .debug_rnglists
                0x00000000      0x2c0 /tmp/ccSEqMiV.o
 .debug_line    0x00000000     0x347d /tmp/ccSEqMiV.o
 .debug_str     0x00000000      0xa65 /tmp/ccSEqMiV.o
 .debug_line_str
                0x00000000      0x118 /tmp/ccSEqMiV.o
 .debug_frame   0x00000000      0x810 /tmp/ccSEqMiV.o
 .debug_info    0x00000000      0x6a7 /tmp/ccq2Qkoh.o
 .debug_abbrev  0x00000000      0x1f7 /tmp/ccq2Qkoh.o
 .debug_loclists
                0x00000000       0xe7 /tmp/ccq2Qkoh.o
 .debug_aranges
                0x00000000       0x20 /tmp/ccq2Qkoh.o
 .debug_line    0x00000000      0x13f /tmp/ccq2Qkoh.o
 .debug_str     0x00000000      0x3bd /tmp/ccq2Qkoh.o
 .debug_line_str
                0x00000000      0x109 /tmp/ccq2Qkoh.o
 .debug_frame   0x00000000       0x58 /tmp/ccq2Qkoh.o
 .debug_info    0x00000000      0x5eb /tmp/ccYuiUsY.o
 .debug_abbrev  0x00000000      0x1dc /tmp/ccYuiUsY.o
 .debug_loclists
                0x00000000       0xe4 /tmp/ccYuiUsY.o
 .debug_aranges
                0x00000000       0x20 /tmp/ccYuiUsY.o
 .debug_rnglists
                0x00000000       0x66 /tmp/ccYuiUsY.o
 .debug_line    0x00000000      0x30e /tmp/ccYuiUsY.o
 .debug_str     0x00000000      0x4dc /tmp/ccYuiUsY.o
 .debug_line_str
                0x00000000       0xf0 /tmp/ccYuiUsY.o
 .debug_frame   0x00000000       0x9c /tmp/ccYuiUsY.o
 .debug_info    0x00000000      0x3ef /tmp/ccLp3uly.o
 .debug_abbrev  0x00000000      0x161 /tmp/ccLp3uly.o
 .debug_loclists
                0x00000000      0x469 /tmp/ccLp3uly.o
 .debug_aranges
                0x00000000       0x20 /tmp/ccLp3uly.o
 .debug_rnglists
                0x00000000       0x16 /tmp/ccLp3uly.o
 .debug_line    0x00000000      0x5d8 /tmp/ccLp3uly.o
 .debug_str     0x00000000      0x16b /tmp/ccLp3uly.o
 .debug_line_str
                0x00000000       0xd3 /tmp/ccLp3uly.o
 .debug_frame   0x00000000       0x40 /tmp/ccLp3uly.o
 .debug_info    0x00000000       0x71 /tmp/ccfQVS3H.o
 .debug_abbrev  0x00000000       0x2c /tmp/ccfQVS3H.o
 .debug_aranges
                0x00000000       0x18 /tmp/ccfQVS3H.o
 .debug_line    0x00000000       0x44 /tmp/ccfQVS3H.o
 .debug_str     0x00000000       0xe2 /tmp/ccfQVS3H.o
 .debug_line_str
                0x00000000       0x4a /tmp/ccfQVS3H.o
 .debug_info    0x00000000      0x94c /tmp/ccSklbfw.o
 .debug_abbrev  0x00000000      0x247 /tmp/ccSklbfw.o
 .debug_loclists
                0x00000000      0x374 /tmp/ccSklbfw.o
 .debug_aranges
                0x00000000       0x20 /tmp/ccSklbfw.o
 .debug_line    0x00000000      0x3fb /tmp/ccSklbfw.o
 .debug_str     0x00000000      0x443 /tmp/ccSklbfw.o
 .debug_line_str
                0x00000000      0x134 /tmp/ccSklbfw.o
 .debug_frame   0x00000000       0xd8 /tmp/ccSklbfw.o
 .debug_info    0x00000000     0x553a /tmp/ccKqA1pY.o
 .debug_abbrev  0x00000000      0x470 /tmp/ccKqA1pY.o
 .debug_loclists
                0x00000000     0x55b7 /tmp/ccKqA1pY.o
 .debug_aranges
                0x00000000       0x20 /tmp/ccKqA1pY.o
 .debug_rnglists
                0x00000000      0x30d /tmp/ccKqA1pY.o
 .debug_line    0x00000000     0x8fae /tmp/ccKqA1pY.o
 .debug_str     0x00000000      0x8fb /tmp/ccKqA1pY.o
 .debug_line_str
                0x00000000      0x10f /tmp/ccKqA1pY.o
 .debug_frame   0x00000000      0xa18 /tmp/ccKqA1pY.o
 .debug_info    0x00000000      0x5c8 /tmp/cc0TjJIe.o
 .debug_abbrev  0x00000000      0x219 /tmp/cc0TjJIe.o
 .debug_loclists
                0x00000000       0x3c /tmp/cc0TjJIe.o
 .debug_aranges
                0x00000000       0x20 /tmp/cc0TjJIe.o
 .debug_rnglists
                0x00000000       0x16 /tmp/cc0TjJIe.o
 .debug_line    0x00000000      0x1b8 /tmp/cc0TjJIe.o
 .debug_str     0x00000000      0x3ba /tmp/cc0TjJIe.o
 .debug_line_str
                0x00000000      0x106 /tmp/cc0TjJIe.o
 .debug_frame   0x00000000       0x4c /tmp/cc0TjJIe.o
 .debug_info    0x00000000      0x563 /tmp/ccfXqD4Z.o
 .debug_abbrev  0x00000000      0x22a /tmp/ccfXqD4Z.o
 .debug_loclists
                0x00000000      0x169 /tmp/ccfXqD4Z.o
 .debug_aranges
                0x00000000       0x20 /tmp/ccfXqD4Z.o
 .debug_rnglists
                0x00000000       0x2d /tmp/ccfXqD4Z.o
 .debug_line    0x00000000      0x580 /tmp/ccfXqD4Z.o
 .debug_str     0x00000000      0x235 /tmp/ccfXqD4Z.o
 .debug_line_str
                0x00000000      0x11a /tmp/ccfXqD4Z.o
 .debug_frame   0x00000000       0xd4 /tmp/ccfXqD4Z.o
 .debug_info    0x00000000      0x2a7 /tmp/ccuJfbpi.o
 .debug_abbrev  0x00000000      0x125 /tmp/ccuJfbpi.o
 .debug_loclists
                0x00000000       0xd6 /tmp/ccuJfbpi.o
 .debug_aranges
                0x00000000       0x20 /tmp/ccuJfbpi.o
 .debug_line    0x00000000       0xcf /tmp/ccuJfbpi.o
 .debug_str     0x00000000      0x17e /tmp/ccuJfbpi.o
 .debug_line_str
                0x00000000      0x10b /tmp/ccuJfbpi.o
 .debug_frame   0x00000000       0x40 /tmp/ccuJfbpi.o
 .debug_info    0x00000000      0x27d /tmp/ccp6rogz.o
 .debug_abbrev  0x00000000      0x150 /tmp/ccp6rogz.o
 .debug_loclists
                0x00000000       0x94 /tmp/ccp6rogz.o
 .debug_aranges
                0x00000000       0x20 /tmp/ccp6rogz.o
 .debug_line    0x00000000      0x13a /tmp/ccp6rogz.o
 .debug_str     0x00000000      0x1d0 /tmp/ccp6rogz.o
 .debug_line_str
                0x00000000       0xdd /tmp/ccp6rogz.o
 .debug_frame   0x00000000       0x54 /tmp/ccp6rogz.o
 .debug_info    0x00000000     0x1519 /tmp/cc9Mjn7u.o
 .debug_abbrev  0x00000000      0x4e5 /tmp/cc9Mjn7u.o
 .debug_loclists
                0x00000000      0x5f7 /tmp/cc9Mjn7u.o
 .debug_aranges
                0x00000000       0x20 /tmp/cc9Mjn7u.o
 .debug_rnglists
                0x00000000      0x175 /tmp/cc9Mjn7u.o
 .debug_line    0x00000000      0xf97 /tmp/cc9Mjn7u.o
 .debug_str     0x00000000      0x84b /tmp/cc9Mjn7u.o
 .debug_line_str
                0x00000000      0x161 /tmp/cc9Mjn7u.o
 .debug_frame   0x00000000      0x124 /tmp/cc9Mjn7u.o
 .debug_info    0x00000000      0x90c /tmp/ccaQEL3l.o
 .debug_abbrev  0x00000000      0x256 /tmp/ccaQEL3l.o
 .debug_loclists
                0x00000000      0x3f9 /tmp/ccaQEL3l.o
 .debug_aranges
                0x00000000       0x20 /tmp/ccaQEL3l.o
 .debug_rnglists
                0x00000000       0xeb /tmp/ccaQEL3l.o
 .debug_line    0x00000000      0x68b /tmp/ccaQEL3l.o
 .debug_str     0x00000000      0x2ac /tmp/ccaQEL3l.o
 .debug_line_str
                0x00000000      0x11e /tmp/ccaQEL3l.o
 .debug_frame   0x00000000       0x64 /tmp/ccaQEL3l.o

Memory Configuration

Name             Origin             Length             Attributes
FLASH            0x00000000         0x01000000         axrl!w
RAM              0x30000000         0x00020000         axw!rl
*default*        0x00000000         0xffffffff

Linker script and memory map


.text           0x00000000    0x24fbc
                0x00000000                        . = ALIGN (0x4)
 *(.text)
 .text          0x00000000       0xd8 /tmp/ccdLbKEt.o
 .text          0x000000d8       0x24 /tmp/ccl1h2wu.o
                0x000000d8                __muldi3
 .text          0x000000fc       0xb4 /tmp/ccFoJeuJ.o
                0x000000fc                __divsi3
                0x00000104                __udivsi3
                0x0000014c                __umodsi3
                0x00000180                __modsi3
 .text          0x000001b0      0x1ec /tmp/ccfGU1IX.o
                0x000001b0                memcpy
                0x000001d4                memset
                0x000001f0                strlen
                0x00000210                memcmp
                0x00000240                strchr
                0x0000025c                strcmp
                0x00000288                strncpy
                0x000002e8                strcpy
                0x00000304                strncmp
                0x0000033c                memmove
 .text          0x0000039c      0x14c /tmp/ccxwSY1j.o
                0x0000039c                hal_hp_uart_init
                0x000003d4                hal_hp_uart_config
                0x0000042c                hal_hp_uart_send
                0x0000044c                hal_hp_uart_putstr
                0x00000480                hal_hp_uart_recv
                0x000004a4                hal_hp_uart_recv_str
 .text          0x000004e8       0xa0 /tmp/ccHyFeWa.o
                0x000004e8                pwm_hal_init
                0x00000508                pwm_hal_set_compare
                0x0000055c                pwm_hal_enable
                0x00000574                pwm_hal_disable
 .text          0x00000588      0x108 /tmp/cc7Fmdsq.o
                0x00000588                hal_delay_us
                0x00000608                hal_delay_ms
                0x00000614                delay_ms
                0x00000620                hal_delay_s
                0x0000062c                hal_sys_tick_init
                0x00000668                hal_get_sys_tick
 .text          0x00000690       0x28 /tmp/cc3cNt4T.o
                0x00000690                __mulsi3
 .text          0x000006b8       0x48 /tmp/cceLnpZT.o
                0x000006b8                __lshrdi3
 .text          0x00000700      0x8ec /tmp/ccw4clEd.o
                0x00000908                vprintf
                0x00000b58                vsnprintf
                0x00000f7c                snprintf
                0x00000fb0                printf
 .text          0x00000fec       0x58 /tmp/ccTRD9oq.o
                0x00000fec                hal_sys_uart_init
                0x00000ffc                hal_sys_putchar
                0x00001008                hal_sys_putstr
                0x00001028                hal_sys_getchar
 .text          0x00001044      0xba8 /tmp/ccUW8D1M.o
                0x00001094                hal_qspi_init
                0x000010c8                hal_qspi_deinit
                0x000010e4                hal_qspi_write_8
                0x00001128                hal_qspi_write_8_cs
                0x00001184                hal_qspi_write_16
                0x000011c0                hal_qspi_write_16_cs
                0x0000121c                hal_qspi_write_32
                0x00001254                hal_qspi_write_32_cs
                0x000012ac                hal_qspi_write_32x2
                0x000012e8                hal_qspi_write_32x2_cs
                0x00001344                hal_qspi_write_32x8
                0x0000139c                hal_qspi_write_32x8_cs
                0x00001414                hal_qspi_write_32x16
                0x000014ac                hal_qspi_write_32x16_cs
                0x00001564                hal_qspi_write_32x32
                0x00001680                hal_qspi_write_32x32_cs
                0x000017bc                hal_qspi_send_cmd
                0x0000182c                hal_qspi_write
                0x000019dc                hal_qspi_read
 .text          0x00001bec      0x2dc /tmp/ccvnKTxw.o
                0x00001c48                hal_i2c_init
                0x00001c74                hal_i2c_deinit
                0x00001c8c                hal_i2c_write_nbyte
                0x00001d94                hal_i2c_read_nbyte
 .text          0x00001ec8      0x128 /tmp/cc2sITrz.o
                0x00001ec8                gpio_hal_input_enable
                0x00001ee4                gpio_hal_output_enable
                0x00001f04                gpio_hal_set_level
                0x00001f34                gpio_hal_get_level
                0x00001f70                gpio_hal_read_update
                0x00001f8c                gpio_hal_write_update
                0x00001fb8                gpio_hal_set_fcfg
                0x00001fd4                gpio_hal_set_mux
 .text          0x00001ff0       0x10 /tmp/cc0TBWUu.o
                0x00001ff0                easy_print
 .text          0x00002000      0x2c4 /tmp/ccCUQKCS.o
                0x00002164                fccCmd
 .text          0x000022c4      0x4a0 /tmp/cc59U7HA.o
                0x00002360                lexer_next
                0x00002750                lexer_init
 .text          0x00002764      0xc68 /tmp/cc6l8QMe.o
                0x00002798                cg_add
                0x000027b4                cg_sub
                0x000027d8                cg_mul
                0x000027fc                cg_div
                0x00002820                cg_rem
                0x00002844                codegen_init
                0x0000285c                cg_addi
                0x00002878                cg_lw
                0x0000289c                cg_sw
                0x000028d0                cg_lui
                0x000028e4                cg_jalr
                0x00002900                cg_jal
                0x00002944                cg_beq
                0x00002980                cg_bne
                0x000029c4                cg_blt
                0x00002a08                cg_bge
                0x00002a4c                cg_li
                0x00002ad4                cg_prologue
                0x00002b2c                cg_prologue_params
                0x00002bb4                cg_epilogue
                0x00002c0c                cg_store_local
                0x00002c1c                cg_load_local
                0x00002c28                cg_store_global
                0x00002c50                cg_load_global
                0x00002c84                cg_push_imm
                0x00002cb8                cg_pop
                0x00002d34                cg_add_op
                0x00002d40                cg_sub_op
                0x00002d4c                cg_mul_op
                0x00002d58                cg_div_op
                0x00002d64                cg_rem_op
                0x00002d70                cg_neg_op
                0x00002dac                cg_slt
                0x00002dd0                cg_sltiu
                0x00002df4                cg_xori
                0x00002e18                cg_lt_op
                0x00002e5c                cg_ge_op
                0x00002eac                cg_eq_op
                0x00002efc                cg_ne_op
                0x00002f4c                cg_gt_op
                0x00002f90                cg_le_op
                0x00002fe0                cg_reset_labels
                0x00002ff4                cg_get_label_pos
                0x0000302c                cg_label
                0x00003070                cg_emit_beqz
                0x000030e0                cg_not_op
                0x0000311c                cg_and_begin
                0x0000313c                cg_or_begin
                0x00003140                cg_emit_j
                0x000031b0                cg_emit_call
                0x00003220                cg_emit_call_back
                0x00003260                cg_call_indirect
                0x00003270                cg_patch
                0x0000334c                cg_emit_jback
                0x0000338c                cg_emit_beqz_back
 .text          0x000033cc     0x1340 /tmp/ccTmQ7WR.o
                0x000041bc                fcc_compile
 .text          0x0000470c      0x128 /tmp/ccTZ5hr3.o
                0x000047cc                sfud_spi_port_init
 .text          0x00004834     0x12f4 /tmp/ccKjROW9.o
                0x00004858                sfud_get_device
                0x00004870                sfud_get_device_num
                0x00004878                sfud_get_device_table
                0x00004884                sfud_read_status
                0x000049b0                sfud_read
                0x00004c28                sfud_chip_erase
                0x00004d8c                sfud_erase
                0x000051f8                sfud_write
                0x000054a0                sfud_erase_write
                0x000054f4                sfud_write_status
                0x000055ec                sfud_device_init
                0x00005ac4                sfud_init
 .text          0x00005b28      0x760 /tmp/ccpQb0Ok.o
                0x00005c20                sfud_read_sfdp
                0x00006204                sfud_sfdp_get_suitable_eraser
 .text          0x00006288      0x594 /tmp/ccsuGEfo.o
                0x000062fc                shellExtParsePara
                0x000065b0                shellExtRun
 .text          0x0000681c      0x594 /tmp/cczhvEKP.o
                0x0000681c                exec_func
                0x000068d4                set_fnode
                0x000068e0                create_shell_env_varible
                0x00006940                shellRead
                0x0000699c                shellWrite
                0x000069f0                getcwd
                0x00006aa8                chdir
                0x00006b5c                listdir
                0x00006ccc                createfile
 .text          0x00006db0       0xf0 /tmp/ccYQ2s8B.o
                0x00006db0                load_shell
 .text          0x00006ea0      0x184 /tmp/ccvyvkaj.o
                0x00006ea0                shellCD
                0x00006f48                shellLS
                0x00006fac                shellTOUCH
                0x00007008                shellFsInit
 .text          0x00007024       0x20 /tmp/ccZhAQSd.o
                0x00007024                agencyshellRun
 .text          0x00007044     0x200c /tmp/ccSEqMiV.o
                0x000070a0                shellRemove
                0x000070dc                shellGetCurrent
                0x0000710c                shellWriteString
                0x000071e8                shellPrint
                0x0000725c                shellCheckPermission
                0x000072c4                shellToHex
                0x00007384                shellToDec
                0x000074d8                shellListItem
                0x00007698                shellListCommand
                0x00007734                shellListVar
                0x000077d4                shellListUser
                0x00007874                shellListKey
                0x00007920                shellListAll
                0x00007924                shellDeleteCommandLine
                0x00007978                shellClearCommandLine
                0x000079d4                shellInsertByte
                0x00007b84                shellDeleteByte
                0x00007cd4                shellSplit
                0x00007e04                shellSeekCommand
                0x00007f10                shellGetVarValue
                0x000080b4                shellSetVarValue
                0x00008194                shellSetVar
                0x00008250                shellSetUser
                0x00008304                shellInit
                0x000083e4                shellRunCommand
                0x00008530                shellNormalInput
                0x00008540                shellExec
                0x000086ec                shellUp
                0x000087a8                shellDown
                0x00008848                shellRight
                0x00008874                shellLeft
                0x000088b8                shellTab
                0x00008b1c                shellBackspace
                0x00008b24                shellDelete
                0x00008b2c                shellEnter
                0x00008b4c                shellHelp
                0x00008c38                shellHandler
                0x00008df8                shellTask
                0x00008e3c                shellUsers
                0x00008e64                shellCmds
                0x00008e8c                shellVars
                0x00008eb4                shellKeys
                0x00008edc                shellClear
                0x00008f0c                shellRun
                0x00008fb0                shellExecute
 .text          0x00009050       0x84 /tmp/ccq2Qkoh.o
                0x00009050                shellCompanionAdd
                0x0000908c                shellCompanionDel
                0x000090bc                shellCompanionGet
 .text          0x000090d4      0x184 /tmp/ccYuiUsY.o
                0x000090d4                MYSPI_Init
                0x00009138                MYSPI_Start
                0x0000915c                MYSPI_Stop
                0x00009180                MYSPI_SwapByte
 .text          0x00009258      0x270 /tmp/ccLp3uly.o
                0x00009258                ff_uni2oem
                0x00009340                ff_oem2uni
                0x000093d8                ff_wtoupper
 .text          0x000094c8        0x0 /tmp/ccfQVS3H.o
 .text          0x000094c8      0x2bc /tmp/ccSklbfw.o
                0x000094c8                disk_status
                0x00009550                disk_initialize
                0x000095dc                disk_read
                0x00009688                disk_write
                0x00009734                disk_ioctl
 .text          0x00009784     0x4aec /tmp/ccKqA1pY.o
                0x0000ba18                f_mount
                0x0000baa8                f_open
                0x0000bd8c                f_read
                0x0000bfd8                f_write
                0x0000c354                f_sync
                0x0000c458                f_close
                0x0000c49c                f_chdrive
                0x0000c4d8                f_chdir
                0x0000c578                f_getcwd
                0x0000c798                f_lseek
                0x0000c9d0                f_opendir
                0x0000ca84                f_closedir
                0x0000cab4                f_readdir
                0x0000cb5c                f_stat
                0x0000cbe0                f_getfree
                0x0000cd88                f_truncate
                0x0000ceb0                f_unlink
                0x0000cfb0                f_mkdir
                0x0000d198                f_rename
                0x0000d320                f_mkfs
                0x0000dce0                f_gets
                0x0000dd8c                f_putc
                0x0000dde0                f_puts
                0x0000de40                f_printf
 .text          0x0000e270      0x160 /tmp/cc0TjJIe.o
                0x0000e270                load_filesystem
 .text          0x0000e3d0      0x3d0 /tmp/ccfXqD4Z.o
                0x0000e3d0                create_task
                0x0000e484                delete_task
                0x0000e500                suspend_task
                0x0000e548                resume_task
                0x0000e630                task_scheduler
 .text          0x0000e7a0       0x28 /tmp/ccuJfbpi.o
                0x0000e7a0                ctx_init
                0x0000e7b0                enter_load_from_ctx
                0x0000e7c0                exit_save_to_ctx
 .text          0x0000e7c8       0xb8 /tmp/ccp6rogz.o
                0x0000e7c8                log_init
                0x0000e7d4                log_close
                0x0000e7d8                log_print
 .text          0x0000e880      0x9a0 /tmp/cc9Mjn7u.o
                0x0000e968                editor_line_length
                0x0000e9d0                editor_build_line_offsets
                0x0000eb58                editor_construct_path
                0x0000ec28                editCmd
 .text          0x0000f220      0x388 /tmp/ccaQEL3l.o
                0x0000f220                editor_render
 *(.text*)
 .text.startup  0x0000f5a8       0x48 /tmp/cc0TBWUu.o
                0x0000f5a8                main
 *(.rodata)
 .rodata        0x0000f5f0       0xb0 /tmp/ccw4clEd.o
 .rodata        0x0000f6a0        0xc /tmp/cc0TBWUu.o
 .rodata        0x0000f6ac       0x59 /tmp/cc59U7HA.o
 *fill*         0x0000f705        0x3 
 .rodata        0x0000f708       0x34 /tmp/ccTmQ7WR.o
 .rodata        0x0000f73c      0x310 /tmp/ccKjROW9.o
 .rodata        0x0000fa4c       0x3e /tmp/ccpQb0Ok.o
 *fill*         0x0000fa8a        0x2 
 .rodata        0x0000fa8c       0x20 /tmp/ccsuGEfo.o
 .rodata        0x0000faac       0xf0 /tmp/cczhvEKP.o
 .rodata        0x0000fb9c      0x240 /tmp/ccZhAQSd.o
                0x0000fb9c                shellCommandList
 .rodata        0x0000fddc       0x30 /tmp/ccSEqMiV.o
 .rodata        0x0000fe0c    0x1318e /tmp/ccLp3uly.o
 *fill*         0x00022f9a        0x2 
 .rodata        0x00022f9c       0x14 /tmp/ccSklbfw.o
 .rodata        0x00022fb0       0x3e /tmp/ccKqA1pY.o
 *fill*         0x00022fee        0x2 
 .rodata        0x00022ff0       0x10 /tmp/cc0TjJIe.o
 .rodata        0x00023000       0x28 /tmp/ccp6rogz.o
 .rodata        0x00023028       0x10 /tmp/cc9Mjn7u.o
 *(.rodata*)
 .rodata.str1.4
                0x00023038     0x1f77 /tmp/ccw4clEd.o
                                 0x2f (size before relaxing)
 .rodata.str1.4
                0x00024faf        0x0 /tmp/cc2sITrz.o
                                 0x6a (size before relaxing)
 .rodata.str1.4
                0x00024faf        0x0 /tmp/cc0TBWUu.o
                                 0x39 (size before relaxing)
 .rodata.str1.4
                0x00024faf        0x0 /tmp/ccCUQKCS.o
                                0x110 (size before relaxing)
 .rodata.str1.4
                0x00024faf        0x0 /tmp/cc59U7HA.o
                                 0x1e (size before relaxing)
 .rodata.str1.4
                0x00024faf        0x0 /tmp/ccTmQ7WR.o
                                0x262 (size before relaxing)
 .rodata.str1.4
                0x00024faf        0x0 /tmp/ccKjROW9.o
                                0x5dd (size before relaxing)
 .rodata.str1.4
                0x00024faf        0x0 /tmp/ccpQb0Ok.o
                                0x726 (size before relaxing)
 .rodata.str1.4
                0x00024faf        0x0 /tmp/ccsuGEfo.o
                                 0x54 (size before relaxing)
 .rodata.str1.4
                0x00024faf        0x0 /tmp/ccYQ2s8B.o
                                 0x6b (size before relaxing)
 .rodata.str1.4
                0x00024faf        0x0 /tmp/ccvyvkaj.o
                                 0x1e (size before relaxing)
 .rodata.str1.4
                0x00024faf        0x0 /tmp/ccZhAQSd.o
                                0x273 (size before relaxing)
 .rodata.str1.4
                0x00024faf        0x0 /tmp/ccSEqMiV.o
                                0x5b6 (size before relaxing)
 .rodata.str1.4
                0x00024faf        0x0 /tmp/ccSklbfw.o
                                0x11e (size before relaxing)
 .rodata.str1.4
                0x00024faf        0x0 /tmp/ccKqA1pY.o
                                 0x88 (size before relaxing)
 .rodata.str1.4
                0x00024faf        0x0 /tmp/cc0TjJIe.o
                                0x11c (size before relaxing)
 .rodata.str1.4
                0x00024faf        0x0 /tmp/ccfXqD4Z.o
                                 0x7c (size before relaxing)
 .rodata.str1.4
                0x00024faf        0x0 /tmp/ccp6rogz.o
                                 0x6e (size before relaxing)
 .rodata.str1.4
                0x00024faf        0x0 /tmp/cc9Mjn7u.o
                                 0xca (size before relaxing)
 .rodata.str1.4
                0x00024faf        0x0 /tmp/ccaQEL3l.o
                                0x10b (size before relaxing)
 *(.srodata)
 *fill*         0x00024faf        0x1 
 .srodata       0x00024fb0        0x7 /tmp/ccsuGEfo.o
 *fill*         0x00024fb7        0x1 
 .srodata       0x00024fb8        0x2 /tmp/ccZhAQSd.o
                0x00024fb8                shellCommandCount
 *(.srodata*)
                0x00024fbc                        . = ALIGN (0x4)
 *fill*         0x00024fba        0x2 
                0x00024fbc                        _etext = .
                0x00024fbc                        _sidata = _etext

.rela.dyn       0x00024fbc        0x0
 .rela.text     0x00024fbc        0x0 /tmp/ccdLbKEt.o

.data           0x30000000       0x7c load address 0x00024fbc
                0x30000000                        . = ALIGN (0x4)
                0x30000000                        _sdata = .
                0x30000000                        _ram_start = .
                0x30000000                        . = ALIGN (0x4)
 *(.data)
 .data          0x30000000        0x0 /tmp/ccdLbKEt.o
 .data          0x30000000        0x0 /tmp/ccl1h2wu.o
 .data          0x30000000        0x0 /tmp/ccFoJeuJ.o
 .data          0x30000000        0x0 /tmp/ccfGU1IX.o
 .data          0x30000000        0x0 /tmp/ccxwSY1j.o
 .data          0x30000000        0x0 /tmp/ccHyFeWa.o
 .data          0x30000000        0x0 /tmp/cc7Fmdsq.o
 .data          0x30000000        0x0 /tmp/cc3cNt4T.o
 .data          0x30000000        0x0 /tmp/cceLnpZT.o
 .data          0x30000000        0x0 /tmp/ccw4clEd.o
 .data          0x30000000        0x0 /tmp/ccTRD9oq.o
 .data          0x30000000        0x0 /tmp/ccUW8D1M.o
 .data          0x30000000        0x0 /tmp/ccvnKTxw.o
 .data          0x30000000        0x0 /tmp/cc2sITrz.o
 .data          0x30000000        0x0 /tmp/cc0TBWUu.o
 .data          0x30000000        0x0 /tmp/ccCUQKCS.o
 .data          0x30000000        0x0 /tmp/cc59U7HA.o
 .data          0x30000000        0x0 /tmp/cc6l8QMe.o
 .data          0x30000000        0x0 /tmp/ccTmQ7WR.o
 .data          0x30000000        0x0 /tmp/ccTZ5hr3.o
 .data          0x30000000       0x74 /tmp/ccKjROW9.o
 .data          0x30000074        0x0 /tmp/ccpQb0Ok.o
 .data          0x30000074        0x0 /tmp/ccsuGEfo.o
 .data          0x30000074        0x0 /tmp/cczhvEKP.o
 .data          0x30000074        0x0 /tmp/ccYQ2s8B.o
 .data          0x30000074        0x0 /tmp/ccvyvkaj.o
 .data          0x30000074        0x0 /tmp/ccZhAQSd.o
 .data          0x30000074        0x0 /tmp/ccSEqMiV.o
 .data          0x30000074        0x0 /tmp/ccq2Qkoh.o
 .data          0x30000074        0x0 /tmp/ccYuiUsY.o
 .data          0x30000074        0x0 /tmp/ccLp3uly.o
 .data          0x30000074        0x0 /tmp/ccfQVS3H.o
 .data          0x30000074        0x0 /tmp/ccSklbfw.o
 .data          0x30000074        0x0 /tmp/ccKqA1pY.o
 .data          0x30000074        0x0 /tmp/cc0TjJIe.o
 .data          0x30000074        0x0 /tmp/ccfXqD4Z.o
 .data          0x30000074        0x0 /tmp/ccuJfbpi.o
 .data          0x30000074        0x0 /tmp/ccp6rogz.o
 .data          0x30000074        0x0 /tmp/cc9Mjn7u.o
 .data          0x30000074        0x0 /tmp/ccaQEL3l.o
 *(.data*)
 *(.sdata)
 .sdata         0x30000074        0x2 /tmp/ccSEqMiV.o
                0x30000074                pairedChars
 *fill*         0x30000076        0x2 
 .sdata         0x30000078        0x4 /tmp/ccp6rogz.o
 *(.sdata*)
                0x3000007c                        . = ALIGN (0x4)
                0x3000007c                        _edata = .

.bss            0x3000007c    0x1e1e0 load address 0x00025038
                0x3000007c                        . = ALIGN (0x4)
                0x3000007c                        _sbss = .
 *(.bss)
 .bss           0x3000007c        0x0 /tmp/ccdLbKEt.o
 .bss           0x3000007c        0x0 /tmp/ccl1h2wu.o
 .bss           0x3000007c        0x0 /tmp/ccFoJeuJ.o
 .bss           0x3000007c        0x0 /tmp/ccfGU1IX.o
 .bss           0x3000007c        0x0 /tmp/ccxwSY1j.o
 .bss           0x3000007c        0x0 /tmp/ccHyFeWa.o
 .bss           0x3000007c        0x0 /tmp/cc7Fmdsq.o
 .bss           0x3000007c        0x0 /tmp/cc3cNt4T.o
 .bss           0x3000007c        0x0 /tmp/cceLnpZT.o
 .bss           0x3000007c        0x0 /tmp/ccw4clEd.o
 .bss           0x3000007c        0x0 /tmp/ccTRD9oq.o
 .bss           0x3000007c        0x0 /tmp/ccUW8D1M.o
 .bss           0x3000007c        0x0 /tmp/ccvnKTxw.o
 .bss           0x3000007c        0x0 /tmp/cc2sITrz.o
 .bss           0x3000007c        0x0 /tmp/cc0TBWUu.o
 .bss           0x3000007c     0xebc0 /tmp/ccCUQKCS.o
 .bss           0x3000ec3c        0x0 /tmp/cc59U7HA.o
 .bss           0x3000ec3c      0x300 /tmp/cc6l8QMe.o
 .bss           0x3000ef3c        0x0 /tmp/ccTmQ7WR.o
 .bss           0x3000ef3c        0x0 /tmp/ccTZ5hr3.o
 .bss           0x3000ef3c      0x105 /tmp/ccKjROW9.o
 .bss           0x3000f041        0x0 /tmp/ccpQb0Ok.o
 .bss           0x3000f041        0x0 /tmp/ccsuGEfo.o
 *fill*         0x3000f041        0x3 
 .bss           0x3000f044       0x80 /tmp/cczhvEKP.o
                0x3000f044                envString
 .bss           0x3000f0c4        0x0 /tmp/ccYQ2s8B.o
 .bss           0x3000f0c4        0x0 /tmp/ccvyvkaj.o
 .bss           0x3000f0c4        0x0 /tmp/ccZhAQSd.o
 .bss           0x3000f0c4       0x1d /tmp/ccSEqMiV.o
 *fill*         0x3000f0e1        0x3 
 .bss           0x3000f0e4       0x18 /tmp/ccq2Qkoh.o
                0x3000f0e4                shellfs
 .bss           0x3000f0fc        0x0 /tmp/ccYuiUsY.o
 .bss           0x3000f0fc        0x0 /tmp/ccLp3uly.o
 .bss           0x3000f0fc        0x0 /tmp/ccfQVS3H.o
 .bss           0x3000f0fc        0x0 /tmp/ccSklbfw.o
 .bss           0x3000f0fc      0x200 /tmp/ccKqA1pY.o
 .bss           0x3000f2fc     0x2038 /tmp/cc0TjJIe.o
                0x3000f2fc                work_buf
                0x300102fc                fs_Flash
 .bss           0x30011334      0xbc8 /tmp/ccfXqD4Z.o
 .bss           0x30011efc        0x0 /tmp/ccuJfbpi.o
 .bss           0x30011efc        0x0 /tmp/ccp6rogz.o
 .bss           0x30011efc     0xc320 /tmp/cc9Mjn7u.o
 .bss           0x3001e21c        0x0 /tmp/ccaQEL3l.o
 *(.bss*)
 *(.sbss)
 .sbss          0x3001e21c        0xc /tmp/cc2sITrz.o
 .sbss          0x3001e228        0xc /tmp/cc6l8QMe.o
 .sbss          0x3001e234       0x10 /tmp/cczhvEKP.o
                0x3001e234                fnode
                0x3001e238                envFunc
                0x3001e23c                envChar
                0x3001e23e                envShort
                0x3001e240                envInt
 .sbss          0x3001e244        0x4 /tmp/ccSklbfw.o
 .sbss          0x3001e248        0x8 /tmp/ccKqA1pY.o
 .sbss          0x3001e250        0x4 /tmp/cc0TjJIe.o
                0x3001e250                res_Flash
 .sbss          0x3001e254        0x8 /tmp/ccfXqD4Z.o
 *(.sbss*)
 *(COMMON)
                0x3001e25c                        . = ALIGN (0x4)
                0x3001e25c                        _ebss = .

.heap           0x3001e25c        0x0
                0x3001e25c                        . = ALIGN (0x4)
                0x3001e25c                        _heap_start = .

.stack_dummy    0x30020000        0x0
                0x30020000                        PROVIDE (_stack_point = .)
LOAD /tmp/ccdLbKEt.o
LOAD /tmp/ccl1h2wu.o
LOAD /tmp/ccFoJeuJ.o
LOAD /tmp/ccfGU1IX.o
LOAD /tmp/ccxwSY1j.o
LOAD /tmp/ccHyFeWa.o
LOAD /tmp/cc7Fmdsq.o
LOAD /tmp/cc3cNt4T.o
LOAD /tmp/cceLnpZT.o
LOAD /tmp/ccw4clEd.o
LOAD /tmp/ccTRD9oq.o
LOAD /tmp/ccUW8D1M.o
LOAD /tmp/ccvnKTxw.o
LOAD /tmp/cc2sITrz.o
LOAD /tmp/cc0TBWUu.o
LOAD /tmp/ccCUQKCS.o
LOAD /tmp/cc59U7HA.o
LOAD /tmp/cc6l8QMe.o
LOAD /tmp/ccTmQ7WR.o
LOAD /tmp/ccTZ5hr3.o
LOAD /tmp/ccKjROW9.o
LOAD /tmp/ccpQb0Ok.o
LOAD /tmp/ccsuGEfo.o
LOAD /tmp/cczhvEKP.o
LOAD /tmp/ccYQ2s8B.o
LOAD /tmp/ccvyvkaj.o
LOAD /tmp/ccZhAQSd.o
LOAD /tmp/ccSEqMiV.o
LOAD /tmp/ccq2Qkoh.o
LOAD /tmp/ccYuiUsY.o
LOAD /tmp/ccLp3uly.o
LOAD /tmp/ccfQVS3H.o
LOAD /tmp/ccSklbfw.o
LOAD /tmp/ccKqA1pY.o
LOAD /tmp/cc0TjJIe.o
LOAD /tmp/ccfXqD4Z.o
LOAD /tmp/ccuJfbpi.o
LOAD /tmp/ccp6rogz.o
LOAD /tmp/cc9Mjn7u.o
LOAD /tmp/ccaQEL3l.o
OUTPUT(build/retrosoc_fw elf32-littleriscv)

.riscv.attributes
                0x00000000       0x2a
 .riscv.attributes
                0x00000000       0x28 /tmp/ccdLbKEt.o
 .riscv.attributes
                0x00000028       0x28 /tmp/ccl1h2wu.o
 .riscv.attributes
                0x00000050       0x28 /tmp/ccFoJeuJ.o
 .riscv.attributes
                0x00000078       0x2a /tmp/ccfGU1IX.o
 .riscv.attributes
                0x000000a2       0x2a /tmp/ccxwSY1j.o
 .riscv.attributes
                0x000000cc       0x2a /tmp/ccHyFeWa.o
 .riscv.attributes
                0x000000f6       0x2a /tmp/cc7Fmdsq.o
 .riscv.attributes
                0x00000120       0x2a /tmp/cc3cNt4T.o
 .riscv.attributes
                0x0000014a       0x2a /tmp/cceLnpZT.o
 .riscv.attributes
                0x00000174       0x2a /tmp/ccw4clEd.o
 .riscv.attributes
                0x0000019e       0x2a /tmp/ccTRD9oq.o
 .riscv.attributes
                0x000001c8       0x2a /tmp/ccUW8D1M.o
 .riscv.attributes
                0x000001f2       0x2a /tmp/ccvnKTxw.o
 .riscv.attributes
                0x0000021c       0x2a /tmp/cc2sITrz.o
 .riscv.attributes
                0x00000246       0x2a /tmp/cc0TBWUu.o
 .riscv.attributes
                0x00000270       0x2a /tmp/ccCUQKCS.o
 .riscv.attributes
                0x0000029a       0x2a /tmp/cc59U7HA.o
 .riscv.attributes
                0x000002c4       0x2a /tmp/cc6l8QMe.o
 .riscv.attributes
                0x000002ee       0x2a /tmp/ccTmQ7WR.o
 .riscv.attributes
                0x00000318       0x2a /tmp/ccTZ5hr3.o
 .riscv.attributes
                0x00000342       0x2a /tmp/ccKjROW9.o
 .riscv.attributes
                0x0000036c       0x2a /tmp/ccpQb0Ok.o
 .riscv.attributes
                0x00000396       0x2a /tmp/ccsuGEfo.o
 .riscv.attributes
                0x000003c0       0x2a /tmp/cczhvEKP.o
 .riscv.attributes
                0x000003ea       0x2a /tmp/ccYQ2s8B.o
 .riscv.attributes
                0x00000414       0x2a /tmp/ccvyvkaj.o
 .riscv.attributes
                0x0000043e       0x2a /tmp/ccZhAQSd.o
 .riscv.attributes
                0x00000468       0x2a /tmp/ccSEqMiV.o
 .riscv.attributes
                0x00000492       0x2a /tmp/ccq2Qkoh.o
 .riscv.attributes
                0x000004bc       0x2a /tmp/ccYuiUsY.o
 .riscv.attributes
                0x000004e6       0x2a /tmp/ccLp3uly.o
 .riscv.attributes
                0x00000510       0x2a /tmp/ccfQVS3H.o
 .riscv.attributes
                0x0000053a       0x2a /tmp/ccSklbfw.o
 .riscv.attributes
                0x00000564       0x2a /tmp/ccKqA1pY.o
 .riscv.attributes
                0x0000058e       0x2a /tmp/cc0TjJIe.o
 .riscv.attributes
                0x000005b8       0x2a /tmp/ccfXqD4Z.o
 .riscv.attributes
                0x000005e2       0x2a /tmp/ccuJfbpi.o
 .riscv.attributes
                0x0000060c       0x2a /tmp/ccp6rogz.o
 .riscv.attributes
                0x00000636       0x2a /tmp/cc9Mjn7u.o
 .riscv.attributes
                0x00000660       0x2a /tmp/ccaQEL3l.o

.comment        0x00000000       0x19
 .comment       0x00000000       0x19 /tmp/ccfGU1IX.o
                                 0x1a (size before relaxing)
 .comment       0x00000019        0x0 /tmp/ccxwSY1j.o
                                 0x1a (size before relaxing)
 .comment       0x00000019        0x0 /tmp/ccHyFeWa.o
                                 0x1a (size before relaxing)
 .comment       0x00000019        0x0 /tmp/cc7Fmdsq.o
                                 0x1a (size before relaxing)
 .comment       0x00000019        0x0 /tmp/cc3cNt4T.o
                                 0x1a (size before relaxing)
 .comment       0x00000019        0x0 /tmp/cceLnpZT.o
                                 0x1a (size before relaxing)
 .comment       0x00000019        0x0 /tmp/ccw4clEd.o
                                 0x1a (size before relaxing)
 .comment       0x00000019        0x0 /tmp/ccTRD9oq.o
                                 0x1a (size before relaxing)
 .comment       0x00000019        0x0 /tmp/ccUW8D1M.o
                                 0x1a (size before relaxing)
 .comment       0x00000019        0x0 /tmp/ccvnKTxw.o
                                 0x1a (size before relaxing)
 .comment       0x00000019        0x0 /tmp/cc2sITrz.o
                                 0x1a (size before relaxing)
 .comment       0x00000019        0x0 /tmp/cc0TBWUu.o
                                 0x1a (size before relaxing)
 .comment       0x00000019        0x0 /tmp/ccCUQKCS.o
                                 0x1a (size before relaxing)
 .comment       0x00000019        0x0 /tmp/cc59U7HA.o
                                 0x1a (size before relaxing)
 .comment       0x00000019        0x0 /tmp/cc6l8QMe.o
                                 0x1a (size before relaxing)
 .comment       0x00000019        0x0 /tmp/ccTmQ7WR.o
                                 0x1a (size before relaxing)
 .comment       0x00000019        0x0 /tmp/ccTZ5hr3.o
                                 0x1a (size before relaxing)
 .comment       0x00000019        0x0 /tmp/ccKjROW9.o
                                 0x1a (size before relaxing)
 .comment       0x00000019        0x0 /tmp/ccpQb0Ok.o
                                 0x1a (size before relaxing)
 .comment       0x00000019        0x0 /tmp/ccsuGEfo.o
                                 0x1a (size before relaxing)
 .comment       0x00000019        0x0 /tmp/cczhvEKP.o
                                 0x1a (size before relaxing)
 .comment       0x00000019        0x0 /tmp/ccYQ2s8B.o
                                 0x1a (size before relaxing)
 .comment       0x00000019        0x0 /tmp/ccvyvkaj.o
                                 0x1a (size before relaxing)
 .comment       0x00000019        0x0 /tmp/ccZhAQSd.o
                                 0x1a (size before relaxing)
 .comment       0x00000019        0x0 /tmp/ccSEqMiV.o
                                 0x1a (size before relaxing)
 .comment       0x00000019        0x0 /tmp/ccq2Qkoh.o
                                 0x1a (size before relaxing)
 .comment       0x00000019        0x0 /tmp/ccYuiUsY.o
                                 0x1a (size before relaxing)
 .comment       0x00000019        0x0 /tmp/ccLp3uly.o
                                 0x1a (size before relaxing)
 .comment       0x00000019        0x0 /tmp/ccfQVS3H.o
                                 0x1a (size before relaxing)
 .comment       0x00000019        0x0 /tmp/ccSklbfw.o
                                 0x1a (size before relaxing)
 .comment       0x00000019        0x0 /tmp/ccKqA1pY.o
                                 0x1a (size before relaxing)
 .comment       0x00000019        0x0 /tmp/cc0TjJIe.o
                                 0x1a (size before relaxing)
 .comment       0x00000019        0x0 /tmp/ccfXqD4Z.o
                                 0x1a (size before relaxing)
 .comment       0x00000019        0x0 /tmp/ccuJfbpi.o
                                 0x1a (size before relaxing)
 .comment       0x00000019        0x0 /tmp/ccp6rogz.o
                                 0x1a (size before relaxing)
 .comment       0x00000019        0x0 /tmp/cc9Mjn7u.o
                                 0x1a (size before relaxing)
 .comment       0x00000019        0x0 /tmp/ccaQEL3l.o
                                 0x1a (size before relaxing)

.note.GNU-stack
                0x00000000        0x0
 .note.GNU-stack
                0x00000000        0x0 /tmp/ccfGU1IX.o
 .note.GNU-stack
                0x00000000        0x0 /tmp/ccxwSY1j.o
 .note.GNU-stack
                0x00000000        0x0 /tmp/ccHyFeWa.o
 .note.GNU-stack
                0x00000000        0x0 /tmp/cc7Fmdsq.o
 .note.GNU-stack
                0x00000000        0x0 /tmp/cc3cNt4T.o
 .note.GNU-stack
                0x00000000        0x0 /tmp/cceLnpZT.o
 .note.GNU-stack
                0x00000000        0x0 /tmp/ccw4clEd.o
 .note.GNU-stack
                0x00000000        0x0 /tmp/ccTRD9oq.o
 .note.GNU-stack
                0x00000000        0x0 /tmp/ccUW8D1M.o
 .note.GNU-stack
                0x00000000        0x0 /tmp/ccvnKTxw.o
 .note.GNU-stack
                0x00000000        0x0 /tmp/cc2sITrz.o
 .note.GNU-stack
                0x00000000        0x0 /tmp/cc0TBWUu.o
 .note.GNU-stack
                0x00000000        0x0 /tmp/ccCUQKCS.o
 .note.GNU-stack
                0x00000000        0x0 /tmp/cc59U7HA.o
 .note.GNU-stack
                0x00000000        0x0 /tmp/cc6l8QMe.o
 .note.GNU-stack
                0x00000000        0x0 /tmp/ccTmQ7WR.o
 .note.GNU-stack
                0x00000000        0x0 /tmp/ccTZ5hr3.o
 .note.GNU-stack
                0x00000000        0x0 /tmp/ccKjROW9.o
 .note.GNU-stack
                0x00000000        0x0 /tmp/ccpQb0Ok.o
 .note.GNU-stack
                0x00000000        0x0 /tmp/ccsuGEfo.o
 .note.GNU-stack
                0x00000000        0x0 /tmp/cczhvEKP.o
 .note.GNU-stack
                0x00000000        0x0 /tmp/ccYQ2s8B.o
 .note.GNU-stack
                0x00000000        0x0 /tmp/ccvyvkaj.o
 .note.GNU-stack
                0x00000000        0x0 /tmp/ccZhAQSd.o
 .note.GNU-stack
                0x00000000        0x0 /tmp/ccSEqMiV.o
 .note.GNU-stack
                0x00000000        0x0 /tmp/ccq2Qkoh.o
 .note.GNU-stack
                0x00000000        0x0 /tmp/ccYuiUsY.o
 .note.GNU-stack
                0x00000000        0x0 /tmp/ccLp3uly.o
 .note.GNU-stack
                0x00000000        0x0 /tmp/ccfQVS3H.o
 .note.GNU-stack
                0x00000000        0x0 /tmp/ccSklbfw.o
 .note.GNU-stack
                0x00000000        0x0 /tmp/ccKqA1pY.o
 .note.GNU-stack
                0x00000000        0x0 /tmp/cc0TjJIe.o
 .note.GNU-stack
                0x00000000        0x0 /tmp/ccfXqD4Z.o
 .note.GNU-stack
                0x00000000        0x0 /tmp/ccuJfbpi.o
 .note.GNU-stack
                0x00000000        0x0 /tmp/ccp6rogz.o
 .note.GNU-stack
                0x00000000        0x0 /tmp/cc9Mjn7u.o
 .note.GNU-stack
                0x00000000        0x0 /tmp/ccaQEL3l.o

Cross Reference Table

Symbol                                            File
MYSPI_Init                                        /tmp/ccYuiUsY.o
MYSPI_Start                                       /tmp/ccYuiUsY.o
MYSPI_Stop                                        /tmp/ccYuiUsY.o
MYSPI_SwapByte                                    /tmp/ccYuiUsY.o
__divsi3                                          /tmp/ccFoJeuJ.o
__lshrdi3                                         /tmp/cceLnpZT.o
__modsi3                                          /tmp/ccFoJeuJ.o
__muldi3                                          /tmp/ccl1h2wu.o
__mulsi3                                          /tmp/cc3cNt4T.o
__udivsi3                                         /tmp/ccFoJeuJ.o
__umodsi3                                         /tmp/ccFoJeuJ.o
_ebss                                             /tmp/ccdLbKEt.o
_edata                                            /tmp/ccdLbKEt.o
_sbss                                             /tmp/ccdLbKEt.o
_sdata                                            /tmp/ccdLbKEt.o
_sidata                                           /tmp/ccdLbKEt.o
_stack_point                                      /tmp/ccdLbKEt.o
agencyshellRun                                    /tmp/ccZhAQSd.o
cg_add                                            /tmp/cc6l8QMe.o
cg_add_op                                         /tmp/cc6l8QMe.o
                                                  /tmp/ccTmQ7WR.o
cg_addi                                           /tmp/cc6l8QMe.o
                                                  /tmp/ccTmQ7WR.o
cg_and_begin                                      /tmp/cc6l8QMe.o
                                                  /tmp/ccTmQ7WR.o
cg_beq                                            /tmp/cc6l8QMe.o
cg_bge                                            /tmp/cc6l8QMe.o
cg_blt                                            /tmp/cc6l8QMe.o
cg_bne                                            /tmp/cc6l8QMe.o
cg_call_indirect                                  /tmp/cc6l8QMe.o
                                                  /tmp/ccTmQ7WR.o
cg_div                                            /tmp/cc6l8QMe.o
cg_div_op                                         /tmp/cc6l8QMe.o
                                                  /tmp/ccTmQ7WR.o
cg_emit_beqz                                      /tmp/cc6l8QMe.o
                                                  /tmp/ccTmQ7WR.o
cg_emit_beqz_back                                 /tmp/cc6l8QMe.o
cg_emit_call                                      /tmp/cc6l8QMe.o
                                                  /tmp/ccTmQ7WR.o
cg_emit_call_back                                 /tmp/cc6l8QMe.o
                                                  /tmp/ccTmQ7WR.o
cg_emit_j                                         /tmp/cc6l8QMe.o
                                                  /tmp/ccTmQ7WR.o
cg_emit_jback                                     /tmp/cc6l8QMe.o
                                                  /tmp/ccTmQ7WR.o
cg_epilogue                                       /tmp/cc6l8QMe.o
                                                  /tmp/ccTmQ7WR.o
cg_eq_op                                          /tmp/cc6l8QMe.o
                                                  /tmp/ccTmQ7WR.o
cg_ge_op                                          /tmp/cc6l8QMe.o
                                                  /tmp/ccTmQ7WR.o
cg_get_label_pos                                  /tmp/cc6l8QMe.o
                                                  /tmp/ccCUQKCS.o
cg_gt_op                                          /tmp/cc6l8QMe.o
                                                  /tmp/ccTmQ7WR.o
cg_jal                                            /tmp/cc6l8QMe.o
cg_jalr                                           /tmp/cc6l8QMe.o
cg_label                                          /tmp/cc6l8QMe.o
                                                  /tmp/ccTmQ7WR.o
cg_le_op                                          /tmp/cc6l8QMe.o
                                                  /tmp/ccTmQ7WR.o
cg_li                                             /tmp/cc6l8QMe.o
                                                  /tmp/ccTmQ7WR.o
cg_load_global                                    /tmp/cc6l8QMe.o
                                                  /tmp/ccTmQ7WR.o
cg_load_local                                     /tmp/cc6l8QMe.o
                                                  /tmp/ccTmQ7WR.o
cg_lt_op                                          /tmp/cc6l8QMe.o
                                                  /tmp/ccTmQ7WR.o
cg_lui                                            /tmp/cc6l8QMe.o
cg_lw                                             /tmp/cc6l8QMe.o
cg_mul                                            /tmp/cc6l8QMe.o
cg_mul_op                                         /tmp/cc6l8QMe.o
                                                  /tmp/ccTmQ7WR.o
cg_ne_op                                          /tmp/cc6l8QMe.o
                                                  /tmp/ccTmQ7WR.o
cg_neg_op                                         /tmp/cc6l8QMe.o
                                                  /tmp/ccTmQ7WR.o
cg_not_op                                         /tmp/cc6l8QMe.o
                                                  /tmp/ccTmQ7WR.o
cg_or_begin                                       /tmp/cc6l8QMe.o
                                                  /tmp/ccTmQ7WR.o
cg_patch                                          /tmp/cc6l8QMe.o
                                                  /tmp/ccTmQ7WR.o
cg_pop                                            /tmp/cc6l8QMe.o
                                                  /tmp/ccTmQ7WR.o
cg_prologue                                       /tmp/cc6l8QMe.o
cg_prologue_params                                /tmp/cc6l8QMe.o
                                                  /tmp/ccTmQ7WR.o
cg_push_imm                                       /tmp/cc6l8QMe.o
                                                  /tmp/ccTmQ7WR.o
cg_rem                                            /tmp/cc6l8QMe.o
cg_rem_op                                         /tmp/cc6l8QMe.o
                                                  /tmp/ccTmQ7WR.o
cg_reset_labels                                   /tmp/cc6l8QMe.o
                                                  /tmp/ccTmQ7WR.o
cg_slt                                            /tmp/cc6l8QMe.o
cg_sltiu                                          /tmp/cc6l8QMe.o
cg_store_global                                   /tmp/cc6l8QMe.o
                                                  /tmp/ccTmQ7WR.o
cg_store_local                                    /tmp/cc6l8QMe.o
                                                  /tmp/ccTmQ7WR.o
cg_sub                                            /tmp/cc6l8QMe.o
cg_sub_op                                         /tmp/cc6l8QMe.o
                                                  /tmp/ccTmQ7WR.o
cg_sw                                             /tmp/cc6l8QMe.o
                                                  /tmp/ccTmQ7WR.o
cg_xori                                           /tmp/cc6l8QMe.o
chdir                                             /tmp/cczhvEKP.o
                                                  /tmp/ccYQ2s8B.o
codegen_init                                      /tmp/cc6l8QMe.o
                                                  /tmp/ccTmQ7WR.o
create_shell_env_varible                          /tmp/cczhvEKP.o
                                                  /tmp/cc0TBWUu.o
create_task                                       /tmp/ccfXqD4Z.o
createfile                                        /tmp/cczhvEKP.o
                                                  /tmp/ccYQ2s8B.o
ctx_init                                          /tmp/ccuJfbpi.o
                                                  /tmp/ccfXqD4Z.o
delay_ms                                          /tmp/cc7Fmdsq.o
delete_task                                       /tmp/ccfXqD4Z.o
disk_initialize                                   /tmp/ccSklbfw.o
                                                  /tmp/ccKqA1pY.o
disk_ioctl                                        /tmp/ccSklbfw.o
                                                  /tmp/ccKqA1pY.o
disk_read                                         /tmp/ccSklbfw.o
                                                  /tmp/ccKqA1pY.o
disk_status                                       /tmp/ccSklbfw.o
                                                  /tmp/ccKqA1pY.o
disk_write                                        /tmp/ccSklbfw.o
                                                  /tmp/ccKqA1pY.o
easy_print                                        /tmp/cc0TBWUu.o
editCmd                                           /tmp/cc9Mjn7u.o
                                                  /tmp/ccZhAQSd.o
editor_build_line_offsets                         /tmp/cc9Mjn7u.o
editor_construct_path                             /tmp/cc9Mjn7u.o
editor_line_length                                /tmp/cc9Mjn7u.o
                                                  /tmp/ccaQEL3l.o
editor_render                                     /tmp/ccaQEL3l.o
                                                  /tmp/cc9Mjn7u.o
enter_load_from_ctx                               /tmp/ccuJfbpi.o
                                                  /tmp/ccfXqD4Z.o
envChar                                           /tmp/cczhvEKP.o
                                                  /tmp/ccZhAQSd.o
envFunc                                           /tmp/cczhvEKP.o
                                                  /tmp/ccZhAQSd.o
                                                  /tmp/ccCUQKCS.o
envInt                                            /tmp/cczhvEKP.o
                                                  /tmp/ccZhAQSd.o
envShort                                          /tmp/cczhvEKP.o
                                                  /tmp/ccZhAQSd.o
envString                                         /tmp/cczhvEKP.o
                                                  /tmp/ccZhAQSd.o
exec_func                                         /tmp/cczhvEKP.o
exit_save_to_ctx                                  /tmp/ccuJfbpi.o
                                                  /tmp/ccfXqD4Z.o
f_chdir                                           /tmp/ccKqA1pY.o
                                                  /tmp/cczhvEKP.o
f_chdrive                                         /tmp/ccKqA1pY.o
f_close                                           /tmp/ccKqA1pY.o
                                                  /tmp/cc9Mjn7u.o
                                                  /tmp/cczhvEKP.o
                                                  /tmp/ccCUQKCS.o
f_closedir                                        /tmp/ccKqA1pY.o
                                                  /tmp/cczhvEKP.o
f_getcwd                                          /tmp/ccKqA1pY.o
                                                  /tmp/cczhvEKP.o
f_getfree                                         /tmp/ccKqA1pY.o
f_gets                                            /tmp/ccKqA1pY.o
f_lseek                                           /tmp/ccKqA1pY.o
f_mkdir                                           /tmp/ccKqA1pY.o
f_mkfs                                            /tmp/ccKqA1pY.o
                                                  /tmp/cc0TjJIe.o
f_mount                                           /tmp/ccKqA1pY.o
                                                  /tmp/cc0TjJIe.o
f_open                                            /tmp/ccKqA1pY.o
                                                  /tmp/cc9Mjn7u.o
                                                  /tmp/cczhvEKP.o
                                                  /tmp/ccCUQKCS.o
f_opendir                                         /tmp/ccKqA1pY.o
                                                  /tmp/cczhvEKP.o
f_printf                                          /tmp/ccKqA1pY.o
f_putc                                            /tmp/ccKqA1pY.o
f_puts                                            /tmp/ccKqA1pY.o
f_read                                            /tmp/ccKqA1pY.o
                                                  /tmp/cc9Mjn7u.o
                                                  /tmp/ccCUQKCS.o
f_readdir                                         /tmp/ccKqA1pY.o
                                                  /tmp/cczhvEKP.o
f_rename                                          /tmp/ccKqA1pY.o
f_stat                                            /tmp/ccKqA1pY.o
f_sync                                            /tmp/ccKqA1pY.o
f_truncate                                        /tmp/ccKqA1pY.o
f_unlink                                          /tmp/ccKqA1pY.o
f_write                                           /tmp/ccKqA1pY.o
                                                  /tmp/cc9Mjn7u.o
fccCmd                                            /tmp/ccCUQKCS.o
                                                  /tmp/ccZhAQSd.o
fcc_compile                                       /tmp/ccTmQ7WR.o
                                                  /tmp/ccCUQKCS.o
ff_oem2uni                                        /tmp/ccLp3uly.o
                                                  /tmp/ccKqA1pY.o
ff_uni2oem                                        /tmp/ccLp3uly.o
                                                  /tmp/ccKqA1pY.o
ff_wtoupper                                       /tmp/ccLp3uly.o
                                                  /tmp/ccKqA1pY.o
fnode                                             /tmp/cczhvEKP.o
fs_Flash                                          /tmp/cc0TjJIe.o
getcwd                                            /tmp/cczhvEKP.o
                                                  /tmp/ccYQ2s8B.o
gpio_hal_get_level                                /tmp/cc2sITrz.o
                                                  /tmp/ccYuiUsY.o
gpio_hal_input_enable                             /tmp/cc2sITrz.o
                                                  /tmp/ccYuiUsY.o
gpio_hal_output_enable                            /tmp/cc2sITrz.o
                                                  /tmp/ccYuiUsY.o
gpio_hal_read_update                              /tmp/cc2sITrz.o
                                                  /tmp/ccYuiUsY.o
gpio_hal_set_fcfg                                 /tmp/cc2sITrz.o
gpio_hal_set_level                                /tmp/cc2sITrz.o
                                                  /tmp/ccYuiUsY.o
gpio_hal_set_mux                                  /tmp/cc2sITrz.o
gpio_hal_write_update                             /tmp/cc2sITrz.o
                                                  /tmp/ccYuiUsY.o
hal_delay_ms                                      /tmp/cc7Fmdsq.o
hal_delay_s                                       /tmp/cc7Fmdsq.o
hal_delay_us                                      /tmp/cc7Fmdsq.o
                                                  /tmp/cc2sITrz.o
hal_get_sys_tick                                  /tmp/cc7Fmdsq.o
hal_hp_uart_config                                /tmp/ccxwSY1j.o
hal_hp_uart_init                                  /tmp/ccxwSY1j.o
hal_hp_uart_putstr                                /tmp/ccxwSY1j.o
hal_hp_uart_recv                                  /tmp/ccxwSY1j.o
hal_hp_uart_recv_str                              /tmp/ccxwSY1j.o
hal_hp_uart_send                                  /tmp/ccxwSY1j.o
hal_i2c_deinit                                    /tmp/ccvnKTxw.o
hal_i2c_init                                      /tmp/ccvnKTxw.o
hal_i2c_read_nbyte                                /tmp/ccvnKTxw.o
hal_i2c_write_nbyte                               /tmp/ccvnKTxw.o
hal_qspi_deinit                                   /tmp/ccUW8D1M.o
hal_qspi_init                                     /tmp/ccUW8D1M.o
                                                  /tmp/ccTZ5hr3.o
hal_qspi_read                                     /tmp/ccUW8D1M.o
                                                  /tmp/ccTZ5hr3.o
hal_qspi_send_cmd                                 /tmp/ccUW8D1M.o
                                                  /tmp/ccTZ5hr3.o
hal_qspi_write                                    /tmp/ccUW8D1M.o
                                                  /tmp/ccTZ5hr3.o
hal_qspi_write_16                                 /tmp/ccUW8D1M.o
hal_qspi_write_16_cs                              /tmp/ccUW8D1M.o
hal_qspi_write_32                                 /tmp/ccUW8D1M.o
hal_qspi_write_32_cs                              /tmp/ccUW8D1M.o
hal_qspi_write_32x16                              /tmp/ccUW8D1M.o
hal_qspi_write_32x16_cs                           /tmp/ccUW8D1M.o
hal_qspi_write_32x2                               /tmp/ccUW8D1M.o
hal_qspi_write_32x2_cs                            /tmp/ccUW8D1M.o
hal_qspi_write_32x32                              /tmp/ccUW8D1M.o
hal_qspi_write_32x32_cs                           /tmp/ccUW8D1M.o
hal_qspi_write_32x8                               /tmp/ccUW8D1M.o
hal_qspi_write_32x8_cs                            /tmp/ccUW8D1M.o
hal_qspi_write_8                                  /tmp/ccUW8D1M.o
hal_qspi_write_8_cs                               /tmp/ccUW8D1M.o
hal_sys_getchar                                   /tmp/ccTRD9oq.o
                                                  /tmp/cc9Mjn7u.o
                                                  /tmp/cczhvEKP.o
hal_sys_putchar                                   /tmp/ccTRD9oq.o
                                                  /tmp/ccaQEL3l.o
                                                  /tmp/cczhvEKP.o
                                                  /tmp/ccw4clEd.o
hal_sys_putstr                                    /tmp/ccTRD9oq.o
hal_sys_tick_init                                 /tmp/cc7Fmdsq.o
hal_sys_uart_init                                 /tmp/ccTRD9oq.o
                                                  /tmp/cc0TBWUu.o
lexer_init                                        /tmp/cc59U7HA.o
                                                  /tmp/ccCUQKCS.o
lexer_next                                        /tmp/cc59U7HA.o
                                                  /tmp/ccTmQ7WR.o
listdir                                           /tmp/cczhvEKP.o
                                                  /tmp/ccYQ2s8B.o
load_filesystem                                   /tmp/cc0TjJIe.o
                                                  /tmp/ccYQ2s8B.o
load_shell                                        /tmp/ccYQ2s8B.o
                                                  /tmp/cc0TBWUu.o
log_close                                         /tmp/ccp6rogz.o
log_init                                          /tmp/ccp6rogz.o
log_print                                         /tmp/ccp6rogz.o
                                                  /tmp/cc0TjJIe.o
                                                  /tmp/ccKqA1pY.o
                                                  /tmp/ccSklbfw.o
                                                  /tmp/cczhvEKP.o
                                                  /tmp/ccsuGEfo.o
                                                  /tmp/ccpQb0Ok.o
                                                  /tmp/ccKjROW9.o
                                                  /tmp/cc2sITrz.o
main                                              /tmp/cc0TBWUu.o
                                                  /tmp/ccdLbKEt.o
memcmp                                            /tmp/ccfGU1IX.o
                                                  /tmp/ccKqA1pY.o
memcpy                                            /tmp/ccfGU1IX.o
                                                  /tmp/ccuJfbpi.o
                                                  /tmp/ccfXqD4Z.o
                                                  /tmp/cc0TjJIe.o
                                                  /tmp/ccKqA1pY.o
                                                  /tmp/ccq2Qkoh.o
                                                  /tmp/ccSEqMiV.o
                                                  /tmp/ccKjROW9.o
                                                  /tmp/cc0TBWUu.o
memmove                                           /tmp/ccfGU1IX.o
                                                  /tmp/cc9Mjn7u.o
memset                                            /tmp/ccfGU1IX.o
                                                  /tmp/cc9Mjn7u.o
                                                  /tmp/ccuJfbpi.o
                                                  /tmp/ccfXqD4Z.o
                                                  /tmp/ccKqA1pY.o
                                                  /tmp/ccYQ2s8B.o
                                                  /tmp/ccsuGEfo.o
                                                  /tmp/ccpQb0Ok.o
                                                  /tmp/ccCUQKCS.o
pairedChars                                       /tmp/ccSEqMiV.o
printf                                            /tmp/ccw4clEd.o
                                                  /tmp/ccaQEL3l.o
                                                  /tmp/cc9Mjn7u.o
                                                  /tmp/ccp6rogz.o
                                                  /tmp/ccfXqD4Z.o
                                                  /tmp/cc0TjJIe.o
                                                  /tmp/ccYQ2s8B.o
                                                  /tmp/ccTmQ7WR.o
                                                  /tmp/ccCUQKCS.o
                                                  /tmp/cc0TBWUu.o
pwm_hal_disable                                   /tmp/ccHyFeWa.o
pwm_hal_enable                                    /tmp/ccHyFeWa.o
pwm_hal_init                                      /tmp/ccHyFeWa.o
pwm_hal_set_compare                               /tmp/ccHyFeWa.o
res_Flash                                         /tmp/cc0TjJIe.o
resume_task                                       /tmp/ccfXqD4Z.o
set_fnode                                         /tmp/cczhvEKP.o
                                                  /tmp/cc0TBWUu.o
sfud_chip_erase                                   /tmp/ccKjROW9.o
sfud_device_init                                  /tmp/ccKjROW9.o
sfud_erase                                        /tmp/ccKjROW9.o
sfud_erase_write                                  /tmp/ccKjROW9.o
                                                  /tmp/ccSklbfw.o
sfud_get_device                                   /tmp/ccKjROW9.o
sfud_get_device_num                               /tmp/ccKjROW9.o
sfud_get_device_table                             /tmp/ccKjROW9.o
                                                  /tmp/ccSklbfw.o
sfud_init                                         /tmp/ccKjROW9.o
                                                  /tmp/ccSklbfw.o
sfud_read                                         /tmp/ccKjROW9.o
                                                  /tmp/ccSklbfw.o
sfud_read_sfdp                                    /tmp/ccpQb0Ok.o
                                                  /tmp/ccKjROW9.o
sfud_read_status                                  /tmp/ccKjROW9.o
                                                  /tmp/ccSklbfw.o
sfud_sfdp_get_suitable_eraser                     /tmp/ccpQb0Ok.o
                                                  /tmp/ccKjROW9.o
sfud_spi_port_init                                /tmp/ccTZ5hr3.o
                                                  /tmp/ccKjROW9.o
sfud_write                                        /tmp/ccKjROW9.o
sfud_write_status                                 /tmp/ccKjROW9.o
shellBackspace                                    /tmp/ccSEqMiV.o
                                                  /tmp/ccZhAQSd.o
shellCD                                           /tmp/ccvyvkaj.o
                                                  /tmp/ccZhAQSd.o
shellCheckPermission                              /tmp/ccSEqMiV.o
shellClear                                        /tmp/ccSEqMiV.o
                                                  /tmp/ccZhAQSd.o
shellClearCommandLine                             /tmp/ccSEqMiV.o
shellCmds                                         /tmp/ccSEqMiV.o
                                                  /tmp/ccZhAQSd.o
shellCommandCount                                 /tmp/ccZhAQSd.o
                                                  /tmp/ccSEqMiV.o
shellCommandList                                  /tmp/ccZhAQSd.o
                                                  /tmp/ccSEqMiV.o
shellCompanionAdd                                 /tmp/ccq2Qkoh.o
                                                  /tmp/ccYQ2s8B.o
shellCompanionDel                                 /tmp/ccq2Qkoh.o
shellCompanionGet                                 /tmp/ccq2Qkoh.o
                                                  /tmp/ccvyvkaj.o
shellDelete                                       /tmp/ccSEqMiV.o
                                                  /tmp/ccZhAQSd.o
shellDeleteByte                                   /tmp/ccSEqMiV.o
shellDeleteCommandLine                            /tmp/ccSEqMiV.o
shellDown                                         /tmp/ccSEqMiV.o
                                                  /tmp/ccZhAQSd.o
shellEnter                                        /tmp/ccSEqMiV.o
                                                  /tmp/ccZhAQSd.o
shellExec                                         /tmp/ccSEqMiV.o
shellExecute                                      /tmp/ccSEqMiV.o
                                                  /tmp/ccZhAQSd.o
shellExtParsePara                                 /tmp/ccsuGEfo.o
                                                  /tmp/ccSEqMiV.o
shellExtRun                                       /tmp/ccsuGEfo.o
                                                  /tmp/ccSEqMiV.o
shellFsInit                                       /tmp/ccvyvkaj.o
                                                  /tmp/ccYQ2s8B.o
shellGetCurrent                                   /tmp/ccSEqMiV.o
                                                  /tmp/cc9Mjn7u.o
                                                  /tmp/ccZhAQSd.o
                                                  /tmp/ccvyvkaj.o
                                                  /tmp/ccCUQKCS.o
shellGetVarValue                                  /tmp/ccSEqMiV.o
                                                  /tmp/ccsuGEfo.o
shellHandler                                      /tmp/ccSEqMiV.o
shellHelp                                         /tmp/ccSEqMiV.o
                                                  /tmp/ccZhAQSd.o
shellInit                                         /tmp/ccSEqMiV.o
                                                  /tmp/ccYQ2s8B.o
shellInsertByte                                   /tmp/ccSEqMiV.o
shellKeys                                         /tmp/ccSEqMiV.o
                                                  /tmp/ccZhAQSd.o
shellLS                                           /tmp/ccvyvkaj.o
                                                  /tmp/ccZhAQSd.o
shellLeft                                         /tmp/ccSEqMiV.o
                                                  /tmp/ccZhAQSd.o
shellListAll                                      /tmp/ccSEqMiV.o
shellListCommand                                  /tmp/ccSEqMiV.o
shellListItem                                     /tmp/ccSEqMiV.o
shellListKey                                      /tmp/ccSEqMiV.o
shellListUser                                     /tmp/ccSEqMiV.o
shellListVar                                      /tmp/ccSEqMiV.o
shellNormalInput                                  /tmp/ccSEqMiV.o
shellPrint                                        /tmp/ccSEqMiV.o
shellRead                                         /tmp/cczhvEKP.o
                                                  /tmp/ccYQ2s8B.o
shellRemove                                       /tmp/ccSEqMiV.o
shellRight                                        /tmp/ccSEqMiV.o
                                                  /tmp/ccZhAQSd.o
shellRun                                          /tmp/ccSEqMiV.o
                                                  /tmp/ccZhAQSd.o
shellRunCommand                                   /tmp/ccSEqMiV.o
shellSeekCommand                                  /tmp/ccSEqMiV.o
                                                  /tmp/ccsuGEfo.o
shellSetUser                                      /tmp/ccSEqMiV.o
shellSetVar                                       /tmp/ccSEqMiV.o
                                                  /tmp/ccZhAQSd.o
shellSetVarValue                                  /tmp/ccSEqMiV.o
shellSplit                                        /tmp/ccSEqMiV.o
shellTOUCH                                        /tmp/ccvyvkaj.o
                                                  /tmp/ccZhAQSd.o
shellTab                                          /tmp/ccSEqMiV.o
                                                  /tmp/ccZhAQSd.o
shellTask                                         /tmp/ccSEqMiV.o
                                                  /tmp/ccYQ2s8B.o
shellToDec                                        /tmp/ccSEqMiV.o
shellToHex                                        /tmp/ccSEqMiV.o
shellUp                                           /tmp/ccSEqMiV.o
                                                  /tmp/ccZhAQSd.o
shellUsers                                        /tmp/ccSEqMiV.o
                                                  /tmp/ccZhAQSd.o
shellVars                                         /tmp/ccSEqMiV.o
                                                  /tmp/ccZhAQSd.o
shellWrite                                        /tmp/cczhvEKP.o
                                                  /tmp/ccYQ2s8B.o
shellWriteString                                  /tmp/ccSEqMiV.o
                                                  /tmp/ccvyvkaj.o
shellfs                                           /tmp/ccq2Qkoh.o
snprintf                                          /tmp/ccw4clEd.o
                                                  /tmp/ccaQEL3l.o
                                                  /tmp/cc9Mjn7u.o
                                                  /tmp/cczhvEKP.o
                                                  /tmp/ccTmQ7WR.o
                                                  /tmp/ccCUQKCS.o
strchr                                            /tmp/ccfGU1IX.o
                                                  /tmp/ccKqA1pY.o
strcmp                                            /tmp/ccfGU1IX.o
                                                  /tmp/ccSEqMiV.o
                                                  /tmp/ccTmQ7WR.o
                                                  /tmp/cc59U7HA.o
                                                  /tmp/ccCUQKCS.o
strcpy                                            /tmp/ccfGU1IX.o
                                                  /tmp/cczhvEKP.o
strlen                                            /tmp/ccfGU1IX.o
                                                  /tmp/cc9Mjn7u.o
                                                  /tmp/ccSEqMiV.o
                                                  /tmp/cczhvEKP.o
                                                  /tmp/ccTmQ7WR.o
                                                  /tmp/cc59U7HA.o
                                                  /tmp/ccCUQKCS.o
strncmp                                           /tmp/ccfGU1IX.o
                                                  /tmp/ccSEqMiV.o
strncpy                                           /tmp/ccfGU1IX.o
                                                  /tmp/ccTmQ7WR.o
                                                  /tmp/cc59U7HA.o
suspend_task                                      /tmp/ccfXqD4Z.o
task_scheduler                                    /tmp/ccfXqD4Z.o
vprintf                                           /tmp/ccw4clEd.o
                                                  /tmp/ccp6rogz.o
vsnprintf                                         /tmp/ccw4clEd.o
                                                  /tmp/ccSEqMiV.o
work_buf                                          /tmp/cc0TjJIe.o
