
Discarded input sections

 .debug_line    0x00000000      0x163 /tmp/cc7sF7fF.o
 .debug_line_str
                0x00000000       0x22 /tmp/cc7sF7fF.o
 .debug_info    0x00000000       0x25 /tmp/cc7sF7fF.o
 .debug_abbrev  0x00000000       0x14 /tmp/cc7sF7fF.o
 .debug_aranges
                0x00000000       0x20 /tmp/cc7sF7fF.o
 .debug_str     0x00000000       0x2e /tmp/cc7sF7fF.o
 .debug_line    0x00000000       0x7a /tmp/ccSODY0y.o
 .debug_line_str
                0x00000000       0x23 /tmp/ccSODY0y.o
 .debug_info    0x00000000       0x31 /tmp/ccSODY0y.o
 .debug_abbrev  0x00000000       0x28 /tmp/ccSODY0y.o
 .debug_aranges
                0x00000000       0x20 /tmp/ccSODY0y.o
 .debug_str     0x00000000       0x38 /tmp/ccSODY0y.o
 .debug_line    0x00000000      0x152 /tmp/ccMcsTSx.o
 .debug_line_str
                0x00000000       0x20 /tmp/ccMcsTSx.o
 .debug_info    0x00000000       0x54 /tmp/ccMcsTSx.o
 .debug_abbrev  0x00000000       0x28 /tmp/ccMcsTSx.o
 .debug_aranges
                0x00000000       0x20 /tmp/ccMcsTSx.o
 .debug_str     0x00000000       0x52 /tmp/ccMcsTSx.o
 .debug_info    0x00000000      0x446 /tmp/ccFXvcaD.o
 .debug_abbrev  0x00000000      0x10d /tmp/ccFXvcaD.o
 .debug_loclists
                0x00000000      0x66a /tmp/ccFXvcaD.o
 .debug_aranges
                0x00000000       0x20 /tmp/ccFXvcaD.o
 .debug_line    0x00000000      0x514 /tmp/ccFXvcaD.o
 .debug_str     0x00000000      0x162 /tmp/ccFXvcaD.o
 .debug_line_str
                0x00000000       0x9d /tmp/ccFXvcaD.o
 .debug_frame   0x00000000       0xb0 /tmp/ccFXvcaD.o
 .debug_info    0x00000000      0x1fa /tmp/cccCh0rh.o
 .debug_abbrev  0x00000000      0x11a /tmp/cccCh0rh.o
 .debug_loclists
                0x00000000       0x3b /tmp/cccCh0rh.o
 .debug_aranges
                0x00000000       0x20 /tmp/cccCh0rh.o
 .debug_line    0x00000000      0x28f /tmp/cccCh0rh.o
 .debug_str     0x00000000      0x1ea /tmp/cccCh0rh.o
 .debug_line_str
                0x00000000       0xb6 /tmp/cccCh0rh.o
 .debug_frame   0x00000000       0x98 /tmp/cccCh0rh.o
 .debug_info    0x00000000      0x203 /tmp/ccvUI6Qk.o
 .debug_abbrev  0x00000000       0xf5 /tmp/ccvUI6Qk.o
 .debug_loclists
                0x00000000       0x7a /tmp/ccvUI6Qk.o
 .debug_aranges
                0x00000000       0x20 /tmp/ccvUI6Qk.o
 .debug_line    0x00000000      0x1a3 /tmp/ccvUI6Qk.o
 .debug_str     0x00000000      0x189 /tmp/ccvUI6Qk.o
 .debug_line_str
                0x00000000       0xaa /tmp/ccvUI6Qk.o
 .debug_frame   0x00000000       0x50 /tmp/ccvUI6Qk.o
 .debug_info    0x00000000      0x234 /tmp/ccmBRPKn.o
 .debug_abbrev  0x00000000       0xb6 /tmp/ccmBRPKn.o
 .debug_loclists
                0x00000000      0x129 /tmp/ccmBRPKn.o
 .debug_aranges
                0x00000000       0x20 /tmp/ccmBRPKn.o
 .debug_line    0x00000000      0x29a /tmp/ccmBRPKn.o
 .debug_str     0x00000000      0x149 /tmp/ccmBRPKn.o
 .debug_line_str
                0x00000000       0x9f /tmp/ccmBRPKn.o
 .debug_frame   0x00000000       0x70 /tmp/ccmBRPKn.o
 .debug_info    0x00000000       0x80 /tmp/ccIap2sK.o
 .debug_abbrev  0x00000000       0x6c /tmp/ccIap2sK.o
 .debug_loclists
                0x00000000       0x41 /tmp/ccIap2sK.o
 .debug_aranges
                0x00000000       0x20 /tmp/ccIap2sK.o
 .debug_line    0x00000000       0xae /tmp/ccIap2sK.o
 .debug_str     0x00000000       0x6f /tmp/ccIap2sK.o
 .debug_line_str
                0x00000000       0x34 /tmp/ccIap2sK.o
 .debug_frame   0x00000000       0x20 /tmp/ccIap2sK.o
 .debug_info    0x00000000      0x115 /tmp/ccoSW0aO.o
 .debug_abbrev  0x00000000       0xd3 /tmp/ccoSW0aO.o
 .debug_loclists
                0x00000000       0x7d /tmp/ccoSW0aO.o
 .debug_aranges
                0x00000000       0x20 /tmp/ccoSW0aO.o
 .debug_line    0x00000000       0xfe /tmp/ccoSW0aO.o
 .debug_str     0x00000000      0x10b /tmp/ccoSW0aO.o
 .debug_line_str
                0x00000000       0xa3 /tmp/ccoSW0aO.o
 .debug_frame   0x00000000       0x20 /tmp/ccoSW0aO.o
 .debug_info    0x00000000      0x9b1 /tmp/cclRdlXA.o
 .debug_abbrev  0x00000000      0x26f /tmp/cclRdlXA.o
 .debug_loclists
                0x00000000      0xf10 /tmp/cclRdlXA.o
 .debug_aranges
                0x00000000       0x20 /tmp/cclRdlXA.o
 .debug_rnglists
                0x00000000       0x68 /tmp/cclRdlXA.o
 .debug_line    0x00000000     0x113b /tmp/cclRdlXA.o
 .debug_str     0x00000000      0x1e1 /tmp/cclRdlXA.o
 .debug_line_str
                0x00000000       0xb3 /tmp/cclRdlXA.o
 .debug_frame   0x00000000      0x12c /tmp/cclRdlXA.o
 .debug_info    0x00000000      0x15f /tmp/ccv4YAA2.o
 .debug_abbrev  0x00000000      0x11e /tmp/ccv4YAA2.o
 .debug_loclists
                0x00000000       0x34 /tmp/ccv4YAA2.o
 .debug_aranges
                0x00000000       0x20 /tmp/ccv4YAA2.o
 .debug_rnglists
                0x00000000       0x13 /tmp/ccv4YAA2.o
 .debug_line    0x00000000      0x13a /tmp/ccv4YAA2.o
 .debug_str     0x00000000      0x148 /tmp/ccv4YAA2.o
 .debug_line_str
                0x00000000       0xa5 /tmp/ccv4YAA2.o
 .debug_frame   0x00000000       0x50 /tmp/ccv4YAA2.o
 .debug_info    0x00000000     0x136a /tmp/cc9VoUni.o
 .debug_abbrev  0x00000000      0x338 /tmp/cc9VoUni.o
 .debug_loclists
                0x00000000     0x160b /tmp/cc9VoUni.o
 .debug_aranges
                0x00000000       0x20 /tmp/cc9VoUni.o
 .debug_rnglists
                0x00000000       0x92 /tmp/cc9VoUni.o
 .debug_line    0x00000000     0x199d /tmp/cc9VoUni.o
 .debug_str     0x00000000      0x4a9 /tmp/cc9VoUni.o
 .debug_line_str
                0x00000000       0xa8 /tmp/cc9VoUni.o
 .debug_frame   0x00000000      0x240 /tmp/cc9VoUni.o
 .debug_info    0x00000000      0x52f /tmp/ccfB4dVU.o
 .debug_abbrev  0x00000000      0x229 /tmp/ccfB4dVU.o
 .debug_loclists
                0x00000000      0x345 /tmp/ccfB4dVU.o
 .debug_aranges
                0x00000000       0x20 /tmp/ccfB4dVU.o
 .debug_rnglists
                0x00000000       0x5f /tmp/ccfB4dVU.o
 .debug_line    0x00000000      0x67e /tmp/ccfB4dVU.o
 .debug_str     0x00000000      0x29c /tmp/ccfB4dVU.o
 .debug_line_str
                0x00000000       0xaa /tmp/ccfB4dVU.o
 .debug_frame   0x00000000       0xc8 /tmp/ccfB4dVU.o
 .debug_info    0x00000000      0x3b8 /tmp/ccfmoPfP.o
 .debug_abbrev  0x00000000      0x194 /tmp/ccfmoPfP.o
 .debug_loclists
                0x00000000      0x119 /tmp/ccfmoPfP.o
 .debug_aranges
                0x00000000       0x20 /tmp/ccfmoPfP.o
 .debug_line    0x00000000      0x279 /tmp/ccfmoPfP.o
 .debug_str     0x00000000      0x242 /tmp/ccfmoPfP.o
 .debug_line_str
                0x00000000       0xd7 /tmp/ccfmoPfP.o
 .debug_frame   0x00000000       0x90 /tmp/ccfmoPfP.o
 .debug_info    0x00000000      0x202 /tmp/ccY7CDUS.o
 .debug_abbrev  0x00000000      0x154 /tmp/ccY7CDUS.o
 .debug_loclists
                0x00000000       0x30 /tmp/ccY7CDUS.o
 .debug_aranges
                0x00000000       0x28 /tmp/ccY7CDUS.o
 .debug_rnglists
                0x00000000       0x19 /tmp/ccY7CDUS.o
 .debug_line    0x00000000      0x100 /tmp/ccY7CDUS.o
 .debug_str     0x00000000      0x17d /tmp/ccY7CDUS.o
 .debug_line_str
                0x00000000       0x8a /tmp/ccY7CDUS.o
 .debug_frame   0x00000000       0x38 /tmp/ccY7CDUS.o
 .debug_info    0x00000000      0xe4c /tmp/cccBdCHM.o
 .debug_abbrev  0x00000000      0x333 /tmp/cccBdCHM.o
 .debug_loclists
                0x00000000      0x1b8 /tmp/cccBdCHM.o
 .debug_aranges
                0x00000000       0x20 /tmp/cccBdCHM.o
 .debug_rnglists
                0x00000000       0x15 /tmp/cccBdCHM.o
 .debug_line    0x00000000      0x320 /tmp/cccBdCHM.o
 .debug_str     0x00000000      0x783 /tmp/cccBdCHM.o
 .debug_line_str
                0x00000000      0x12c /tmp/cccBdCHM.o
 .debug_frame   0x00000000       0x6c /tmp/cccBdCHM.o
 .debug_info    0x00000000      0x897 /tmp/ccQhJvCe.o
 .debug_abbrev  0x00000000      0x26e /tmp/ccQhJvCe.o
 .debug_loclists
                0x00000000      0x2b0 /tmp/ccQhJvCe.o
 .debug_aranges
                0x00000000       0x20 /tmp/ccQhJvCe.o
 .debug_rnglists
                0x00000000       0x88 /tmp/ccQhJvCe.o
 .debug_line    0x00000000      0x7f1 /tmp/ccQhJvCe.o
 .debug_str     0x00000000      0x2cb /tmp/ccQhJvCe.o
 .debug_line_str
                0x00000000       0xdb /tmp/ccQhJvCe.o
 .debug_frame   0x00000000       0xac /tmp/ccQhJvCe.o
 .debug_info    0x00000000     0x1795 /tmp/ccocEJ8l.o
 .debug_abbrev  0x00000000      0x305 /tmp/ccocEJ8l.o
 .debug_loclists
                0x00000000      0xf03 /tmp/ccocEJ8l.o
 .debug_aranges
                0x00000000       0x20 /tmp/ccocEJ8l.o
 .debug_rnglists
                0x00000000      0x101 /tmp/ccocEJ8l.o
 .debug_line    0x00000000      0xc7b /tmp/ccocEJ8l.o
 .debug_str     0x00000000      0x45e /tmp/ccocEJ8l.o
 .debug_line_str
                0x00000000       0xd2 /tmp/ccocEJ8l.o
 .debug_frame   0x00000000      0x244 /tmp/ccocEJ8l.o
 .debug_info    0x00000000      0x973 /tmp/ccCdo4M0.o
 .debug_abbrev  0x00000000      0x286 /tmp/ccCdo4M0.o
 .debug_loclists
                0x00000000      0x35a /tmp/ccCdo4M0.o
 .debug_aranges
                0x00000000       0x20 /tmp/ccCdo4M0.o
 .debug_rnglists
                0x00000000       0x87 /tmp/ccCdo4M0.o
 .debug_line    0x00000000      0x5e4 /tmp/ccCdo4M0.o
 .debug_str     0x00000000      0x3aa /tmp/ccCdo4M0.o
 .debug_line_str
                0x00000000       0xe9 /tmp/ccCdo4M0.o
 .debug_frame   0x00000000      0x134 /tmp/ccCdo4M0.o
 .debug_info    0x00000000      0x6e8 /tmp/cc72edwV.o
 .debug_abbrev  0x00000000      0x24f /tmp/cc72edwV.o
 .debug_loclists
                0x00000000      0x355 /tmp/cc72edwV.o
 .debug_aranges
                0x00000000       0x20 /tmp/cc72edwV.o
 .debug_rnglists
                0x00000000       0x1a /tmp/cc72edwV.o
 .debug_line    0x00000000      0x324 /tmp/cc72edwV.o
 .debug_str     0x00000000      0x414 /tmp/cc72edwV.o
 .debug_line_str
                0x00000000      0x103 /tmp/cc72edwV.o
 .debug_frame   0x00000000       0x44 /tmp/cc72edwV.o
 .debug_info    0x00000000     0x22ca /tmp/ccJa4kck.o
 .debug_abbrev  0x00000000      0x555 /tmp/ccJa4kck.o
 .debug_loclists
                0x00000000     0x1714 /tmp/ccJa4kck.o
 .debug_aranges
                0x00000000       0x20 /tmp/ccJa4kck.o
 .debug_rnglists
                0x00000000       0xd7 /tmp/ccJa4kck.o
 .debug_line    0x00000000     0x1aa5 /tmp/ccJa4kck.o
 .debug_str     0x00000000      0x6a2 /tmp/ccJa4kck.o
 .debug_line_str
                0x00000000      0x120 /tmp/ccJa4kck.o
 .debug_frame   0x00000000      0x2cc /tmp/ccJa4kck.o
 .debug_info    0x00000000      0xcfd /tmp/ccdCCPVb.o
 .debug_abbrev  0x00000000      0x31a /tmp/ccdCCPVb.o
 .debug_loclists
                0x00000000      0x555 /tmp/ccdCCPVb.o
 .debug_aranges
                0x00000000       0x20 /tmp/ccdCCPVb.o
 .debug_rnglists
                0x00000000       0x41 /tmp/ccdCCPVb.o
 .debug_line    0x00000000      0xa81 /tmp/ccdCCPVb.o
 .debug_str     0x00000000      0x435 /tmp/ccdCCPVb.o
 .debug_line_str
                0x00000000      0x119 /tmp/ccdCCPVb.o
 .debug_frame   0x00000000       0x80 /tmp/ccdCCPVb.o
 .debug_info    0x00000000      0xc67 /tmp/ccu5lXrI.o
 .debug_abbrev  0x00000000      0x3a7 /tmp/ccu5lXrI.o
 .debug_loclists
                0x00000000      0x7bc /tmp/ccu5lXrI.o
 .debug_aranges
                0x00000000       0x20 /tmp/ccu5lXrI.o
 .debug_rnglists
                0x00000000       0xc2 /tmp/ccu5lXrI.o
 .debug_line    0x00000000      0x942 /tmp/ccu5lXrI.o
 .debug_str     0x00000000      0x4fa /tmp/ccu5lXrI.o
 .debug_line_str
                0x00000000      0x11c /tmp/ccu5lXrI.o
 .debug_frame   0x00000000      0x134 /tmp/ccu5lXrI.o
 .debug_info    0x00000000      0xf0d /tmp/ccZsnRYx.o
 .debug_abbrev  0x00000000      0x332 /tmp/ccZsnRYx.o
 .debug_loclists
                0x00000000      0x33f /tmp/ccZsnRYx.o
 .debug_aranges
                0x00000000       0x20 /tmp/ccZsnRYx.o
 .debug_rnglists
                0x00000000       0x1c /tmp/ccZsnRYx.o
 .debug_line    0x00000000      0x665 /tmp/ccZsnRYx.o
 .debug_str     0x00000000      0x53e /tmp/ccZsnRYx.o
 .debug_line_str
                0x00000000      0x15b /tmp/ccZsnRYx.o
 .debug_frame   0x00000000      0x170 /tmp/ccZsnRYx.o
 .debug_info    0x00000000      0x823 /tmp/ccbBEysw.o
 .debug_abbrev  0x00000000      0x248 /tmp/ccbBEysw.o
 .debug_aranges
                0x00000000       0x20 /tmp/ccbBEysw.o
 .debug_line    0x00000000      0x175 /tmp/ccbBEysw.o
 .debug_str     0x00000000      0x40b /tmp/ccbBEysw.o
 .debug_line_str
                0x00000000      0x13a /tmp/ccbBEysw.o
 .debug_frame   0x00000000       0x30 /tmp/ccbBEysw.o
 .debug_info    0x00000000      0x842 /tmp/ccbBtnYF.o
 .debug_abbrev  0x00000000      0x268 /tmp/ccbBtnYF.o
 .debug_loclists
                0x00000000      0x154 /tmp/ccbBtnYF.o
 .debug_aranges
                0x00000000       0x20 /tmp/ccbBtnYF.o
 .debug_line    0x00000000      0x26a /tmp/ccbBtnYF.o
 .debug_str     0x00000000      0x3d6 /tmp/ccbBtnYF.o
 .debug_line_str
                0x00000000       0xf0 /tmp/ccbBtnYF.o
 .debug_frame   0x00000000       0xb4 /tmp/ccbBtnYF.o
 .debug_info    0x00000000      0x775 /tmp/cc4hbSfT.o
 .debug_abbrev  0x00000000      0x219 /tmp/cc4hbSfT.o
 .debug_loclists
                0x00000000       0xb4 /tmp/cc4hbSfT.o
 .debug_aranges
                0x00000000       0x20 /tmp/cc4hbSfT.o
 .debug_line    0x00000000       0x95 /tmp/cc4hbSfT.o
 .debug_str     0x00000000      0x48f /tmp/cc4hbSfT.o
 .debug_line_str
                0x00000000      0x10d /tmp/cc4hbSfT.o
 .debug_frame   0x00000000       0x2c /tmp/cc4hbSfT.o
 .debug_info    0x00000000     0x2d11 /tmp/ccCVFiGZ.o
 .debug_abbrev  0x00000000      0x5b7 /tmp/ccCVFiGZ.o
 .debug_loclists
                0x00000000     0x1df7 /tmp/ccCVFiGZ.o
 .debug_aranges
                0x00000000       0x20 /tmp/ccCVFiGZ.o
 .debug_rnglists
                0x00000000      0x2c0 /tmp/ccCVFiGZ.o
 .debug_line    0x00000000     0x347d /tmp/ccCVFiGZ.o
 .debug_str     0x00000000      0xa65 /tmp/ccCVFiGZ.o
 .debug_line_str
                0x00000000      0x118 /tmp/ccCVFiGZ.o
 .debug_frame   0x00000000      0x810 /tmp/ccCVFiGZ.o
 .debug_info    0x00000000      0x6a7 /tmp/ccu2poIx.o
 .debug_abbrev  0x00000000      0x1f7 /tmp/ccu2poIx.o
 .debug_loclists
                0x00000000       0xe7 /tmp/ccu2poIx.o
 .debug_aranges
                0x00000000       0x20 /tmp/ccu2poIx.o
 .debug_line    0x00000000      0x13f /tmp/ccu2poIx.o
 .debug_str     0x00000000      0x3bd /tmp/ccu2poIx.o
 .debug_line_str
                0x00000000      0x109 /tmp/ccu2poIx.o
 .debug_frame   0x00000000       0x58 /tmp/ccu2poIx.o
 .debug_info    0x00000000      0x5eb /tmp/ccwgK8en.o
 .debug_abbrev  0x00000000      0x1dc /tmp/ccwgK8en.o
 .debug_loclists
                0x00000000       0xe4 /tmp/ccwgK8en.o
 .debug_aranges
                0x00000000       0x20 /tmp/ccwgK8en.o
 .debug_rnglists
                0x00000000       0x66 /tmp/ccwgK8en.o
 .debug_line    0x00000000      0x30e /tmp/ccwgK8en.o
 .debug_str     0x00000000      0x4dc /tmp/ccwgK8en.o
 .debug_line_str
                0x00000000       0xf0 /tmp/ccwgK8en.o
 .debug_frame   0x00000000       0x9c /tmp/ccwgK8en.o
 .debug_info    0x00000000      0x3ef /tmp/ccFjHutd.o
 .debug_abbrev  0x00000000      0x161 /tmp/ccFjHutd.o
 .debug_loclists
                0x00000000      0x469 /tmp/ccFjHutd.o
 .debug_aranges
                0x00000000       0x20 /tmp/ccFjHutd.o
 .debug_rnglists
                0x00000000       0x16 /tmp/ccFjHutd.o
 .debug_line    0x00000000      0x5d8 /tmp/ccFjHutd.o
 .debug_str     0x00000000      0x16b /tmp/ccFjHutd.o
 .debug_line_str
                0x00000000       0xd3 /tmp/ccFjHutd.o
 .debug_frame   0x00000000       0x40 /tmp/ccFjHutd.o
 .debug_info    0x00000000       0x71 /tmp/ccOZIReF.o
 .debug_abbrev  0x00000000       0x2c /tmp/ccOZIReF.o
 .debug_aranges
                0x00000000       0x18 /tmp/ccOZIReF.o
 .debug_line    0x00000000       0x44 /tmp/ccOZIReF.o
 .debug_str     0x00000000       0xe2 /tmp/ccOZIReF.o
 .debug_line_str
                0x00000000       0x4a /tmp/ccOZIReF.o
 .debug_info    0x00000000      0x94c /tmp/cc1sIQc2.o
 .debug_abbrev  0x00000000      0x247 /tmp/cc1sIQc2.o
 .debug_loclists
                0x00000000      0x374 /tmp/cc1sIQc2.o
 .debug_aranges
                0x00000000       0x20 /tmp/cc1sIQc2.o
 .debug_line    0x00000000      0x3fb /tmp/cc1sIQc2.o
 .debug_str     0x00000000      0x443 /tmp/cc1sIQc2.o
 .debug_line_str
                0x00000000      0x134 /tmp/cc1sIQc2.o
 .debug_frame   0x00000000       0xd8 /tmp/cc1sIQc2.o
 .debug_info    0x00000000     0x553a /tmp/cctFKQMT.o
 .debug_abbrev  0x00000000      0x470 /tmp/cctFKQMT.o
 .debug_loclists
                0x00000000     0x55b7 /tmp/cctFKQMT.o
 .debug_aranges
                0x00000000       0x20 /tmp/cctFKQMT.o
 .debug_rnglists
                0x00000000      0x30d /tmp/cctFKQMT.o
 .debug_line    0x00000000     0x8fae /tmp/cctFKQMT.o
 .debug_str     0x00000000      0x8fb /tmp/cctFKQMT.o
 .debug_line_str
                0x00000000      0x10f /tmp/cctFKQMT.o
 .debug_frame   0x00000000      0xa18 /tmp/cctFKQMT.o
 .debug_info    0x00000000      0x5c8 /tmp/ccP3Scmz.o
 .debug_abbrev  0x00000000      0x219 /tmp/ccP3Scmz.o
 .debug_loclists
                0x00000000       0x3c /tmp/ccP3Scmz.o
 .debug_aranges
                0x00000000       0x20 /tmp/ccP3Scmz.o
 .debug_rnglists
                0x00000000       0x16 /tmp/ccP3Scmz.o
 .debug_line    0x00000000      0x1b8 /tmp/ccP3Scmz.o
 .debug_str     0x00000000      0x3ba /tmp/ccP3Scmz.o
 .debug_line_str
                0x00000000      0x106 /tmp/ccP3Scmz.o
 .debug_frame   0x00000000       0x4c /tmp/ccP3Scmz.o
 .debug_info    0x00000000      0x563 /tmp/ccOQLfcn.o
 .debug_abbrev  0x00000000      0x22a /tmp/ccOQLfcn.o
 .debug_loclists
                0x00000000      0x169 /tmp/ccOQLfcn.o
 .debug_aranges
                0x00000000       0x20 /tmp/ccOQLfcn.o
 .debug_rnglists
                0x00000000       0x2d /tmp/ccOQLfcn.o
 .debug_line    0x00000000      0x580 /tmp/ccOQLfcn.o
 .debug_str     0x00000000      0x235 /tmp/ccOQLfcn.o
 .debug_line_str
                0x00000000      0x11a /tmp/ccOQLfcn.o
 .debug_frame   0x00000000       0xd4 /tmp/ccOQLfcn.o
 .debug_info    0x00000000      0x2a7 /tmp/ccTt4PtB.o
 .debug_abbrev  0x00000000      0x125 /tmp/ccTt4PtB.o
 .debug_loclists
                0x00000000       0xd6 /tmp/ccTt4PtB.o
 .debug_aranges
                0x00000000       0x20 /tmp/ccTt4PtB.o
 .debug_line    0x00000000       0xcf /tmp/ccTt4PtB.o
 .debug_str     0x00000000      0x17e /tmp/ccTt4PtB.o
 .debug_line_str
                0x00000000      0x10b /tmp/ccTt4PtB.o
 .debug_frame   0x00000000       0x40 /tmp/ccTt4PtB.o
 .debug_info    0x00000000      0x27d /tmp/ccyLHIO4.o
 .debug_abbrev  0x00000000      0x150 /tmp/ccyLHIO4.o
 .debug_loclists
                0x00000000       0x94 /tmp/ccyLHIO4.o
 .debug_aranges
                0x00000000       0x20 /tmp/ccyLHIO4.o
 .debug_line    0x00000000      0x13a /tmp/ccyLHIO4.o
 .debug_str     0x00000000      0x1d0 /tmp/ccyLHIO4.o
 .debug_line_str
                0x00000000       0xdd /tmp/ccyLHIO4.o
 .debug_frame   0x00000000       0x54 /tmp/ccyLHIO4.o
 .debug_info    0x00000000     0x1519 /tmp/ccsWsm70.o
 .debug_abbrev  0x00000000      0x4e5 /tmp/ccsWsm70.o
 .debug_loclists
                0x00000000      0x5f7 /tmp/ccsWsm70.o
 .debug_aranges
                0x00000000       0x20 /tmp/ccsWsm70.o
 .debug_rnglists
                0x00000000      0x175 /tmp/ccsWsm70.o
 .debug_line    0x00000000      0xf97 /tmp/ccsWsm70.o
 .debug_str     0x00000000      0x84b /tmp/ccsWsm70.o
 .debug_line_str
                0x00000000      0x161 /tmp/ccsWsm70.o
 .debug_frame   0x00000000      0x124 /tmp/ccsWsm70.o
 .debug_info    0x00000000      0x90c /tmp/cc4ztU2H.o
 .debug_abbrev  0x00000000      0x256 /tmp/cc4ztU2H.o
 .debug_loclists
                0x00000000      0x3f9 /tmp/cc4ztU2H.o
 .debug_aranges
                0x00000000       0x20 /tmp/cc4ztU2H.o
 .debug_rnglists
                0x00000000       0xeb /tmp/cc4ztU2H.o
 .debug_line    0x00000000      0x68b /tmp/cc4ztU2H.o
 .debug_str     0x00000000      0x2ac /tmp/cc4ztU2H.o
 .debug_line_str
                0x00000000      0x11e /tmp/cc4ztU2H.o
 .debug_frame   0x00000000       0x64 /tmp/cc4ztU2H.o

Memory Configuration

Name             Origin             Length             Attributes
FLASH            0x00000000         0x01000000         axrl!w
RAM              0x30000000         0x00020000         axw!rl
*default*        0x00000000         0xffffffff

Linker script and memory map


.text           0x00000000    0x2364c
                0x00000000                        . = ALIGN (0x4)
 *(.text)
 .text          0x00000000       0xd8 /tmp/cc7sF7fF.o
 .text          0x000000d8       0x24 /tmp/ccSODY0y.o
                0x000000d8                __muldi3
 .text          0x000000fc       0xb4 /tmp/ccMcsTSx.o
                0x000000fc                __divsi3
                0x00000104                __udivsi3
                0x0000014c                __umodsi3
                0x00000180                __modsi3
 .text          0x000001b0      0x1ec /tmp/ccFXvcaD.o
                0x000001b0                memcpy
                0x000001d4                memset
                0x000001f0                strlen
                0x00000210                memcmp
                0x00000240                strchr
                0x0000025c                strcmp
                0x00000288                strncpy
                0x000002e8                strcpy
                0x00000304                strncmp
                0x0000033c                memmove
 .text          0x0000039c      0x14c /tmp/cccCh0rh.o
                0x0000039c                hal_hp_uart_init
                0x000003d4                hal_hp_uart_config
                0x0000042c                hal_hp_uart_send
                0x0000044c                hal_hp_uart_putstr
                0x00000480                hal_hp_uart_recv
                0x000004a4                hal_hp_uart_recv_str
 .text          0x000004e8       0xa0 /tmp/ccvUI6Qk.o
                0x000004e8                pwm_hal_init
                0x00000508                pwm_hal_set_compare
                0x0000055c                pwm_hal_enable
                0x00000574                pwm_hal_disable
 .text          0x00000588      0x108 /tmp/ccmBRPKn.o
                0x00000588                hal_delay_us
                0x00000608                hal_delay_ms
                0x00000614                delay_ms
                0x00000620                hal_delay_s
                0x0000062c                hal_sys_tick_init
                0x00000668                hal_get_sys_tick
 .text          0x00000690       0x28 /tmp/ccIap2sK.o
                0x00000690                __mulsi3
 .text          0x000006b8       0x48 /tmp/ccoSW0aO.o
                0x000006b8                __lshrdi3
 .text          0x00000700      0x8ec /tmp/cclRdlXA.o
                0x00000908                vprintf
                0x00000b58                vsnprintf
                0x00000f7c                snprintf
                0x00000fb0                printf
 .text          0x00000fec       0x58 /tmp/ccv4YAA2.o
                0x00000fec                hal_sys_uart_init
                0x00000ffc                hal_sys_putchar
                0x00001008                hal_sys_putstr
                0x00001028                hal_sys_getchar
 .text          0x00001044      0xba8 /tmp/cc9VoUni.o
                0x00001094                hal_qspi_init
                0x000010c8                hal_qspi_deinit
                0x000010e4                hal_qspi_write_8
                0x00001128                hal_qspi_write_8_cs
                0x00001184                hal_qspi_write_16
                0x000011c0                hal_qspi_write_16_cs
                0x0000121c                hal_qspi_write_32
                0x00001254                hal_qspi_write_32_cs
                0x000012ac                hal_qspi_write_32x2
                0x000012e8                hal_qspi_write_32x2_cs
                0x00001344                hal_qspi_write_32x8
                0x0000139c                hal_qspi_write_32x8_cs
                0x00001414                hal_qspi_write_32x16
                0x000014ac                hal_qspi_write_32x16_cs
                0x00001564                hal_qspi_write_32x32
                0x00001680                hal_qspi_write_32x32_cs
                0x000017bc                hal_qspi_send_cmd
                0x0000182c                hal_qspi_write
                0x000019dc                hal_qspi_read
 .text          0x00001bec      0x2dc /tmp/ccfB4dVU.o
                0x00001c48                hal_i2c_init
                0x00001c74                hal_i2c_deinit
                0x00001c8c                hal_i2c_write_nbyte
                0x00001d94                hal_i2c_read_nbyte
 .text          0x00001ec8      0x128 /tmp/ccfmoPfP.o
                0x00001ec8                gpio_hal_input_enable
                0x00001ee4                gpio_hal_output_enable
                0x00001f04                gpio_hal_set_level
                0x00001f34                gpio_hal_get_level
                0x00001f70                gpio_hal_read_update
                0x00001f8c                gpio_hal_write_update
                0x00001fb8                gpio_hal_set_fcfg
                0x00001fd4                gpio_hal_set_mux
 .text          0x00001ff0       0x10 /tmp/ccY7CDUS.o
                0x00001ff0                easy_print
 .text          0x00002000      0x220 /tmp/cccBdCHM.o
                0x00002164                fccCmd
 .text          0x00002220      0x4a0 /tmp/ccQhJvCe.o
                0x000022bc                lexer_next
                0x000026ac                lexer_init
 .text          0x000026c0      0x4f4 /tmp/ccocEJ8l.o
                0x000026f4                cg_add
                0x00002710                cg_sub
                0x00002734                cg_mul
                0x00002758                cg_div
                0x0000277c                cg_rem
                0x000027a0                codegen_init
                0x000027b8                cg_addi
                0x000027d4                cg_lw
                0x000027f8                cg_sw
                0x0000282c                cg_lui
                0x00002840                cg_jalr
                0x0000285c                cg_jal
                0x000028a0                cg_beq
                0x000028dc                cg_bne
                0x00002920                cg_blt
                0x00002964                cg_bge
                0x000029a8                cg_li
                0x00002a30                cg_prologue
                0x00002a58                cg_epilogue
                0x00002a8c                cg_push_imm
                0x00002ac0                cg_pop
                0x00002b3c                cg_add_op
                0x00002b48                cg_sub_op
                0x00002b54                cg_mul_op
                0x00002b60                cg_div_op
                0x00002b6c                cg_rem_op
                0x00002b78                cg_neg_op
 .text          0x00002bb4      0x3d8 /tmp/ccCdo4M0.o
                0x00002e40                fcc_compile
 .text          0x00002f8c      0x128 /tmp/cc72edwV.o
                0x0000304c                sfud_spi_port_init
 .text          0x000030b4     0x12f4 /tmp/ccJa4kck.o
                0x000030d8                sfud_get_device
                0x000030f0                sfud_get_device_num
                0x000030f8                sfud_get_device_table
                0x00003104                sfud_read_status
                0x00003230                sfud_read
                0x000034a8                sfud_chip_erase
                0x0000360c                sfud_erase
                0x00003a78                sfud_write
                0x00003d20                sfud_erase_write
                0x00003d74                sfud_write_status
                0x00003e6c                sfud_device_init
                0x00004344                sfud_init
 .text          0x000043a8      0x760 /tmp/ccdCCPVb.o
                0x000044a0                sfud_read_sfdp
                0x00004a84                sfud_sfdp_get_suitable_eraser
 .text          0x00004b08      0x594 /tmp/ccu5lXrI.o
                0x00004b7c                shellExtParsePara
                0x00004e30                shellExtRun
 .text          0x0000509c      0x594 /tmp/ccZsnRYx.o
                0x0000509c                exec_func
                0x00005154                set_fnode
                0x00005160                create_shell_env_varible
                0x000051c0                shellRead
                0x0000521c                shellWrite
                0x00005270                getcwd
                0x00005328                chdir
                0x000053dc                listdir
                0x0000554c                createfile
 .text          0x00005630       0xf0 /tmp/ccbBEysw.o
                0x00005630                load_shell
 .text          0x00005720      0x184 /tmp/ccbBtnYF.o
                0x00005720                shellCD
                0x000057c8                shellLS
                0x0000582c                shellTOUCH
                0x00005888                shellFsInit
 .text          0x000058a4       0x20 /tmp/cc4hbSfT.o
                0x000058a4                agencyshellRun
 .text          0x000058c4     0x200c /tmp/ccCVFiGZ.o
                0x00005920                shellRemove
                0x0000595c                shellGetCurrent
                0x0000598c                shellWriteString
                0x00005a68                shellPrint
                0x00005adc                shellCheckPermission
                0x00005b44                shellToHex
                0x00005c04                shellToDec
                0x00005d58                shellListItem
                0x00005f18                shellListCommand
                0x00005fb4                shellListVar
                0x00006054                shellListUser
                0x000060f4                shellListKey
                0x000061a0                shellListAll
                0x000061a4                shellDeleteCommandLine
                0x000061f8                shellClearCommandLine
                0x00006254                shellInsertByte
                0x00006404                shellDeleteByte
                0x00006554                shellSplit
                0x00006684                shellSeekCommand
                0x00006790                shellGetVarValue
                0x00006934                shellSetVarValue
                0x00006a14                shellSetVar
                0x00006ad0                shellSetUser
                0x00006b84                shellInit
                0x00006c64                shellRunCommand
                0x00006db0                shellNormalInput
                0x00006dc0                shellExec
                0x00006f6c                shellUp
                0x00007028                shellDown
                0x000070c8                shellRight
                0x000070f4                shellLeft
                0x00007138                shellTab
                0x0000739c                shellBackspace
                0x000073a4                shellDelete
                0x000073ac                shellEnter
                0x000073cc                shellHelp
                0x000074b8                shellHandler
                0x00007678                shellTask
                0x000076bc                shellUsers
                0x000076e4                shellCmds
                0x0000770c                shellVars
                0x00007734                shellKeys
                0x0000775c                shellClear
                0x0000778c                shellRun
                0x00007830                shellExecute
 .text          0x000078d0       0x84 /tmp/ccu2poIx.o
                0x000078d0                shellCompanionAdd
                0x0000790c                shellCompanionDel
                0x0000793c                shellCompanionGet
 .text          0x00007954      0x184 /tmp/ccwgK8en.o
                0x00007954                MYSPI_Init
                0x000079b8                MYSPI_Start
                0x000079dc                MYSPI_Stop
                0x00007a00                MYSPI_SwapByte
 .text          0x00007ad8      0x270 /tmp/ccFjHutd.o
                0x00007ad8                ff_uni2oem
                0x00007bc0                ff_oem2uni
                0x00007c58                ff_wtoupper
 .text          0x00007d48        0x0 /tmp/ccOZIReF.o
 .text          0x00007d48      0x2bc /tmp/cc1sIQc2.o
                0x00007d48                disk_status
                0x00007dd0                disk_initialize
                0x00007e5c                disk_read
                0x00007f08                disk_write
                0x00007fb4                disk_ioctl
 .text          0x00008004     0x4aec /tmp/cctFKQMT.o
                0x0000a298                f_mount
                0x0000a328                f_open
                0x0000a60c                f_read
                0x0000a858                f_write
                0x0000abd4                f_sync
                0x0000acd8                f_close
                0x0000ad1c                f_chdrive
                0x0000ad58                f_chdir
                0x0000adf8                f_getcwd
                0x0000b018                f_lseek
                0x0000b250                f_opendir
                0x0000b304                f_closedir
                0x0000b334                f_readdir
                0x0000b3dc                f_stat
                0x0000b460                f_getfree
                0x0000b608                f_truncate
                0x0000b730                f_unlink
                0x0000b830                f_mkdir
                0x0000ba18                f_rename
                0x0000bba0                f_mkfs
                0x0000c560                f_gets
                0x0000c60c                f_putc
                0x0000c660                f_puts
                0x0000c6c0                f_printf
 .text          0x0000caf0      0x160 /tmp/ccP3Scmz.o
                0x0000caf0                load_filesystem
 .text          0x0000cc50      0x3d0 /tmp/ccOQLfcn.o
                0x0000cc50                create_task
                0x0000cd04                delete_task
                0x0000cd80                suspend_task
                0x0000cdc8                resume_task
                0x0000ceb0                task_scheduler
 .text          0x0000d020       0x28 /tmp/ccTt4PtB.o
                0x0000d020                ctx_init
                0x0000d030                enter_load_from_ctx
                0x0000d040                exit_save_to_ctx
 .text          0x0000d048       0xb8 /tmp/ccyLHIO4.o
                0x0000d048                log_init
                0x0000d054                log_close
                0x0000d058                log_print
 .text          0x0000d100      0x9a0 /tmp/ccsWsm70.o
                0x0000d1e8                editor_line_length
                0x0000d250                editor_build_line_offsets
                0x0000d3d8                editor_construct_path
                0x0000d4a8                editCmd
 .text          0x0000daa0      0x388 /tmp/cc4ztU2H.o
                0x0000daa0                editor_render
 *(.text*)
 .text.startup  0x0000de28       0x48 /tmp/ccY7CDUS.o
                0x0000de28                main
 *(.rodata)
 .rodata        0x0000de70       0xb0 /tmp/cclRdlXA.o
 .rodata        0x0000df20        0xc /tmp/ccY7CDUS.o
 .rodata        0x0000df2c       0x59 /tmp/ccQhJvCe.o
 *fill*         0x0000df85        0x3 
 .rodata        0x0000df88      0x310 /tmp/ccJa4kck.o
 .rodata        0x0000e298       0x3e /tmp/ccdCCPVb.o
 *fill*         0x0000e2d6        0x2 
 .rodata        0x0000e2d8       0x20 /tmp/ccu5lXrI.o
 .rodata        0x0000e2f8       0xf0 /tmp/ccZsnRYx.o
 .rodata        0x0000e3e8      0x240 /tmp/cc4hbSfT.o
                0x0000e3e8                shellCommandList
 .rodata        0x0000e628       0x30 /tmp/ccCVFiGZ.o
 .rodata        0x0000e658    0x1318e /tmp/ccFjHutd.o
 *fill*         0x000217e6        0x2 
 .rodata        0x000217e8       0x14 /tmp/cc1sIQc2.o
 .rodata        0x000217fc       0x3e /tmp/cctFKQMT.o
 *fill*         0x0002183a        0x2 
 .rodata        0x0002183c       0x10 /tmp/ccP3Scmz.o
 .rodata        0x0002184c       0x28 /tmp/ccyLHIO4.o
 .rodata        0x00021874       0x10 /tmp/ccsWsm70.o
 *(.rodata*)
 .rodata.str1.4
                0x00021884     0x1dbb /tmp/cclRdlXA.o
                                 0x2f (size before relaxing)
 .rodata.str1.4
                0x0002363f        0x0 /tmp/ccfmoPfP.o
                                 0x6a (size before relaxing)
 .rodata.str1.4
                0x0002363f        0x0 /tmp/ccY7CDUS.o
                                 0x39 (size before relaxing)
 .rodata.str1.4
                0x0002363f        0x0 /tmp/cccBdCHM.o
                                 0xfc (size before relaxing)
 .rodata.str1.4
                0x0002363f        0x0 /tmp/ccQhJvCe.o
                                 0x1e (size before relaxing)
 .rodata.str1.4
                0x0002363f        0x0 /tmp/ccCdo4M0.o
                                 0xb8 (size before relaxing)
 .rodata.str1.4
                0x0002363f        0x0 /tmp/ccJa4kck.o
                                0x5dd (size before relaxing)
 .rodata.str1.4
                0x0002363f        0x0 /tmp/ccdCCPVb.o
                                0x726 (size before relaxing)
 .rodata.str1.4
                0x0002363f        0x0 /tmp/ccu5lXrI.o
                                 0x54 (size before relaxing)
 .rodata.str1.4
                0x0002363f        0x0 /tmp/ccbBEysw.o
                                 0x6b (size before relaxing)
 .rodata.str1.4
                0x0002363f        0x0 /tmp/ccbBtnYF.o
                                 0x1e (size before relaxing)
 .rodata.str1.4
                0x0002363f        0x0 /tmp/cc4hbSfT.o
                                0x273 (size before relaxing)
 .rodata.str1.4
                0x0002363f        0x0 /tmp/ccCVFiGZ.o
                                0x5b6 (size before relaxing)
 .rodata.str1.4
                0x0002363f        0x0 /tmp/cc1sIQc2.o
                                0x11e (size before relaxing)
 .rodata.str1.4
                0x0002363f        0x0 /tmp/cctFKQMT.o
                                 0x88 (size before relaxing)
 .rodata.str1.4
                0x0002363f        0x0 /tmp/ccP3Scmz.o
                                0x11c (size before relaxing)
 .rodata.str1.4
                0x0002363f        0x0 /tmp/ccOQLfcn.o
                                 0x7c (size before relaxing)
 .rodata.str1.4
                0x0002363f        0x0 /tmp/ccyLHIO4.o
                                 0x6e (size before relaxing)
 .rodata.str1.4
                0x0002363f        0x0 /tmp/ccsWsm70.o
                                 0xca (size before relaxing)
 .rodata.str1.4
                0x0002363f        0x0 /tmp/cc4ztU2H.o
                                0x10b (size before relaxing)
 *(.srodata)
 *fill*         0x0002363f        0x1 
 .srodata       0x00023640        0x7 /tmp/ccu5lXrI.o
 *fill*         0x00023647        0x1 
 .srodata       0x00023648        0x2 /tmp/cc4hbSfT.o
                0x00023648                shellCommandCount
 *(.srodata*)
                0x0002364c                        . = ALIGN (0x4)
 *fill*         0x0002364a        0x2 
                0x0002364c                        _etext = .
                0x0002364c                        _sidata = _etext

.rela.dyn       0x0002364c        0x0
 .rela.text     0x0002364c        0x0 /tmp/cc7sF7fF.o

.data           0x30000000       0x7c load address 0x0002364c
                0x30000000                        . = ALIGN (0x4)
                0x30000000                        _sdata = .
                0x30000000                        _ram_start = .
                0x30000000                        . = ALIGN (0x4)
 *(.data)
 .data          0x30000000        0x0 /tmp/cc7sF7fF.o
 .data          0x30000000        0x0 /tmp/ccSODY0y.o
 .data          0x30000000        0x0 /tmp/ccMcsTSx.o
 .data          0x30000000        0x0 /tmp/ccFXvcaD.o
 .data          0x30000000        0x0 /tmp/cccCh0rh.o
 .data          0x30000000        0x0 /tmp/ccvUI6Qk.o
 .data          0x30000000        0x0 /tmp/ccmBRPKn.o
 .data          0x30000000        0x0 /tmp/ccIap2sK.o
 .data          0x30000000        0x0 /tmp/ccoSW0aO.o
 .data          0x30000000        0x0 /tmp/cclRdlXA.o
 .data          0x30000000        0x0 /tmp/ccv4YAA2.o
 .data          0x30000000        0x0 /tmp/cc9VoUni.o
 .data          0x30000000        0x0 /tmp/ccfB4dVU.o
 .data          0x30000000        0x0 /tmp/ccfmoPfP.o
 .data          0x30000000        0x0 /tmp/ccY7CDUS.o
 .data          0x30000000        0x0 /tmp/cccBdCHM.o
 .data          0x30000000        0x0 /tmp/ccQhJvCe.o
 .data          0x30000000        0x0 /tmp/ccocEJ8l.o
 .data          0x30000000        0x0 /tmp/ccCdo4M0.o
 .data          0x30000000        0x0 /tmp/cc72edwV.o
 .data          0x30000000       0x74 /tmp/ccJa4kck.o
 .data          0x30000074        0x0 /tmp/ccdCCPVb.o
 .data          0x30000074        0x0 /tmp/ccu5lXrI.o
 .data          0x30000074        0x0 /tmp/ccZsnRYx.o
 .data          0x30000074        0x0 /tmp/ccbBEysw.o
 .data          0x30000074        0x0 /tmp/ccbBtnYF.o
 .data          0x30000074        0x0 /tmp/cc4hbSfT.o
 .data          0x30000074        0x0 /tmp/ccCVFiGZ.o
 .data          0x30000074        0x0 /tmp/ccu2poIx.o
 .data          0x30000074        0x0 /tmp/ccwgK8en.o
 .data          0x30000074        0x0 /tmp/ccFjHutd.o
 .data          0x30000074        0x0 /tmp/ccOZIReF.o
 .data          0x30000074        0x0 /tmp/cc1sIQc2.o
 .data          0x30000074        0x0 /tmp/cctFKQMT.o
 .data          0x30000074        0x0 /tmp/ccP3Scmz.o
 .data          0x30000074        0x0 /tmp/ccOQLfcn.o
 .data          0x30000074        0x0 /tmp/ccTt4PtB.o
 .data          0x30000074        0x0 /tmp/ccyLHIO4.o
 .data          0x30000074        0x0 /tmp/ccsWsm70.o
 .data          0x30000074        0x0 /tmp/cc4ztU2H.o
 *(.data*)
 *(.sdata)
 .sdata         0x30000074        0x2 /tmp/ccCVFiGZ.o
                0x30000074                pairedChars
 *fill*         0x30000076        0x2 
 .sdata         0x30000078        0x4 /tmp/ccyLHIO4.o
 *(.sdata*)
                0x3000007c                        . = ALIGN (0x4)
                0x3000007c                        _edata = .

.bss            0x3000007c    0x1737c load address 0x000236c8
                0x3000007c                        . = ALIGN (0x4)
                0x3000007c                        _sbss = .
 *(.bss)
 .bss           0x3000007c        0x0 /tmp/cc7sF7fF.o
 .bss           0x3000007c        0x0 /tmp/ccSODY0y.o
 .bss           0x3000007c        0x0 /tmp/ccMcsTSx.o
 .bss           0x3000007c        0x0 /tmp/ccFXvcaD.o
 .bss           0x3000007c        0x0 /tmp/cccCh0rh.o
 .bss           0x3000007c        0x0 /tmp/ccvUI6Qk.o
 .bss           0x3000007c        0x0 /tmp/ccmBRPKn.o
 .bss           0x3000007c        0x0 /tmp/ccIap2sK.o
 .bss           0x3000007c        0x0 /tmp/ccoSW0aO.o
 .bss           0x3000007c        0x0 /tmp/cclRdlXA.o
 .bss           0x3000007c        0x0 /tmp/ccv4YAA2.o
 .bss           0x3000007c        0x0 /tmp/cc9VoUni.o
 .bss           0x3000007c        0x0 /tmp/ccfB4dVU.o
 .bss           0x3000007c        0x0 /tmp/ccfmoPfP.o
 .bss           0x3000007c        0x0 /tmp/ccY7CDUS.o
 .bss           0x3000007c     0x8064 /tmp/cccBdCHM.o
 .bss           0x300080e0        0x0 /tmp/ccQhJvCe.o
 .bss           0x300080e0        0x0 /tmp/ccocEJ8l.o
 .bss           0x300080e0        0x0 /tmp/ccCdo4M0.o
 .bss           0x300080e0        0x0 /tmp/cc72edwV.o
 .bss           0x300080e0      0x105 /tmp/ccJa4kck.o
 .bss           0x300081e5        0x0 /tmp/ccdCCPVb.o
 .bss           0x300081e5        0x0 /tmp/ccu5lXrI.o
 *fill*         0x300081e5        0x3 
 .bss           0x300081e8       0x80 /tmp/ccZsnRYx.o
                0x300081e8                envString
 .bss           0x30008268        0x0 /tmp/ccbBEysw.o
 .bss           0x30008268        0x0 /tmp/ccbBtnYF.o
 .bss           0x30008268        0x0 /tmp/cc4hbSfT.o
 .bss           0x30008268       0x1d /tmp/ccCVFiGZ.o
 *fill*         0x30008285        0x3 
 .bss           0x30008288       0x18 /tmp/ccu2poIx.o
                0x30008288                shellfs
 .bss           0x300082a0        0x0 /tmp/ccwgK8en.o
 .bss           0x300082a0        0x0 /tmp/ccFjHutd.o
 .bss           0x300082a0        0x0 /tmp/ccOZIReF.o
 .bss           0x300082a0        0x0 /tmp/cc1sIQc2.o
 .bss           0x300082a0      0x200 /tmp/cctFKQMT.o
 .bss           0x300084a0     0x2038 /tmp/ccP3Scmz.o
                0x300084a0                work_buf
                0x300094a0                fs_Flash
 .bss           0x3000a4d8      0xbc8 /tmp/ccOQLfcn.o
 .bss           0x3000b0a0        0x0 /tmp/ccTt4PtB.o
 .bss           0x3000b0a0        0x0 /tmp/ccyLHIO4.o
 .bss           0x3000b0a0     0xc320 /tmp/ccsWsm70.o
 .bss           0x300173c0        0x0 /tmp/cc4ztU2H.o
 *(.bss*)
 *(.sbss)
 .sbss          0x300173c0        0xc /tmp/ccfmoPfP.o
 .sbss          0x300173cc        0x4 /tmp/ccocEJ8l.o
 .sbss          0x300173d0       0x10 /tmp/ccZsnRYx.o
                0x300173d0                fnode
                0x300173d4                envFunc
                0x300173d8                envChar
                0x300173da                envShort
                0x300173dc                envInt
 .sbss          0x300173e0        0x4 /tmp/cc1sIQc2.o
 .sbss          0x300173e4        0x8 /tmp/cctFKQMT.o
 .sbss          0x300173ec        0x4 /tmp/ccP3Scmz.o
                0x300173ec                res_Flash
 .sbss          0x300173f0        0x8 /tmp/ccOQLfcn.o
 *(.sbss*)
 *(COMMON)
                0x300173f8                        . = ALIGN (0x4)
                0x300173f8                        _ebss = .

.heap           0x300173f8        0x0
                0x300173f8                        . = ALIGN (0x4)
                0x300173f8                        _heap_start = .

.stack_dummy    0x30020000        0x0
                0x30020000                        PROVIDE (_stack_point = .)
LOAD /tmp/cc7sF7fF.o
LOAD /tmp/ccSODY0y.o
LOAD /tmp/ccMcsTSx.o
LOAD /tmp/ccFXvcaD.o
LOAD /tmp/cccCh0rh.o
LOAD /tmp/ccvUI6Qk.o
LOAD /tmp/ccmBRPKn.o
LOAD /tmp/ccIap2sK.o
LOAD /tmp/ccoSW0aO.o
LOAD /tmp/cclRdlXA.o
LOAD /tmp/ccv4YAA2.o
LOAD /tmp/cc9VoUni.o
LOAD /tmp/ccfB4dVU.o
LOAD /tmp/ccfmoPfP.o
LOAD /tmp/ccY7CDUS.o
LOAD /tmp/cccBdCHM.o
LOAD /tmp/ccQhJvCe.o
LOAD /tmp/ccocEJ8l.o
LOAD /tmp/ccCdo4M0.o
LOAD /tmp/cc72edwV.o
LOAD /tmp/ccJa4kck.o
LOAD /tmp/ccdCCPVb.o
LOAD /tmp/ccu5lXrI.o
LOAD /tmp/ccZsnRYx.o
LOAD /tmp/ccbBEysw.o
LOAD /tmp/ccbBtnYF.o
LOAD /tmp/cc4hbSfT.o
LOAD /tmp/ccCVFiGZ.o
LOAD /tmp/ccu2poIx.o
LOAD /tmp/ccwgK8en.o
LOAD /tmp/ccFjHutd.o
LOAD /tmp/ccOZIReF.o
LOAD /tmp/cc1sIQc2.o
LOAD /tmp/cctFKQMT.o
LOAD /tmp/ccP3Scmz.o
LOAD /tmp/ccOQLfcn.o
LOAD /tmp/ccTt4PtB.o
LOAD /tmp/ccyLHIO4.o
LOAD /tmp/ccsWsm70.o
LOAD /tmp/cc4ztU2H.o
OUTPUT(build/retrosoc_fw elf32-littleriscv)

.riscv.attributes
                0x00000000       0x2a
 .riscv.attributes
                0x00000000       0x28 /tmp/cc7sF7fF.o
 .riscv.attributes
                0x00000028       0x28 /tmp/ccSODY0y.o
 .riscv.attributes
                0x00000050       0x28 /tmp/ccMcsTSx.o
 .riscv.attributes
                0x00000078       0x2a /tmp/ccFXvcaD.o
 .riscv.attributes
                0x000000a2       0x2a /tmp/cccCh0rh.o
 .riscv.attributes
                0x000000cc       0x2a /tmp/ccvUI6Qk.o
 .riscv.attributes
                0x000000f6       0x2a /tmp/ccmBRPKn.o
 .riscv.attributes
                0x00000120       0x2a /tmp/ccIap2sK.o
 .riscv.attributes
                0x0000014a       0x2a /tmp/ccoSW0aO.o
 .riscv.attributes
                0x00000174       0x2a /tmp/cclRdlXA.o
 .riscv.attributes
                0x0000019e       0x2a /tmp/ccv4YAA2.o
 .riscv.attributes
                0x000001c8       0x2a /tmp/cc9VoUni.o
 .riscv.attributes
                0x000001f2       0x2a /tmp/ccfB4dVU.o
 .riscv.attributes
                0x0000021c       0x2a /tmp/ccfmoPfP.o
 .riscv.attributes
                0x00000246       0x2a /tmp/ccY7CDUS.o
 .riscv.attributes
                0x00000270       0x2a /tmp/cccBdCHM.o
 .riscv.attributes
                0x0000029a       0x2a /tmp/ccQhJvCe.o
 .riscv.attributes
                0x000002c4       0x2a /tmp/ccocEJ8l.o
 .riscv.attributes
                0x000002ee       0x2a /tmp/ccCdo4M0.o
 .riscv.attributes
                0x00000318       0x2a /tmp/cc72edwV.o
 .riscv.attributes
                0x00000342       0x2a /tmp/ccJa4kck.o
 .riscv.attributes
                0x0000036c       0x2a /tmp/ccdCCPVb.o
 .riscv.attributes
                0x00000396       0x2a /tmp/ccu5lXrI.o
 .riscv.attributes
                0x000003c0       0x2a /tmp/ccZsnRYx.o
 .riscv.attributes
                0x000003ea       0x2a /tmp/ccbBEysw.o
 .riscv.attributes
                0x00000414       0x2a /tmp/ccbBtnYF.o
 .riscv.attributes
                0x0000043e       0x2a /tmp/cc4hbSfT.o
 .riscv.attributes
                0x00000468       0x2a /tmp/ccCVFiGZ.o
 .riscv.attributes
                0x00000492       0x2a /tmp/ccu2poIx.o
 .riscv.attributes
                0x000004bc       0x2a /tmp/ccwgK8en.o
 .riscv.attributes
                0x000004e6       0x2a /tmp/ccFjHutd.o
 .riscv.attributes
                0x00000510       0x2a /tmp/ccOZIReF.o
 .riscv.attributes
                0x0000053a       0x2a /tmp/cc1sIQc2.o
 .riscv.attributes
                0x00000564       0x2a /tmp/cctFKQMT.o
 .riscv.attributes
                0x0000058e       0x2a /tmp/ccP3Scmz.o
 .riscv.attributes
                0x000005b8       0x2a /tmp/ccOQLfcn.o
 .riscv.attributes
                0x000005e2       0x2a /tmp/ccTt4PtB.o
 .riscv.attributes
                0x0000060c       0x2a /tmp/ccyLHIO4.o
 .riscv.attributes
                0x00000636       0x2a /tmp/ccsWsm70.o
 .riscv.attributes
                0x00000660       0x2a /tmp/cc4ztU2H.o

.comment        0x00000000       0x19
 .comment       0x00000000       0x19 /tmp/ccFXvcaD.o
                                 0x1a (size before relaxing)
 .comment       0x00000019        0x0 /tmp/cccCh0rh.o
                                 0x1a (size before relaxing)
 .comment       0x00000019        0x0 /tmp/ccvUI6Qk.o
                                 0x1a (size before relaxing)
 .comment       0x00000019        0x0 /tmp/ccmBRPKn.o
                                 0x1a (size before relaxing)
 .comment       0x00000019        0x0 /tmp/ccIap2sK.o
                                 0x1a (size before relaxing)
 .comment       0x00000019        0x0 /tmp/ccoSW0aO.o
                                 0x1a (size before relaxing)
 .comment       0x00000019        0x0 /tmp/cclRdlXA.o
                                 0x1a (size before relaxing)
 .comment       0x00000019        0x0 /tmp/ccv4YAA2.o
                                 0x1a (size before relaxing)
 .comment       0x00000019        0x0 /tmp/cc9VoUni.o
                                 0x1a (size before relaxing)
 .comment       0x00000019        0x0 /tmp/ccfB4dVU.o
                                 0x1a (size before relaxing)
 .comment       0x00000019        0x0 /tmp/ccfmoPfP.o
                                 0x1a (size before relaxing)
 .comment       0x00000019        0x0 /tmp/ccY7CDUS.o
                                 0x1a (size before relaxing)
 .comment       0x00000019        0x0 /tmp/cccBdCHM.o
                                 0x1a (size before relaxing)
 .comment       0x00000019        0x0 /tmp/ccQhJvCe.o
                                 0x1a (size before relaxing)
 .comment       0x00000019        0x0 /tmp/ccocEJ8l.o
                                 0x1a (size before relaxing)
 .comment       0x00000019        0x0 /tmp/ccCdo4M0.o
                                 0x1a (size before relaxing)
 .comment       0x00000019        0x0 /tmp/cc72edwV.o
                                 0x1a (size before relaxing)
 .comment       0x00000019        0x0 /tmp/ccJa4kck.o
                                 0x1a (size before relaxing)
 .comment       0x00000019        0x0 /tmp/ccdCCPVb.o
                                 0x1a (size before relaxing)
 .comment       0x00000019        0x0 /tmp/ccu5lXrI.o
                                 0x1a (size before relaxing)
 .comment       0x00000019        0x0 /tmp/ccZsnRYx.o
                                 0x1a (size before relaxing)
 .comment       0x00000019        0x0 /tmp/ccbBEysw.o
                                 0x1a (size before relaxing)
 .comment       0x00000019        0x0 /tmp/ccbBtnYF.o
                                 0x1a (size before relaxing)
 .comment       0x00000019        0x0 /tmp/cc4hbSfT.o
                                 0x1a (size before relaxing)
 .comment       0x00000019        0x0 /tmp/ccCVFiGZ.o
                                 0x1a (size before relaxing)
 .comment       0x00000019        0x0 /tmp/ccu2poIx.o
                                 0x1a (size before relaxing)
 .comment       0x00000019        0x0 /tmp/ccwgK8en.o
                                 0x1a (size before relaxing)
 .comment       0x00000019        0x0 /tmp/ccFjHutd.o
                                 0x1a (size before relaxing)
 .comment       0x00000019        0x0 /tmp/ccOZIReF.o
                                 0x1a (size before relaxing)
 .comment       0x00000019        0x0 /tmp/cc1sIQc2.o
                                 0x1a (size before relaxing)
 .comment       0x00000019        0x0 /tmp/cctFKQMT.o
                                 0x1a (size before relaxing)
 .comment       0x00000019        0x0 /tmp/ccP3Scmz.o
                                 0x1a (size before relaxing)
 .comment       0x00000019        0x0 /tmp/ccOQLfcn.o
                                 0x1a (size before relaxing)
 .comment       0x00000019        0x0 /tmp/ccTt4PtB.o
                                 0x1a (size before relaxing)
 .comment       0x00000019        0x0 /tmp/ccyLHIO4.o
                                 0x1a (size before relaxing)
 .comment       0x00000019        0x0 /tmp/ccsWsm70.o
                                 0x1a (size before relaxing)
 .comment       0x00000019        0x0 /tmp/cc4ztU2H.o
                                 0x1a (size before relaxing)

.note.GNU-stack
                0x00000000        0x0
 .note.GNU-stack
                0x00000000        0x0 /tmp/ccFXvcaD.o
 .note.GNU-stack
                0x00000000        0x0 /tmp/cccCh0rh.o
 .note.GNU-stack
                0x00000000        0x0 /tmp/ccvUI6Qk.o
 .note.GNU-stack
                0x00000000        0x0 /tmp/ccmBRPKn.o
 .note.GNU-stack
                0x00000000        0x0 /tmp/ccIap2sK.o
 .note.GNU-stack
                0x00000000        0x0 /tmp/ccoSW0aO.o
 .note.GNU-stack
                0x00000000        0x0 /tmp/cclRdlXA.o
 .note.GNU-stack
                0x00000000        0x0 /tmp/ccv4YAA2.o
 .note.GNU-stack
                0x00000000        0x0 /tmp/cc9VoUni.o
 .note.GNU-stack
                0x00000000        0x0 /tmp/ccfB4dVU.o
 .note.GNU-stack
                0x00000000        0x0 /tmp/ccfmoPfP.o
 .note.GNU-stack
                0x00000000        0x0 /tmp/ccY7CDUS.o
 .note.GNU-stack
                0x00000000        0x0 /tmp/cccBdCHM.o
 .note.GNU-stack
                0x00000000        0x0 /tmp/ccQhJvCe.o
 .note.GNU-stack
                0x00000000        0x0 /tmp/ccocEJ8l.o
 .note.GNU-stack
                0x00000000        0x0 /tmp/ccCdo4M0.o
 .note.GNU-stack
                0x00000000        0x0 /tmp/cc72edwV.o
 .note.GNU-stack
                0x00000000        0x0 /tmp/ccJa4kck.o
 .note.GNU-stack
                0x00000000        0x0 /tmp/ccdCCPVb.o
 .note.GNU-stack
                0x00000000        0x0 /tmp/ccu5lXrI.o
 .note.GNU-stack
                0x00000000        0x0 /tmp/ccZsnRYx.o
 .note.GNU-stack
                0x00000000        0x0 /tmp/ccbBEysw.o
 .note.GNU-stack
                0x00000000        0x0 /tmp/ccbBtnYF.o
 .note.GNU-stack
                0x00000000        0x0 /tmp/cc4hbSfT.o
 .note.GNU-stack
                0x00000000        0x0 /tmp/ccCVFiGZ.o
 .note.GNU-stack
                0x00000000        0x0 /tmp/ccu2poIx.o
 .note.GNU-stack
                0x00000000        0x0 /tmp/ccwgK8en.o
 .note.GNU-stack
                0x00000000        0x0 /tmp/ccFjHutd.o
 .note.GNU-stack
                0x00000000        0x0 /tmp/ccOZIReF.o
 .note.GNU-stack
                0x00000000        0x0 /tmp/cc1sIQc2.o
 .note.GNU-stack
                0x00000000        0x0 /tmp/cctFKQMT.o
 .note.GNU-stack
                0x00000000        0x0 /tmp/ccP3Scmz.o
 .note.GNU-stack
                0x00000000        0x0 /tmp/ccOQLfcn.o
 .note.GNU-stack
                0x00000000        0x0 /tmp/ccTt4PtB.o
 .note.GNU-stack
                0x00000000        0x0 /tmp/ccyLHIO4.o
 .note.GNU-stack
                0x00000000        0x0 /tmp/ccsWsm70.o
 .note.GNU-stack
                0x00000000        0x0 /tmp/cc4ztU2H.o

Cross Reference Table

Symbol                                            File
MYSPI_Init                                        /tmp/ccwgK8en.o
MYSPI_Start                                       /tmp/ccwgK8en.o
MYSPI_Stop                                        /tmp/ccwgK8en.o
MYSPI_SwapByte                                    /tmp/ccwgK8en.o
__divsi3                                          /tmp/ccMcsTSx.o
__lshrdi3                                         /tmp/ccoSW0aO.o
__modsi3                                          /tmp/ccMcsTSx.o
__muldi3                                          /tmp/ccSODY0y.o
__mulsi3                                          /tmp/ccIap2sK.o
__udivsi3                                         /tmp/ccMcsTSx.o
__umodsi3                                         /tmp/ccMcsTSx.o
_ebss                                             /tmp/cc7sF7fF.o
_edata                                            /tmp/cc7sF7fF.o
_sbss                                             /tmp/cc7sF7fF.o
_sdata                                            /tmp/cc7sF7fF.o
_sidata                                           /tmp/cc7sF7fF.o
_stack_point                                      /tmp/cc7sF7fF.o
agencyshellRun                                    /tmp/cc4hbSfT.o
cg_add                                            /tmp/ccocEJ8l.o
cg_add_op                                         /tmp/ccocEJ8l.o
                                                  /tmp/ccCdo4M0.o
cg_addi                                           /tmp/ccocEJ8l.o
cg_beq                                            /tmp/ccocEJ8l.o
cg_bge                                            /tmp/ccocEJ8l.o
cg_blt                                            /tmp/ccocEJ8l.o
cg_bne                                            /tmp/ccocEJ8l.o
cg_div                                            /tmp/ccocEJ8l.o
cg_div_op                                         /tmp/ccocEJ8l.o
                                                  /tmp/ccCdo4M0.o
cg_epilogue                                       /tmp/ccocEJ8l.o
                                                  /tmp/ccCdo4M0.o
cg_jal                                            /tmp/ccocEJ8l.o
cg_jalr                                           /tmp/ccocEJ8l.o
cg_li                                             /tmp/ccocEJ8l.o
cg_lui                                            /tmp/ccocEJ8l.o
cg_lw                                             /tmp/ccocEJ8l.o
cg_mul                                            /tmp/ccocEJ8l.o
cg_mul_op                                         /tmp/ccocEJ8l.o
                                                  /tmp/ccCdo4M0.o
cg_neg_op                                         /tmp/ccocEJ8l.o
                                                  /tmp/ccCdo4M0.o
cg_pop                                            /tmp/ccocEJ8l.o
                                                  /tmp/ccCdo4M0.o
cg_prologue                                       /tmp/ccocEJ8l.o
                                                  /tmp/ccCdo4M0.o
cg_push_imm                                       /tmp/ccocEJ8l.o
                                                  /tmp/ccCdo4M0.o
cg_rem                                            /tmp/ccocEJ8l.o
cg_rem_op                                         /tmp/ccocEJ8l.o
                                                  /tmp/ccCdo4M0.o
cg_sub                                            /tmp/ccocEJ8l.o
cg_sub_op                                         /tmp/ccocEJ8l.o
                                                  /tmp/ccCdo4M0.o
cg_sw                                             /tmp/ccocEJ8l.o
chdir                                             /tmp/ccZsnRYx.o
                                                  /tmp/ccbBEysw.o
codegen_init                                      /tmp/ccocEJ8l.o
                                                  /tmp/ccCdo4M0.o
create_shell_env_varible                          /tmp/ccZsnRYx.o
                                                  /tmp/ccY7CDUS.o
create_task                                       /tmp/ccOQLfcn.o
createfile                                        /tmp/ccZsnRYx.o
                                                  /tmp/ccbBEysw.o
ctx_init                                          /tmp/ccTt4PtB.o
                                                  /tmp/ccOQLfcn.o
delay_ms                                          /tmp/ccmBRPKn.o
delete_task                                       /tmp/ccOQLfcn.o
disk_initialize                                   /tmp/cc1sIQc2.o
                                                  /tmp/cctFKQMT.o
disk_ioctl                                        /tmp/cc1sIQc2.o
                                                  /tmp/cctFKQMT.o
disk_read                                         /tmp/cc1sIQc2.o
                                                  /tmp/cctFKQMT.o
disk_status                                       /tmp/cc1sIQc2.o
                                                  /tmp/cctFKQMT.o
disk_write                                        /tmp/cc1sIQc2.o
                                                  /tmp/cctFKQMT.o
easy_print                                        /tmp/ccY7CDUS.o
editCmd                                           /tmp/ccsWsm70.o
                                                  /tmp/cc4hbSfT.o
editor_build_line_offsets                         /tmp/ccsWsm70.o
editor_construct_path                             /tmp/ccsWsm70.o
editor_line_length                                /tmp/ccsWsm70.o
                                                  /tmp/cc4ztU2H.o
editor_render                                     /tmp/cc4ztU2H.o
                                                  /tmp/ccsWsm70.o
enter_load_from_ctx                               /tmp/ccTt4PtB.o
                                                  /tmp/ccOQLfcn.o
envChar                                           /tmp/ccZsnRYx.o
                                                  /tmp/cc4hbSfT.o
envFunc                                           /tmp/ccZsnRYx.o
                                                  /tmp/cc4hbSfT.o
envInt                                            /tmp/ccZsnRYx.o
                                                  /tmp/cc4hbSfT.o
envShort                                          /tmp/ccZsnRYx.o
                                                  /tmp/cc4hbSfT.o
envString                                         /tmp/ccZsnRYx.o
                                                  /tmp/cc4hbSfT.o
exec_func                                         /tmp/ccZsnRYx.o
exit_save_to_ctx                                  /tmp/ccTt4PtB.o
                                                  /tmp/ccOQLfcn.o
f_chdir                                           /tmp/cctFKQMT.o
                                                  /tmp/ccZsnRYx.o
f_chdrive                                         /tmp/cctFKQMT.o
f_close                                           /tmp/cctFKQMT.o
                                                  /tmp/ccsWsm70.o
                                                  /tmp/ccZsnRYx.o
                                                  /tmp/cccBdCHM.o
f_closedir                                        /tmp/cctFKQMT.o
                                                  /tmp/ccZsnRYx.o
f_getcwd                                          /tmp/cctFKQMT.o
                                                  /tmp/ccZsnRYx.o
f_getfree                                         /tmp/cctFKQMT.o
f_gets                                            /tmp/cctFKQMT.o
f_lseek                                           /tmp/cctFKQMT.o
f_mkdir                                           /tmp/cctFKQMT.o
f_mkfs                                            /tmp/cctFKQMT.o
                                                  /tmp/ccP3Scmz.o
f_mount                                           /tmp/cctFKQMT.o
                                                  /tmp/ccP3Scmz.o
f_open                                            /tmp/cctFKQMT.o
                                                  /tmp/ccsWsm70.o
                                                  /tmp/ccZsnRYx.o
                                                  /tmp/cccBdCHM.o
f_opendir                                         /tmp/cctFKQMT.o
                                                  /tmp/ccZsnRYx.o
f_printf                                          /tmp/cctFKQMT.o
f_putc                                            /tmp/cctFKQMT.o
f_puts                                            /tmp/cctFKQMT.o
f_read                                            /tmp/cctFKQMT.o
                                                  /tmp/ccsWsm70.o
                                                  /tmp/cccBdCHM.o
f_readdir                                         /tmp/cctFKQMT.o
                                                  /tmp/ccZsnRYx.o
f_rename                                          /tmp/cctFKQMT.o
f_stat                                            /tmp/cctFKQMT.o
f_sync                                            /tmp/cctFKQMT.o
f_truncate                                        /tmp/cctFKQMT.o
f_unlink                                          /tmp/cctFKQMT.o
f_write                                           /tmp/cctFKQMT.o
                                                  /tmp/ccsWsm70.o
fccCmd                                            /tmp/cccBdCHM.o
                                                  /tmp/cc4hbSfT.o
fcc_compile                                       /tmp/ccCdo4M0.o
                                                  /tmp/cccBdCHM.o
ff_oem2uni                                        /tmp/ccFjHutd.o
                                                  /tmp/cctFKQMT.o
ff_uni2oem                                        /tmp/ccFjHutd.o
                                                  /tmp/cctFKQMT.o
ff_wtoupper                                       /tmp/ccFjHutd.o
                                                  /tmp/cctFKQMT.o
fnode                                             /tmp/ccZsnRYx.o
fs_Flash                                          /tmp/ccP3Scmz.o
getcwd                                            /tmp/ccZsnRYx.o
                                                  /tmp/ccbBEysw.o
gpio_hal_get_level                                /tmp/ccfmoPfP.o
                                                  /tmp/ccwgK8en.o
gpio_hal_input_enable                             /tmp/ccfmoPfP.o
                                                  /tmp/ccwgK8en.o
gpio_hal_output_enable                            /tmp/ccfmoPfP.o
                                                  /tmp/ccwgK8en.o
gpio_hal_read_update                              /tmp/ccfmoPfP.o
                                                  /tmp/ccwgK8en.o
gpio_hal_set_fcfg                                 /tmp/ccfmoPfP.o
gpio_hal_set_level                                /tmp/ccfmoPfP.o
                                                  /tmp/ccwgK8en.o
gpio_hal_set_mux                                  /tmp/ccfmoPfP.o
gpio_hal_write_update                             /tmp/ccfmoPfP.o
                                                  /tmp/ccwgK8en.o
hal_delay_ms                                      /tmp/ccmBRPKn.o
hal_delay_s                                       /tmp/ccmBRPKn.o
hal_delay_us                                      /tmp/ccmBRPKn.o
                                                  /tmp/ccfmoPfP.o
hal_get_sys_tick                                  /tmp/ccmBRPKn.o
hal_hp_uart_config                                /tmp/cccCh0rh.o
hal_hp_uart_init                                  /tmp/cccCh0rh.o
hal_hp_uart_putstr                                /tmp/cccCh0rh.o
hal_hp_uart_recv                                  /tmp/cccCh0rh.o
hal_hp_uart_recv_str                              /tmp/cccCh0rh.o
hal_hp_uart_send                                  /tmp/cccCh0rh.o
hal_i2c_deinit                                    /tmp/ccfB4dVU.o
hal_i2c_init                                      /tmp/ccfB4dVU.o
hal_i2c_read_nbyte                                /tmp/ccfB4dVU.o
hal_i2c_write_nbyte                               /tmp/ccfB4dVU.o
hal_qspi_deinit                                   /tmp/cc9VoUni.o
hal_qspi_init                                     /tmp/cc9VoUni.o
                                                  /tmp/cc72edwV.o
hal_qspi_read                                     /tmp/cc9VoUni.o
                                                  /tmp/cc72edwV.o
hal_qspi_send_cmd                                 /tmp/cc9VoUni.o
                                                  /tmp/cc72edwV.o
hal_qspi_write                                    /tmp/cc9VoUni.o
                                                  /tmp/cc72edwV.o
hal_qspi_write_16                                 /tmp/cc9VoUni.o
hal_qspi_write_16_cs                              /tmp/cc9VoUni.o
hal_qspi_write_32                                 /tmp/cc9VoUni.o
hal_qspi_write_32_cs                              /tmp/cc9VoUni.o
hal_qspi_write_32x16                              /tmp/cc9VoUni.o
hal_qspi_write_32x16_cs                           /tmp/cc9VoUni.o
hal_qspi_write_32x2                               /tmp/cc9VoUni.o
hal_qspi_write_32x2_cs                            /tmp/cc9VoUni.o
hal_qspi_write_32x32                              /tmp/cc9VoUni.o
hal_qspi_write_32x32_cs                           /tmp/cc9VoUni.o
hal_qspi_write_32x8                               /tmp/cc9VoUni.o
hal_qspi_write_32x8_cs                            /tmp/cc9VoUni.o
hal_qspi_write_8                                  /tmp/cc9VoUni.o
hal_qspi_write_8_cs                               /tmp/cc9VoUni.o
hal_sys_getchar                                   /tmp/ccv4YAA2.o
                                                  /tmp/ccsWsm70.o
                                                  /tmp/ccZsnRYx.o
hal_sys_putchar                                   /tmp/ccv4YAA2.o
                                                  /tmp/cc4ztU2H.o
                                                  /tmp/ccZsnRYx.o
                                                  /tmp/cclRdlXA.o
hal_sys_putstr                                    /tmp/ccv4YAA2.o
hal_sys_tick_init                                 /tmp/ccmBRPKn.o
hal_sys_uart_init                                 /tmp/ccv4YAA2.o
                                                  /tmp/ccY7CDUS.o
lexer_init                                        /tmp/ccQhJvCe.o
                                                  /tmp/cccBdCHM.o
lexer_next                                        /tmp/ccQhJvCe.o
                                                  /tmp/ccCdo4M0.o
listdir                                           /tmp/ccZsnRYx.o
                                                  /tmp/ccbBEysw.o
load_filesystem                                   /tmp/ccP3Scmz.o
                                                  /tmp/ccbBEysw.o
load_shell                                        /tmp/ccbBEysw.o
                                                  /tmp/ccY7CDUS.o
log_close                                         /tmp/ccyLHIO4.o
log_init                                          /tmp/ccyLHIO4.o
log_print                                         /tmp/ccyLHIO4.o
                                                  /tmp/ccP3Scmz.o
                                                  /tmp/cctFKQMT.o
                                                  /tmp/cc1sIQc2.o
                                                  /tmp/ccZsnRYx.o
                                                  /tmp/ccu5lXrI.o
                                                  /tmp/ccdCCPVb.o
                                                  /tmp/ccJa4kck.o
                                                  /tmp/ccfmoPfP.o
main                                              /tmp/ccY7CDUS.o
                                                  /tmp/cc7sF7fF.o
memcmp                                            /tmp/ccFXvcaD.o
                                                  /tmp/cctFKQMT.o
memcpy                                            /tmp/ccFXvcaD.o
                                                  /tmp/ccTt4PtB.o
                                                  /tmp/ccOQLfcn.o
                                                  /tmp/ccP3Scmz.o
                                                  /tmp/cctFKQMT.o
                                                  /tmp/ccu2poIx.o
                                                  /tmp/ccCVFiGZ.o
                                                  /tmp/ccJa4kck.o
                                                  /tmp/ccY7CDUS.o
memmove                                           /tmp/ccFXvcaD.o
                                                  /tmp/ccsWsm70.o
memset                                            /tmp/ccFXvcaD.o
                                                  /tmp/ccsWsm70.o
                                                  /tmp/ccTt4PtB.o
                                                  /tmp/ccOQLfcn.o
                                                  /tmp/cctFKQMT.o
                                                  /tmp/ccbBEysw.o
                                                  /tmp/ccu5lXrI.o
                                                  /tmp/ccdCCPVb.o
                                                  /tmp/cccBdCHM.o
pairedChars                                       /tmp/ccCVFiGZ.o
printf                                            /tmp/cclRdlXA.o
                                                  /tmp/cc4ztU2H.o
                                                  /tmp/ccsWsm70.o
                                                  /tmp/ccyLHIO4.o
                                                  /tmp/ccOQLfcn.o
                                                  /tmp/ccP3Scmz.o
                                                  /tmp/ccbBEysw.o
                                                  /tmp/ccCdo4M0.o
                                                  /tmp/cccBdCHM.o
                                                  /tmp/ccY7CDUS.o
pwm_hal_disable                                   /tmp/ccvUI6Qk.o
pwm_hal_enable                                    /tmp/ccvUI6Qk.o
pwm_hal_init                                      /tmp/ccvUI6Qk.o
pwm_hal_set_compare                               /tmp/ccvUI6Qk.o
res_Flash                                         /tmp/ccP3Scmz.o
resume_task                                       /tmp/ccOQLfcn.o
set_fnode                                         /tmp/ccZsnRYx.o
                                                  /tmp/ccY7CDUS.o
sfud_chip_erase                                   /tmp/ccJa4kck.o
sfud_device_init                                  /tmp/ccJa4kck.o
sfud_erase                                        /tmp/ccJa4kck.o
sfud_erase_write                                  /tmp/ccJa4kck.o
                                                  /tmp/cc1sIQc2.o
sfud_get_device                                   /tmp/ccJa4kck.o
sfud_get_device_num                               /tmp/ccJa4kck.o
sfud_get_device_table                             /tmp/ccJa4kck.o
                                                  /tmp/cc1sIQc2.o
sfud_init                                         /tmp/ccJa4kck.o
                                                  /tmp/cc1sIQc2.o
sfud_read                                         /tmp/ccJa4kck.o
                                                  /tmp/cc1sIQc2.o
sfud_read_sfdp                                    /tmp/ccdCCPVb.o
                                                  /tmp/ccJa4kck.o
sfud_read_status                                  /tmp/ccJa4kck.o
                                                  /tmp/cc1sIQc2.o
sfud_sfdp_get_suitable_eraser                     /tmp/ccdCCPVb.o
                                                  /tmp/ccJa4kck.o
sfud_spi_port_init                                /tmp/cc72edwV.o
                                                  /tmp/ccJa4kck.o
sfud_write                                        /tmp/ccJa4kck.o
sfud_write_status                                 /tmp/ccJa4kck.o
shellBackspace                                    /tmp/ccCVFiGZ.o
                                                  /tmp/cc4hbSfT.o
shellCD                                           /tmp/ccbBtnYF.o
                                                  /tmp/cc4hbSfT.o
shellCheckPermission                              /tmp/ccCVFiGZ.o
shellClear                                        /tmp/ccCVFiGZ.o
                                                  /tmp/cc4hbSfT.o
shellClearCommandLine                             /tmp/ccCVFiGZ.o
shellCmds                                         /tmp/ccCVFiGZ.o
                                                  /tmp/cc4hbSfT.o
shellCommandCount                                 /tmp/cc4hbSfT.o
                                                  /tmp/ccCVFiGZ.o
shellCommandList                                  /tmp/cc4hbSfT.o
                                                  /tmp/ccCVFiGZ.o
shellCompanionAdd                                 /tmp/ccu2poIx.o
                                                  /tmp/ccbBEysw.o
shellCompanionDel                                 /tmp/ccu2poIx.o
shellCompanionGet                                 /tmp/ccu2poIx.o
                                                  /tmp/ccbBtnYF.o
shellDelete                                       /tmp/ccCVFiGZ.o
                                                  /tmp/cc4hbSfT.o
shellDeleteByte                                   /tmp/ccCVFiGZ.o
shellDeleteCommandLine                            /tmp/ccCVFiGZ.o
shellDown                                         /tmp/ccCVFiGZ.o
                                                  /tmp/cc4hbSfT.o
shellEnter                                        /tmp/ccCVFiGZ.o
                                                  /tmp/cc4hbSfT.o
shellExec                                         /tmp/ccCVFiGZ.o
shellExecute                                      /tmp/ccCVFiGZ.o
                                                  /tmp/cc4hbSfT.o
shellExtParsePara                                 /tmp/ccu5lXrI.o
                                                  /tmp/ccCVFiGZ.o
shellExtRun                                       /tmp/ccu5lXrI.o
                                                  /tmp/ccCVFiGZ.o
shellFsInit                                       /tmp/ccbBtnYF.o
                                                  /tmp/ccbBEysw.o
shellGetCurrent                                   /tmp/ccCVFiGZ.o
                                                  /tmp/ccsWsm70.o
                                                  /tmp/cc4hbSfT.o
                                                  /tmp/ccbBtnYF.o
                                                  /tmp/cccBdCHM.o
shellGetVarValue                                  /tmp/ccCVFiGZ.o
                                                  /tmp/ccu5lXrI.o
shellHandler                                      /tmp/ccCVFiGZ.o
shellHelp                                         /tmp/ccCVFiGZ.o
                                                  /tmp/cc4hbSfT.o
shellInit                                         /tmp/ccCVFiGZ.o
                                                  /tmp/ccbBEysw.o
shellInsertByte                                   /tmp/ccCVFiGZ.o
shellKeys                                         /tmp/ccCVFiGZ.o
                                                  /tmp/cc4hbSfT.o
shellLS                                           /tmp/ccbBtnYF.o
                                                  /tmp/cc4hbSfT.o
shellLeft                                         /tmp/ccCVFiGZ.o
                                                  /tmp/cc4hbSfT.o
shellListAll                                      /tmp/ccCVFiGZ.o
shellListCommand                                  /tmp/ccCVFiGZ.o
shellListItem                                     /tmp/ccCVFiGZ.o
shellListKey                                      /tmp/ccCVFiGZ.o
shellListUser                                     /tmp/ccCVFiGZ.o
shellListVar                                      /tmp/ccCVFiGZ.o
shellNormalInput                                  /tmp/ccCVFiGZ.o
shellPrint                                        /tmp/ccCVFiGZ.o
shellRead                                         /tmp/ccZsnRYx.o
                                                  /tmp/ccbBEysw.o
shellRemove                                       /tmp/ccCVFiGZ.o
shellRight                                        /tmp/ccCVFiGZ.o
                                                  /tmp/cc4hbSfT.o
shellRun                                          /tmp/ccCVFiGZ.o
                                                  /tmp/cc4hbSfT.o
shellRunCommand                                   /tmp/ccCVFiGZ.o
shellSeekCommand                                  /tmp/ccCVFiGZ.o
                                                  /tmp/ccu5lXrI.o
shellSetUser                                      /tmp/ccCVFiGZ.o
shellSetVar                                       /tmp/ccCVFiGZ.o
                                                  /tmp/cc4hbSfT.o
shellSetVarValue                                  /tmp/ccCVFiGZ.o
shellSplit                                        /tmp/ccCVFiGZ.o
shellTOUCH                                        /tmp/ccbBtnYF.o
                                                  /tmp/cc4hbSfT.o
shellTab                                          /tmp/ccCVFiGZ.o
                                                  /tmp/cc4hbSfT.o
shellTask                                         /tmp/ccCVFiGZ.o
                                                  /tmp/ccbBEysw.o
shellToDec                                        /tmp/ccCVFiGZ.o
shellToHex                                        /tmp/ccCVFiGZ.o
shellUp                                           /tmp/ccCVFiGZ.o
                                                  /tmp/cc4hbSfT.o
shellUsers                                        /tmp/ccCVFiGZ.o
                                                  /tmp/cc4hbSfT.o
shellVars                                         /tmp/ccCVFiGZ.o
                                                  /tmp/cc4hbSfT.o
shellWrite                                        /tmp/ccZsnRYx.o
                                                  /tmp/ccbBEysw.o
shellWriteString                                  /tmp/ccCVFiGZ.o
                                                  /tmp/ccbBtnYF.o
shellfs                                           /tmp/ccu2poIx.o
snprintf                                          /tmp/cclRdlXA.o
                                                  /tmp/cc4ztU2H.o
                                                  /tmp/ccsWsm70.o
                                                  /tmp/ccZsnRYx.o
                                                  /tmp/ccCdo4M0.o
                                                  /tmp/cccBdCHM.o
strchr                                            /tmp/ccFXvcaD.o
                                                  /tmp/cctFKQMT.o
strcmp                                            /tmp/ccFXvcaD.o
                                                  /tmp/ccCVFiGZ.o
                                                  /tmp/ccQhJvCe.o
strcpy                                            /tmp/ccFXvcaD.o
                                                  /tmp/ccZsnRYx.o
strlen                                            /tmp/ccFXvcaD.o
                                                  /tmp/ccsWsm70.o
                                                  /tmp/ccCVFiGZ.o
                                                  /tmp/ccZsnRYx.o
                                                  /tmp/ccQhJvCe.o
                                                  /tmp/cccBdCHM.o
strncmp                                           /tmp/ccFXvcaD.o
                                                  /tmp/ccCVFiGZ.o
strncpy                                           /tmp/ccFXvcaD.o
                                                  /tmp/ccQhJvCe.o
suspend_task                                      /tmp/ccOQLfcn.o
task_scheduler                                    /tmp/ccOQLfcn.o
vprintf                                           /tmp/cclRdlXA.o
                                                  /tmp/ccyLHIO4.o
vsnprintf                                         /tmp/cclRdlXA.o
                                                  /tmp/ccCVFiGZ.o
work_buf                                          /tmp/ccP3Scmz.o
