
Discarded input sections

 .debug_line    0x00000000      0x163 /tmp/ccy0D5yk.o
 .debug_line_str
                0x00000000       0x22 /tmp/ccy0D5yk.o
 .debug_info    0x00000000       0x25 /tmp/ccy0D5yk.o
 .debug_abbrev  0x00000000       0x14 /tmp/ccy0D5yk.o
 .debug_aranges
                0x00000000       0x20 /tmp/ccy0D5yk.o
 .debug_str     0x00000000       0x2e /tmp/ccy0D5yk.o
 .debug_line    0x00000000       0x7a /tmp/cczkFiPk.o
 .debug_line_str
                0x00000000       0x23 /tmp/cczkFiPk.o
 .debug_info    0x00000000       0x31 /tmp/cczkFiPk.o
 .debug_abbrev  0x00000000       0x28 /tmp/cczkFiPk.o
 .debug_aranges
                0x00000000       0x20 /tmp/cczkFiPk.o
 .debug_str     0x00000000       0x38 /tmp/cczkFiPk.o
 .debug_line    0x00000000      0x152 /tmp/cc8d1zc9.o
 .debug_line_str
                0x00000000       0x20 /tmp/cc8d1zc9.o
 .debug_info    0x00000000       0x54 /tmp/cc8d1zc9.o
 .debug_abbrev  0x00000000       0x28 /tmp/cc8d1zc9.o
 .debug_aranges
                0x00000000       0x20 /tmp/cc8d1zc9.o
 .debug_str     0x00000000       0x52 /tmp/cc8d1zc9.o
 .debug_info    0x00000000      0x446 /tmp/ccBivL5y.o
 .debug_abbrev  0x00000000      0x10d /tmp/ccBivL5y.o
 .debug_loclists
                0x00000000      0x66a /tmp/ccBivL5y.o
 .debug_aranges
                0x00000000       0x20 /tmp/ccBivL5y.o
 .debug_line    0x00000000      0x514 /tmp/ccBivL5y.o
 .debug_str     0x00000000      0x162 /tmp/ccBivL5y.o
 .debug_line_str
                0x00000000       0x9d /tmp/ccBivL5y.o
 .debug_frame   0x00000000       0xb0 /tmp/ccBivL5y.o
 .debug_info    0x00000000      0x1fa /tmp/ccV9lxSU.o
 .debug_abbrev  0x00000000      0x11a /tmp/ccV9lxSU.o
 .debug_loclists
                0x00000000       0x3b /tmp/ccV9lxSU.o
 .debug_aranges
                0x00000000       0x20 /tmp/ccV9lxSU.o
 .debug_line    0x00000000      0x28f /tmp/ccV9lxSU.o
 .debug_str     0x00000000      0x1ea /tmp/ccV9lxSU.o
 .debug_line_str
                0x00000000       0xb6 /tmp/ccV9lxSU.o
 .debug_frame   0x00000000       0x98 /tmp/ccV9lxSU.o
 .debug_info    0x00000000      0x203 /tmp/cc4B4nu6.o
 .debug_abbrev  0x00000000       0xf5 /tmp/cc4B4nu6.o
 .debug_loclists
                0x00000000       0x7a /tmp/cc4B4nu6.o
 .debug_aranges
                0x00000000       0x20 /tmp/cc4B4nu6.o
 .debug_line    0x00000000      0x1a3 /tmp/cc4B4nu6.o
 .debug_str     0x00000000      0x189 /tmp/cc4B4nu6.o
 .debug_line_str
                0x00000000       0xaa /tmp/cc4B4nu6.o
 .debug_frame   0x00000000       0x50 /tmp/cc4B4nu6.o
 .debug_info    0x00000000      0x234 /tmp/ccwkb6hr.o
 .debug_abbrev  0x00000000       0xb6 /tmp/ccwkb6hr.o
 .debug_loclists
                0x00000000      0x129 /tmp/ccwkb6hr.o
 .debug_aranges
                0x00000000       0x20 /tmp/ccwkb6hr.o
 .debug_line    0x00000000      0x29a /tmp/ccwkb6hr.o
 .debug_str     0x00000000      0x149 /tmp/ccwkb6hr.o
 .debug_line_str
                0x00000000       0x9f /tmp/ccwkb6hr.o
 .debug_frame   0x00000000       0x70 /tmp/ccwkb6hr.o
 .debug_info    0x00000000       0x80 /tmp/ccrF7JeZ.o
 .debug_abbrev  0x00000000       0x6c /tmp/ccrF7JeZ.o
 .debug_loclists
                0x00000000       0x41 /tmp/ccrF7JeZ.o
 .debug_aranges
                0x00000000       0x20 /tmp/ccrF7JeZ.o
 .debug_line    0x00000000       0xae /tmp/ccrF7JeZ.o
 .debug_str     0x00000000       0x6f /tmp/ccrF7JeZ.o
 .debug_line_str
                0x00000000       0x34 /tmp/ccrF7JeZ.o
 .debug_frame   0x00000000       0x20 /tmp/ccrF7JeZ.o
 .debug_info    0x00000000      0x115 /tmp/cc3HibGK.o
 .debug_abbrev  0x00000000       0xd3 /tmp/cc3HibGK.o
 .debug_loclists
                0x00000000       0x7d /tmp/cc3HibGK.o
 .debug_aranges
                0x00000000       0x20 /tmp/cc3HibGK.o
 .debug_line    0x00000000       0xfe /tmp/cc3HibGK.o
 .debug_str     0x00000000      0x10b /tmp/cc3HibGK.o
 .debug_line_str
                0x00000000       0xa3 /tmp/cc3HibGK.o
 .debug_frame   0x00000000       0x20 /tmp/cc3HibGK.o
 .debug_info    0x00000000      0x9b1 /tmp/ccMjH7w0.o
 .debug_abbrev  0x00000000      0x26f /tmp/ccMjH7w0.o
 .debug_loclists
                0x00000000      0xf10 /tmp/ccMjH7w0.o
 .debug_aranges
                0x00000000       0x20 /tmp/ccMjH7w0.o
 .debug_rnglists
                0x00000000       0x68 /tmp/ccMjH7w0.o
 .debug_line    0x00000000     0x113b /tmp/ccMjH7w0.o
 .debug_str     0x00000000      0x1e1 /tmp/ccMjH7w0.o
 .debug_line_str
                0x00000000       0xb3 /tmp/ccMjH7w0.o
 .debug_frame   0x00000000      0x12c /tmp/ccMjH7w0.o
 .debug_info    0x00000000      0x15f /tmp/ccHiPauK.o
 .debug_abbrev  0x00000000      0x11e /tmp/ccHiPauK.o
 .debug_loclists
                0x00000000       0x34 /tmp/ccHiPauK.o
 .debug_aranges
                0x00000000       0x20 /tmp/ccHiPauK.o
 .debug_rnglists
                0x00000000       0x13 /tmp/ccHiPauK.o
 .debug_line    0x00000000      0x13a /tmp/ccHiPauK.o
 .debug_str     0x00000000      0x148 /tmp/ccHiPauK.o
 .debug_line_str
                0x00000000       0xa5 /tmp/ccHiPauK.o
 .debug_frame   0x00000000       0x50 /tmp/ccHiPauK.o
 .debug_info    0x00000000     0x136a /tmp/cctBjqL6.o
 .debug_abbrev  0x00000000      0x338 /tmp/cctBjqL6.o
 .debug_loclists
                0x00000000     0x160b /tmp/cctBjqL6.o
 .debug_aranges
                0x00000000       0x20 /tmp/cctBjqL6.o
 .debug_rnglists
                0x00000000       0x92 /tmp/cctBjqL6.o
 .debug_line    0x00000000     0x199d /tmp/cctBjqL6.o
 .debug_str     0x00000000      0x4a9 /tmp/cctBjqL6.o
 .debug_line_str
                0x00000000       0xa8 /tmp/cctBjqL6.o
 .debug_frame   0x00000000      0x240 /tmp/cctBjqL6.o
 .debug_info    0x00000000      0x52f /tmp/cc1A0u6M.o
 .debug_abbrev  0x00000000      0x229 /tmp/cc1A0u6M.o
 .debug_loclists
                0x00000000      0x345 /tmp/cc1A0u6M.o
 .debug_aranges
                0x00000000       0x20 /tmp/cc1A0u6M.o
 .debug_rnglists
                0x00000000       0x5f /tmp/cc1A0u6M.o
 .debug_line    0x00000000      0x67e /tmp/cc1A0u6M.o
 .debug_str     0x00000000      0x29c /tmp/cc1A0u6M.o
 .debug_line_str
                0x00000000       0xaa /tmp/cc1A0u6M.o
 .debug_frame   0x00000000       0xc8 /tmp/cc1A0u6M.o
 .debug_info    0x00000000      0x3b8 /tmp/ccOf3hBF.o
 .debug_abbrev  0x00000000      0x194 /tmp/ccOf3hBF.o
 .debug_loclists
                0x00000000      0x119 /tmp/ccOf3hBF.o
 .debug_aranges
                0x00000000       0x20 /tmp/ccOf3hBF.o
 .debug_line    0x00000000      0x279 /tmp/ccOf3hBF.o
 .debug_str     0x00000000      0x242 /tmp/ccOf3hBF.o
 .debug_line_str
                0x00000000       0xd7 /tmp/ccOf3hBF.o
 .debug_frame   0x00000000       0x90 /tmp/ccOf3hBF.o
 .debug_info    0x00000000      0x202 /tmp/ccR9yGst.o
 .debug_abbrev  0x00000000      0x154 /tmp/ccR9yGst.o
 .debug_loclists
                0x00000000       0x30 /tmp/ccR9yGst.o
 .debug_aranges
                0x00000000       0x28 /tmp/ccR9yGst.o
 .debug_rnglists
                0x00000000       0x19 /tmp/ccR9yGst.o
 .debug_line    0x00000000      0x100 /tmp/ccR9yGst.o
 .debug_str     0x00000000      0x17d /tmp/ccR9yGst.o
 .debug_line_str
                0x00000000       0x8a /tmp/ccR9yGst.o
 .debug_frame   0x00000000       0x38 /tmp/ccR9yGst.o
 .debug_info    0x00000000      0xe4c /tmp/cc7PChk9.o
 .debug_abbrev  0x00000000      0x333 /tmp/cc7PChk9.o
 .debug_loclists
                0x00000000      0x1b8 /tmp/cc7PChk9.o
 .debug_aranges
                0x00000000       0x20 /tmp/cc7PChk9.o
 .debug_rnglists
                0x00000000       0x15 /tmp/cc7PChk9.o
 .debug_line    0x00000000      0x320 /tmp/cc7PChk9.o
 .debug_str     0x00000000      0x783 /tmp/cc7PChk9.o
 .debug_line_str
                0x00000000      0x12c /tmp/cc7PChk9.o
 .debug_frame   0x00000000       0x6c /tmp/cc7PChk9.o
 .debug_info    0x00000000      0x897 /tmp/ccyLiiCO.o
 .debug_abbrev  0x00000000      0x26e /tmp/ccyLiiCO.o
 .debug_loclists
                0x00000000      0x2b0 /tmp/ccyLiiCO.o
 .debug_aranges
                0x00000000       0x20 /tmp/ccyLiiCO.o
 .debug_rnglists
                0x00000000       0x88 /tmp/ccyLiiCO.o
 .debug_line    0x00000000      0x7f1 /tmp/ccyLiiCO.o
 .debug_str     0x00000000      0x2cb /tmp/ccyLiiCO.o
 .debug_line_str
                0x00000000       0xdb /tmp/ccyLiiCO.o
 .debug_frame   0x00000000       0xac /tmp/ccyLiiCO.o
 .debug_info    0x00000000     0x138b /tmp/ccknpp2F.o
 .debug_abbrev  0x00000000      0x29b /tmp/ccknpp2F.o
 .debug_loclists
                0x00000000      0xe7b /tmp/ccknpp2F.o
 .debug_aranges
                0x00000000       0x20 /tmp/ccknpp2F.o
 .debug_rnglists
                0x00000000       0xb2 /tmp/ccknpp2F.o
 .debug_line    0x00000000      0x983 /tmp/ccknpp2F.o
 .debug_str     0x00000000      0x408 /tmp/ccknpp2F.o
 .debug_line_str
                0x00000000       0xd2 /tmp/ccknpp2F.o
 .debug_frame   0x00000000      0x190 /tmp/ccknpp2F.o
 .debug_info    0x00000000      0x701 /tmp/ccIRBhwW.o
 .debug_abbrev  0x00000000      0x240 /tmp/ccIRBhwW.o
 .debug_loclists
                0x00000000      0x1bf /tmp/ccIRBhwW.o
 .debug_aranges
                0x00000000       0x20 /tmp/ccIRBhwW.o
 .debug_rnglists
                0x00000000       0x3d /tmp/ccIRBhwW.o
 .debug_line    0x00000000      0x361 /tmp/ccIRBhwW.o
 .debug_str     0x00000000      0x30f /tmp/ccIRBhwW.o
 .debug_line_str
                0x00000000       0xe9 /tmp/ccIRBhwW.o
 .debug_frame   0x00000000       0x98 /tmp/ccIRBhwW.o
 .debug_info    0x00000000      0x6e8 /tmp/ccy8cHqe.o
 .debug_abbrev  0x00000000      0x24f /tmp/ccy8cHqe.o
 .debug_loclists
                0x00000000      0x355 /tmp/ccy8cHqe.o
 .debug_aranges
                0x00000000       0x20 /tmp/ccy8cHqe.o
 .debug_rnglists
                0x00000000       0x1a /tmp/ccy8cHqe.o
 .debug_line    0x00000000      0x324 /tmp/ccy8cHqe.o
 .debug_str     0x00000000      0x414 /tmp/ccy8cHqe.o
 .debug_line_str
                0x00000000      0x103 /tmp/ccy8cHqe.o
 .debug_frame   0x00000000       0x44 /tmp/ccy8cHqe.o
 .debug_info    0x00000000     0x22ca /tmp/ccG3QImu.o
 .debug_abbrev  0x00000000      0x555 /tmp/ccG3QImu.o
 .debug_loclists
                0x00000000     0x1714 /tmp/ccG3QImu.o
 .debug_aranges
                0x00000000       0x20 /tmp/ccG3QImu.o
 .debug_rnglists
                0x00000000       0xd7 /tmp/ccG3QImu.o
 .debug_line    0x00000000     0x1aa5 /tmp/ccG3QImu.o
 .debug_str     0x00000000      0x6a2 /tmp/ccG3QImu.o
 .debug_line_str
                0x00000000      0x120 /tmp/ccG3QImu.o
 .debug_frame   0x00000000      0x2cc /tmp/ccG3QImu.o
 .debug_info    0x00000000      0xcfd /tmp/ccaUCmsP.o
 .debug_abbrev  0x00000000      0x31a /tmp/ccaUCmsP.o
 .debug_loclists
                0x00000000      0x555 /tmp/ccaUCmsP.o
 .debug_aranges
                0x00000000       0x20 /tmp/ccaUCmsP.o
 .debug_rnglists
                0x00000000       0x41 /tmp/ccaUCmsP.o
 .debug_line    0x00000000      0xa81 /tmp/ccaUCmsP.o
 .debug_str     0x00000000      0x435 /tmp/ccaUCmsP.o
 .debug_line_str
                0x00000000      0x119 /tmp/ccaUCmsP.o
 .debug_frame   0x00000000       0x80 /tmp/ccaUCmsP.o
 .debug_info    0x00000000      0xc67 /tmp/cc2JmVh7.o
 .debug_abbrev  0x00000000      0x3a7 /tmp/cc2JmVh7.o
 .debug_loclists
                0x00000000      0x7bc /tmp/cc2JmVh7.o
 .debug_aranges
                0x00000000       0x20 /tmp/cc2JmVh7.o
 .debug_rnglists
                0x00000000       0xc2 /tmp/cc2JmVh7.o
 .debug_line    0x00000000      0x942 /tmp/cc2JmVh7.o
 .debug_str     0x00000000      0x4fa /tmp/cc2JmVh7.o
 .debug_line_str
                0x00000000      0x11c /tmp/cc2JmVh7.o
 .debug_frame   0x00000000      0x134 /tmp/cc2JmVh7.o
 .debug_info    0x00000000      0xf0d /tmp/cc1EiAcM.o
 .debug_abbrev  0x00000000      0x332 /tmp/cc1EiAcM.o
 .debug_loclists
                0x00000000      0x33f /tmp/cc1EiAcM.o
 .debug_aranges
                0x00000000       0x20 /tmp/cc1EiAcM.o
 .debug_rnglists
                0x00000000       0x1c /tmp/cc1EiAcM.o
 .debug_line    0x00000000      0x665 /tmp/cc1EiAcM.o
 .debug_str     0x00000000      0x53e /tmp/cc1EiAcM.o
 .debug_line_str
                0x00000000      0x15b /tmp/cc1EiAcM.o
 .debug_frame   0x00000000      0x170 /tmp/cc1EiAcM.o
 .debug_info    0x00000000      0x823 /tmp/ccZRldzH.o
 .debug_abbrev  0x00000000      0x248 /tmp/ccZRldzH.o
 .debug_aranges
                0x00000000       0x20 /tmp/ccZRldzH.o
 .debug_line    0x00000000      0x175 /tmp/ccZRldzH.o
 .debug_str     0x00000000      0x40b /tmp/ccZRldzH.o
 .debug_line_str
                0x00000000      0x13a /tmp/ccZRldzH.o
 .debug_frame   0x00000000       0x30 /tmp/ccZRldzH.o
 .debug_info    0x00000000      0x842 /tmp/ccULEvVb.o
 .debug_abbrev  0x00000000      0x268 /tmp/ccULEvVb.o
 .debug_loclists
                0x00000000      0x154 /tmp/ccULEvVb.o
 .debug_aranges
                0x00000000       0x20 /tmp/ccULEvVb.o
 .debug_line    0x00000000      0x26a /tmp/ccULEvVb.o
 .debug_str     0x00000000      0x3d6 /tmp/ccULEvVb.o
 .debug_line_str
                0x00000000       0xf0 /tmp/ccULEvVb.o
 .debug_frame   0x00000000       0xb4 /tmp/ccULEvVb.o
 .debug_info    0x00000000      0x775 /tmp/ccL1MfdX.o
 .debug_abbrev  0x00000000      0x219 /tmp/ccL1MfdX.o
 .debug_loclists
                0x00000000       0xb4 /tmp/ccL1MfdX.o
 .debug_aranges
                0x00000000       0x20 /tmp/ccL1MfdX.o
 .debug_line    0x00000000       0x95 /tmp/ccL1MfdX.o
 .debug_str     0x00000000      0x48f /tmp/ccL1MfdX.o
 .debug_line_str
                0x00000000      0x10d /tmp/ccL1MfdX.o
 .debug_frame   0x00000000       0x2c /tmp/ccL1MfdX.o
 .debug_info    0x00000000     0x2d11 /tmp/ccFELqvp.o
 .debug_abbrev  0x00000000      0x5b7 /tmp/ccFELqvp.o
 .debug_loclists
                0x00000000     0x1df7 /tmp/ccFELqvp.o
 .debug_aranges
                0x00000000       0x20 /tmp/ccFELqvp.o
 .debug_rnglists
                0x00000000      0x2c0 /tmp/ccFELqvp.o
 .debug_line    0x00000000     0x347f /tmp/ccFELqvp.o
 .debug_str     0x00000000      0xa65 /tmp/ccFELqvp.o
 .debug_line_str
                0x00000000      0x118 /tmp/ccFELqvp.o
 .debug_frame   0x00000000      0x810 /tmp/ccFELqvp.o
 .debug_info    0x00000000      0x6a7 /tmp/ccfTbllc.o
 .debug_abbrev  0x00000000      0x1f7 /tmp/ccfTbllc.o
 .debug_loclists
                0x00000000       0xe7 /tmp/ccfTbllc.o
 .debug_aranges
                0x00000000       0x20 /tmp/ccfTbllc.o
 .debug_line    0x00000000      0x13f /tmp/ccfTbllc.o
 .debug_str     0x00000000      0x3bd /tmp/ccfTbllc.o
 .debug_line_str
                0x00000000      0x109 /tmp/ccfTbllc.o
 .debug_frame   0x00000000       0x58 /tmp/ccfTbllc.o
 .debug_info    0x00000000      0x5eb /tmp/ccPziobx.o
 .debug_abbrev  0x00000000      0x1dc /tmp/ccPziobx.o
 .debug_loclists
                0x00000000       0xe4 /tmp/ccPziobx.o
 .debug_aranges
                0x00000000       0x20 /tmp/ccPziobx.o
 .debug_rnglists
                0x00000000       0x66 /tmp/ccPziobx.o
 .debug_line    0x00000000      0x30e /tmp/ccPziobx.o
 .debug_str     0x00000000      0x4dc /tmp/ccPziobx.o
 .debug_line_str
                0x00000000       0xf0 /tmp/ccPziobx.o
 .debug_frame   0x00000000       0x9c /tmp/ccPziobx.o
 .debug_info    0x00000000      0x3ef /tmp/ccSCmMvx.o
 .debug_abbrev  0x00000000      0x161 /tmp/ccSCmMvx.o
 .debug_loclists
                0x00000000      0x469 /tmp/ccSCmMvx.o
 .debug_aranges
                0x00000000       0x20 /tmp/ccSCmMvx.o
 .debug_rnglists
                0x00000000       0x16 /tmp/ccSCmMvx.o
 .debug_line    0x00000000      0x5d8 /tmp/ccSCmMvx.o
 .debug_str     0x00000000      0x16b /tmp/ccSCmMvx.o
 .debug_line_str
                0x00000000       0xd3 /tmp/ccSCmMvx.o
 .debug_frame   0x00000000       0x40 /tmp/ccSCmMvx.o
 .debug_info    0x00000000       0x71 /tmp/cclqz2MS.o
 .debug_abbrev  0x00000000       0x2c /tmp/cclqz2MS.o
 .debug_aranges
                0x00000000       0x18 /tmp/cclqz2MS.o
 .debug_line    0x00000000       0x44 /tmp/cclqz2MS.o
 .debug_str     0x00000000       0xe2 /tmp/cclqz2MS.o
 .debug_line_str
                0x00000000       0x4a /tmp/cclqz2MS.o
 .debug_info    0x00000000      0x94c /tmp/ccb69q2G.o
 .debug_abbrev  0x00000000      0x247 /tmp/ccb69q2G.o
 .debug_loclists
                0x00000000      0x374 /tmp/ccb69q2G.o
 .debug_aranges
                0x00000000       0x20 /tmp/ccb69q2G.o
 .debug_line    0x00000000      0x3fb /tmp/ccb69q2G.o
 .debug_str     0x00000000      0x443 /tmp/ccb69q2G.o
 .debug_line_str
                0x00000000      0x134 /tmp/ccb69q2G.o
 .debug_frame   0x00000000       0xd8 /tmp/ccb69q2G.o
 .debug_info    0x00000000     0x553a /tmp/ccwV9frK.o
 .debug_abbrev  0x00000000      0x470 /tmp/ccwV9frK.o
 .debug_loclists
                0x00000000     0x55b7 /tmp/ccwV9frK.o
 .debug_aranges
                0x00000000       0x20 /tmp/ccwV9frK.o
 .debug_rnglists
                0x00000000      0x30d /tmp/ccwV9frK.o
 .debug_line    0x00000000     0x8fae /tmp/ccwV9frK.o
 .debug_str     0x00000000      0x8fb /tmp/ccwV9frK.o
 .debug_line_str
                0x00000000      0x10f /tmp/ccwV9frK.o
 .debug_frame   0x00000000      0xa18 /tmp/ccwV9frK.o
 .debug_info    0x00000000      0x5c8 /tmp/ccTQCLU3.o
 .debug_abbrev  0x00000000      0x219 /tmp/ccTQCLU3.o
 .debug_loclists
                0x00000000       0x3c /tmp/ccTQCLU3.o
 .debug_aranges
                0x00000000       0x20 /tmp/ccTQCLU3.o
 .debug_rnglists
                0x00000000       0x16 /tmp/ccTQCLU3.o
 .debug_line    0x00000000      0x1b8 /tmp/ccTQCLU3.o
 .debug_str     0x00000000      0x3ba /tmp/ccTQCLU3.o
 .debug_line_str
                0x00000000      0x106 /tmp/ccTQCLU3.o
 .debug_frame   0x00000000       0x4c /tmp/ccTQCLU3.o
 .debug_info    0x00000000      0x563 /tmp/ccKYGImA.o
 .debug_abbrev  0x00000000      0x22a /tmp/ccKYGImA.o
 .debug_loclists
                0x00000000      0x169 /tmp/ccKYGImA.o
 .debug_aranges
                0x00000000       0x20 /tmp/ccKYGImA.o
 .debug_rnglists
                0x00000000       0x2d /tmp/ccKYGImA.o
 .debug_line    0x00000000      0x580 /tmp/ccKYGImA.o
 .debug_str     0x00000000      0x235 /tmp/ccKYGImA.o
 .debug_line_str
                0x00000000      0x11a /tmp/ccKYGImA.o
 .debug_frame   0x00000000       0xd4 /tmp/ccKYGImA.o
 .debug_info    0x00000000      0x2a7 /tmp/cc5wh7BZ.o
 .debug_abbrev  0x00000000      0x125 /tmp/cc5wh7BZ.o
 .debug_loclists
                0x00000000       0xd6 /tmp/cc5wh7BZ.o
 .debug_aranges
                0x00000000       0x20 /tmp/cc5wh7BZ.o
 .debug_line    0x00000000       0xcf /tmp/cc5wh7BZ.o
 .debug_str     0x00000000      0x17e /tmp/cc5wh7BZ.o
 .debug_line_str
                0x00000000      0x10b /tmp/cc5wh7BZ.o
 .debug_frame   0x00000000       0x40 /tmp/cc5wh7BZ.o
 .debug_info    0x00000000      0x27d /tmp/ccuyE6Fl.o
 .debug_abbrev  0x00000000      0x150 /tmp/ccuyE6Fl.o
 .debug_loclists
                0x00000000       0x94 /tmp/ccuyE6Fl.o
 .debug_aranges
                0x00000000       0x20 /tmp/ccuyE6Fl.o
 .debug_line    0x00000000      0x13a /tmp/ccuyE6Fl.o
 .debug_str     0x00000000      0x1d0 /tmp/ccuyE6Fl.o
 .debug_line_str
                0x00000000       0xdd /tmp/ccuyE6Fl.o
 .debug_frame   0x00000000       0x54 /tmp/ccuyE6Fl.o
 .debug_info    0x00000000     0x1519 /tmp/ccOsM6Hr.o
 .debug_abbrev  0x00000000      0x4e5 /tmp/ccOsM6Hr.o
 .debug_loclists
                0x00000000      0x5f7 /tmp/ccOsM6Hr.o
 .debug_aranges
                0x00000000       0x20 /tmp/ccOsM6Hr.o
 .debug_rnglists
                0x00000000      0x175 /tmp/ccOsM6Hr.o
 .debug_line    0x00000000      0xf97 /tmp/ccOsM6Hr.o
 .debug_str     0x00000000      0x84b /tmp/ccOsM6Hr.o
 .debug_line_str
                0x00000000      0x161 /tmp/ccOsM6Hr.o
 .debug_frame   0x00000000      0x124 /tmp/ccOsM6Hr.o
 .debug_info    0x00000000      0x90c /tmp/ccWt1n3R.o
 .debug_abbrev  0x00000000      0x256 /tmp/ccWt1n3R.o
 .debug_loclists
                0x00000000      0x3f9 /tmp/ccWt1n3R.o
 .debug_aranges
                0x00000000       0x20 /tmp/ccWt1n3R.o
 .debug_rnglists
                0x00000000       0xeb /tmp/ccWt1n3R.o
 .debug_line    0x00000000      0x68b /tmp/ccWt1n3R.o
 .debug_str     0x00000000      0x2ac /tmp/ccWt1n3R.o
 .debug_line_str
                0x00000000      0x11e /tmp/ccWt1n3R.o
 .debug_frame   0x00000000       0x64 /tmp/ccWt1n3R.o

Memory Configuration

Name             Origin             Length             Attributes
FLASH            0x00000000         0x01000000         axrl!w
RAM              0x30000000         0x00020000         axw!rl
*default*        0x00000000         0xffffffff

Linker script and memory map


.text           0x00000000    0x233ac
                0x00000000                        . = ALIGN (0x4)
 *(.text)
 .text          0x00000000       0xd8 /tmp/ccy0D5yk.o
 .text          0x000000d8       0x24 /tmp/cczkFiPk.o
                0x000000d8                __muldi3
 .text          0x000000fc       0xb4 /tmp/cc8d1zc9.o
                0x000000fc                __divsi3
                0x00000104                __udivsi3
                0x0000014c                __umodsi3
                0x00000180                __modsi3
 .text          0x000001b0      0x1ec /tmp/ccBivL5y.o
                0x000001b0                memcpy
                0x000001d4                memset
                0x000001f0                strlen
                0x00000210                memcmp
                0x00000240                strchr
                0x0000025c                strcmp
                0x00000288                strncpy
                0x000002e8                strcpy
                0x00000304                strncmp
                0x0000033c                memmove
 .text          0x0000039c      0x14c /tmp/ccV9lxSU.o
                0x0000039c                hal_hp_uart_init
                0x000003d4                hal_hp_uart_config
                0x0000042c                hal_hp_uart_send
                0x0000044c                hal_hp_uart_putstr
                0x00000480                hal_hp_uart_recv
                0x000004a4                hal_hp_uart_recv_str
 .text          0x000004e8       0xa0 /tmp/cc4B4nu6.o
                0x000004e8                pwm_hal_init
                0x00000508                pwm_hal_set_compare
                0x0000055c                pwm_hal_enable
                0x00000574                pwm_hal_disable
 .text          0x00000588      0x108 /tmp/ccwkb6hr.o
                0x00000588                hal_delay_us
                0x00000608                hal_delay_ms
                0x00000614                delay_ms
                0x00000620                hal_delay_s
                0x0000062c                hal_sys_tick_init
                0x00000668                hal_get_sys_tick
 .text          0x00000690       0x28 /tmp/ccrF7JeZ.o
                0x00000690                __mulsi3
 .text          0x000006b8       0x48 /tmp/cc3HibGK.o
                0x000006b8                __lshrdi3
 .text          0x00000700      0x8ec /tmp/ccMjH7w0.o
                0x00000908                vprintf
                0x00000b58                vsnprintf
                0x00000f7c                snprintf
                0x00000fb0                printf
 .text          0x00000fec       0x58 /tmp/ccHiPauK.o
                0x00000fec                hal_sys_uart_init
                0x00000ffc                hal_sys_putchar
                0x00001008                hal_sys_putstr
                0x00001028                hal_sys_getchar
 .text          0x00001044      0xba8 /tmp/cctBjqL6.o
                0x00001094                hal_qspi_init
                0x000010c8                hal_qspi_deinit
                0x000010e4                hal_qspi_write_8
                0x00001128                hal_qspi_write_8_cs
                0x00001184                hal_qspi_write_16
                0x000011c0                hal_qspi_write_16_cs
                0x0000121c                hal_qspi_write_32
                0x00001254                hal_qspi_write_32_cs
                0x000012ac                hal_qspi_write_32x2
                0x000012e8                hal_qspi_write_32x2_cs
                0x00001344                hal_qspi_write_32x8
                0x0000139c                hal_qspi_write_32x8_cs
                0x00001414                hal_qspi_write_32x16
                0x000014ac                hal_qspi_write_32x16_cs
                0x00001564                hal_qspi_write_32x32
                0x00001680                hal_qspi_write_32x32_cs
                0x000017bc                hal_qspi_send_cmd
                0x0000182c                hal_qspi_write
                0x000019dc                hal_qspi_read
 .text          0x00001bec      0x2dc /tmp/cc1A0u6M.o
                0x00001c48                hal_i2c_init
                0x00001c74                hal_i2c_deinit
                0x00001c8c                hal_i2c_write_nbyte
                0x00001d94                hal_i2c_read_nbyte
 .text          0x00001ec8      0x128 /tmp/ccOf3hBF.o
                0x00001ec8                gpio_hal_input_enable
                0x00001ee4                gpio_hal_output_enable
                0x00001f04                gpio_hal_set_level
                0x00001f34                gpio_hal_get_level
                0x00001f70                gpio_hal_read_update
                0x00001f8c                gpio_hal_write_update
                0x00001fb8                gpio_hal_set_fcfg
                0x00001fd4                gpio_hal_set_mux
 .text          0x00001ff0       0x10 /tmp/ccR9yGst.o
                0x00001ff0                easy_print
 .text          0x00002000      0x220 /tmp/cc7PChk9.o
                0x00002164                fccCmd
 .text          0x00002220      0x4a0 /tmp/ccyLiiCO.o
                0x000022bc                lexer_next
                0x000026ac                lexer_init
 .text          0x000026c0      0x3d8 /tmp/ccknpp2F.o
                0x000026f4                codegen_init
                0x0000270c                cg_addi
                0x00002728                cg_add
                0x00002744                cg_sub
                0x00002768                cg_mul
                0x0000278c                cg_div
                0x000027b0                cg_rem
                0x000027d4                cg_lw
                0x000027f8                cg_sw
                0x0000282c                cg_lui
                0x00002840                cg_jalr
                0x0000285c                cg_jal
                0x000028a0                cg_beq
                0x000028dc                cg_bne
                0x00002920                cg_blt
                0x00002964                cg_bge
                0x000029a8                cg_li
                0x00002a30                cg_prologue
                0x00002a58                cg_epilogue
                0x00002a8c                cg_retval
 .text          0x00002a98      0x250 /tmp/ccIRBhwW.o
                0x00002b58                fcc_compile
 .text          0x00002ce8      0x128 /tmp/ccy8cHqe.o
                0x00002da8                sfud_spi_port_init
 .text          0x00002e10     0x12f4 /tmp/ccG3QImu.o
                0x00002e34                sfud_get_device
                0x00002e4c                sfud_get_device_num
                0x00002e54                sfud_get_device_table
                0x00002e60                sfud_read_status
                0x00002f8c                sfud_read
                0x00003204                sfud_chip_erase
                0x00003368                sfud_erase
                0x000037d4                sfud_write
                0x00003a7c                sfud_erase_write
                0x00003ad0                sfud_write_status
                0x00003bc8                sfud_device_init
                0x000040a0                sfud_init
 .text          0x00004104      0x760 /tmp/ccaUCmsP.o
                0x000041fc                sfud_read_sfdp
                0x000047e0                sfud_sfdp_get_suitable_eraser
 .text          0x00004864      0x594 /tmp/cc2JmVh7.o
                0x000048d8                shellExtParsePara
                0x00004b8c                shellExtRun
 .text          0x00004df8      0x594 /tmp/cc1EiAcM.o
                0x00004df8                exec_func
                0x00004eb0                set_fnode
                0x00004ebc                create_shell_env_varible
                0x00004f1c                shellRead
                0x00004f78                shellWrite
                0x00004fcc                getcwd
                0x00005084                chdir
                0x00005138                listdir
                0x000052a8                createfile
 .text          0x0000538c       0xf0 /tmp/ccZRldzH.o
                0x0000538c                load_shell
 .text          0x0000547c      0x184 /tmp/ccULEvVb.o
                0x0000547c                shellCD
                0x00005524                shellLS
                0x00005588                shellTOUCH
                0x000055e4                shellFsInit
 .text          0x00005600       0x20 /tmp/ccL1MfdX.o
                0x00005600                agencyshellRun
 .text          0x00005620     0x2010 /tmp/ccFELqvp.o
                0x0000567c                shellRemove
                0x000056b8                shellGetCurrent
                0x000056e8                shellWriteString
                0x000057c4                shellPrint
                0x00005838                shellCheckPermission
                0x000058a0                shellToHex
                0x00005960                shellToDec
                0x00005ab4                shellListItem
                0x00005c74                shellListCommand
                0x00005d10                shellListVar
                0x00005db0                shellListUser
                0x00005e50                shellListKey
                0x00005efc                shellListAll
                0x00005f00                shellDeleteCommandLine
                0x00005f54                shellClearCommandLine
                0x00005fb0                shellInsertByte
                0x00006160                shellDeleteByte
                0x000062b0                shellSplit
                0x000063e0                shellSeekCommand
                0x000064ec                shellGetVarValue
                0x00006690                shellSetVarValue
                0x00006770                shellSetVar
                0x0000682c                shellSetUser
                0x000068e0                shellInit
                0x000069c0                shellRunCommand
                0x00006b0c                shellNormalInput
                0x00006b1c                shellExec
                0x00006cc8                shellUp
                0x00006d84                shellDown
                0x00006e24                shellRight
                0x00006e50                shellLeft
                0x00006e94                shellTab
                0x000070f8                shellBackspace
                0x00007100                shellDelete
                0x00007108                shellEnter
                0x00007128                shellHelp
                0x00007214                shellHandler
                0x000073d4                shellTask
                0x00007418                shellUsers
                0x00007440                shellCmds
                0x00007468                shellVars
                0x00007490                shellKeys
                0x000074b8                shellClear
                0x000074e8                shellRun
                0x0000758c                shellExecute
 .text          0x00007630       0x84 /tmp/ccfTbllc.o
                0x00007630                shellCompanionAdd
                0x0000766c                shellCompanionDel
                0x0000769c                shellCompanionGet
 .text          0x000076b4      0x184 /tmp/ccPziobx.o
                0x000076b4                MYSPI_Init
                0x00007718                MYSPI_Start
                0x0000773c                MYSPI_Stop
                0x00007760                MYSPI_SwapByte
 .text          0x00007838      0x270 /tmp/ccSCmMvx.o
                0x00007838                ff_uni2oem
                0x00007920                ff_oem2uni
                0x000079b8                ff_wtoupper
 .text          0x00007aa8        0x0 /tmp/cclqz2MS.o
 .text          0x00007aa8      0x2bc /tmp/ccb69q2G.o
                0x00007aa8                disk_status
                0x00007b30                disk_initialize
                0x00007bbc                disk_read
                0x00007c68                disk_write
                0x00007d14                disk_ioctl
 .text          0x00007d64     0x4aec /tmp/ccwV9frK.o
                0x00009ff8                f_mount
                0x0000a088                f_open
                0x0000a36c                f_read
                0x0000a5b8                f_write
                0x0000a934                f_sync
                0x0000aa38                f_close
                0x0000aa7c                f_chdrive
                0x0000aab8                f_chdir
                0x0000ab58                f_getcwd
                0x0000ad78                f_lseek
                0x0000afb0                f_opendir
                0x0000b064                f_closedir
                0x0000b094                f_readdir
                0x0000b13c                f_stat
                0x0000b1c0                f_getfree
                0x0000b368                f_truncate
                0x0000b490                f_unlink
                0x0000b590                f_mkdir
                0x0000b778                f_rename
                0x0000b900                f_mkfs
                0x0000c2c0                f_gets
                0x0000c36c                f_putc
                0x0000c3c0                f_puts
                0x0000c420                f_printf
 .text          0x0000c850      0x160 /tmp/ccTQCLU3.o
                0x0000c850                load_filesystem
 .text          0x0000c9b0      0x3d0 /tmp/ccKYGImA.o
                0x0000c9b0                create_task
                0x0000ca64                delete_task
                0x0000cae0                suspend_task
                0x0000cb28                resume_task
                0x0000cc10                task_scheduler
 .text          0x0000cd80       0x28 /tmp/cc5wh7BZ.o
                0x0000cd80                ctx_init
                0x0000cd90                enter_load_from_ctx
                0x0000cda0                exit_save_to_ctx
 .text          0x0000cda8       0xb8 /tmp/ccuyE6Fl.o
                0x0000cda8                log_init
                0x0000cdb4                log_close
                0x0000cdb8                log_print
 .text          0x0000ce60      0x9a0 /tmp/ccOsM6Hr.o
                0x0000cf48                editor_line_length
                0x0000cfb0                editor_build_line_offsets
                0x0000d138                editor_construct_path
                0x0000d208                editCmd
 .text          0x0000d800      0x388 /tmp/ccWt1n3R.o
                0x0000d800                editor_render
 *(.text*)
 .text.startup  0x0000db88       0x48 /tmp/ccR9yGst.o
                0x0000db88                main
 *(.rodata)
 .rodata        0x0000dbd0       0xb0 /tmp/ccMjH7w0.o
 .rodata        0x0000dc80        0xc /tmp/ccR9yGst.o
 .rodata        0x0000dc8c       0x59 /tmp/ccyLiiCO.o
 *fill*         0x0000dce5        0x3 
 .rodata        0x0000dce8      0x310 /tmp/ccG3QImu.o
 .rodata        0x0000dff8       0x3e /tmp/ccaUCmsP.o
 *fill*         0x0000e036        0x2 
 .rodata        0x0000e038       0x20 /tmp/cc2JmVh7.o
 .rodata        0x0000e058       0xf0 /tmp/cc1EiAcM.o
 .rodata        0x0000e148      0x240 /tmp/ccL1MfdX.o
                0x0000e148                shellCommandList
 .rodata        0x0000e388       0x30 /tmp/ccFELqvp.o
 .rodata        0x0000e3b8    0x1318e /tmp/ccSCmMvx.o
 *fill*         0x00021546        0x2 
 .rodata        0x00021548       0x14 /tmp/ccb69q2G.o
 .rodata        0x0002155c       0x3e /tmp/ccwV9frK.o
 *fill*         0x0002159a        0x2 
 .rodata        0x0002159c       0x10 /tmp/ccTQCLU3.o
 .rodata        0x000215ac       0x28 /tmp/ccuyE6Fl.o
 .rodata        0x000215d4       0x10 /tmp/ccOsM6Hr.o
 *(.rodata*)
 .rodata.str1.4
                0x000215e4     0x1dbb /tmp/ccMjH7w0.o
                                 0x2f (size before relaxing)
 .rodata.str1.4
                0x0002339f        0x0 /tmp/ccOf3hBF.o
                                 0x6a (size before relaxing)
 .rodata.str1.4
                0x0002339f        0x0 /tmp/ccR9yGst.o
                                 0x39 (size before relaxing)
 .rodata.str1.4
                0x0002339f        0x0 /tmp/cc7PChk9.o
                                 0xfc (size before relaxing)
 .rodata.str1.4
                0x0002339f        0x0 /tmp/ccyLiiCO.o
                                 0x1e (size before relaxing)
 .rodata.str1.4
                0x0002339f        0x0 /tmp/ccIRBhwW.o
                                 0xb8 (size before relaxing)
 .rodata.str1.4
                0x0002339f        0x0 /tmp/ccG3QImu.o
                                0x5dd (size before relaxing)
 .rodata.str1.4
                0x0002339f        0x0 /tmp/ccaUCmsP.o
                                0x726 (size before relaxing)
 .rodata.str1.4
                0x0002339f        0x0 /tmp/cc2JmVh7.o
                                 0x54 (size before relaxing)
 .rodata.str1.4
                0x0002339f        0x0 /tmp/ccZRldzH.o
                                 0x6b (size before relaxing)
 .rodata.str1.4
                0x0002339f        0x0 /tmp/ccULEvVb.o
                                 0x1e (size before relaxing)
 .rodata.str1.4
                0x0002339f        0x0 /tmp/ccL1MfdX.o
                                0x273 (size before relaxing)
 .rodata.str1.4
                0x0002339f        0x0 /tmp/ccFELqvp.o
                                0x5b6 (size before relaxing)
 .rodata.str1.4
                0x0002339f        0x0 /tmp/ccb69q2G.o
                                0x11e (size before relaxing)
 .rodata.str1.4
                0x0002339f        0x0 /tmp/ccwV9frK.o
                                 0x88 (size before relaxing)
 .rodata.str1.4
                0x0002339f        0x0 /tmp/ccTQCLU3.o
                                0x11c (size before relaxing)
 .rodata.str1.4
                0x0002339f        0x0 /tmp/ccKYGImA.o
                                 0x7c (size before relaxing)
 .rodata.str1.4
                0x0002339f        0x0 /tmp/ccuyE6Fl.o
                                 0x6e (size before relaxing)
 .rodata.str1.4
                0x0002339f        0x0 /tmp/ccOsM6Hr.o
                                 0xca (size before relaxing)
 .rodata.str1.4
                0x0002339f        0x0 /tmp/ccWt1n3R.o
                                0x10b (size before relaxing)
 *(.srodata)
 *fill*         0x0002339f        0x1 
 .srodata       0x000233a0        0x7 /tmp/cc2JmVh7.o
 *fill*         0x000233a7        0x1 
 .srodata       0x000233a8        0x2 /tmp/ccL1MfdX.o
                0x000233a8                shellCommandCount
 *(.srodata*)
                0x000233ac                        . = ALIGN (0x4)
 *fill*         0x000233aa        0x2 
                0x000233ac                        _etext = .
                0x000233ac                        _sidata = _etext

.rela.dyn       0x000233ac        0x0
 .rela.text     0x000233ac        0x0 /tmp/ccy0D5yk.o

.data           0x30000000       0x7c load address 0x000233ac
                0x30000000                        . = ALIGN (0x4)
                0x30000000                        _sdata = .
                0x30000000                        _ram_start = .
                0x30000000                        . = ALIGN (0x4)
 *(.data)
 .data          0x30000000        0x0 /tmp/ccy0D5yk.o
 .data          0x30000000        0x0 /tmp/cczkFiPk.o
 .data          0x30000000        0x0 /tmp/cc8d1zc9.o
 .data          0x30000000        0x0 /tmp/ccBivL5y.o
 .data          0x30000000        0x0 /tmp/ccV9lxSU.o
 .data          0x30000000        0x0 /tmp/cc4B4nu6.o
 .data          0x30000000        0x0 /tmp/ccwkb6hr.o
 .data          0x30000000        0x0 /tmp/ccrF7JeZ.o
 .data          0x30000000        0x0 /tmp/cc3HibGK.o
 .data          0x30000000        0x0 /tmp/ccMjH7w0.o
 .data          0x30000000        0x0 /tmp/ccHiPauK.o
 .data          0x30000000        0x0 /tmp/cctBjqL6.o
 .data          0x30000000        0x0 /tmp/cc1A0u6M.o
 .data          0x30000000        0x0 /tmp/ccOf3hBF.o
 .data          0x30000000        0x0 /tmp/ccR9yGst.o
 .data          0x30000000        0x0 /tmp/cc7PChk9.o
 .data          0x30000000        0x0 /tmp/ccyLiiCO.o
 .data          0x30000000        0x0 /tmp/ccknpp2F.o
 .data          0x30000000        0x0 /tmp/ccIRBhwW.o
 .data          0x30000000        0x0 /tmp/ccy8cHqe.o
 .data          0x30000000       0x74 /tmp/ccG3QImu.o
 .data          0x30000074        0x0 /tmp/ccaUCmsP.o
 .data          0x30000074        0x0 /tmp/cc2JmVh7.o
 .data          0x30000074        0x0 /tmp/cc1EiAcM.o
 .data          0x30000074        0x0 /tmp/ccZRldzH.o
 .data          0x30000074        0x0 /tmp/ccULEvVb.o
 .data          0x30000074        0x0 /tmp/ccL1MfdX.o
 .data          0x30000074        0x0 /tmp/ccFELqvp.o
 .data          0x30000074        0x0 /tmp/ccfTbllc.o
 .data          0x30000074        0x0 /tmp/ccPziobx.o
 .data          0x30000074        0x0 /tmp/ccSCmMvx.o
 .data          0x30000074        0x0 /tmp/cclqz2MS.o
 .data          0x30000074        0x0 /tmp/ccb69q2G.o
 .data          0x30000074        0x0 /tmp/ccwV9frK.o
 .data          0x30000074        0x0 /tmp/ccTQCLU3.o
 .data          0x30000074        0x0 /tmp/ccKYGImA.o
 .data          0x30000074        0x0 /tmp/cc5wh7BZ.o
 .data          0x30000074        0x0 /tmp/ccuyE6Fl.o
 .data          0x30000074        0x0 /tmp/ccOsM6Hr.o
 .data          0x30000074        0x0 /tmp/ccWt1n3R.o
 *(.data*)
 *(.sdata)
 .sdata         0x30000074        0x2 /tmp/ccFELqvp.o
                0x30000074                pairedChars
 *fill*         0x30000076        0x2 
 .sdata         0x30000078        0x4 /tmp/ccuyE6Fl.o
 *(.sdata*)
                0x3000007c                        . = ALIGN (0x4)
                0x3000007c                        _edata = .

.bss            0x3000007c    0x1737c load address 0x00023428
                0x3000007c                        . = ALIGN (0x4)
                0x3000007c                        _sbss = .
 *(.bss)
 .bss           0x3000007c        0x0 /tmp/ccy0D5yk.o
 .bss           0x3000007c        0x0 /tmp/cczkFiPk.o
 .bss           0x3000007c        0x0 /tmp/cc8d1zc9.o
 .bss           0x3000007c        0x0 /tmp/ccBivL5y.o
 .bss           0x3000007c        0x0 /tmp/ccV9lxSU.o
 .bss           0x3000007c        0x0 /tmp/cc4B4nu6.o
 .bss           0x3000007c        0x0 /tmp/ccwkb6hr.o
 .bss           0x3000007c        0x0 /tmp/ccrF7JeZ.o
 .bss           0x3000007c        0x0 /tmp/cc3HibGK.o
 .bss           0x3000007c        0x0 /tmp/ccMjH7w0.o
 .bss           0x3000007c        0x0 /tmp/ccHiPauK.o
 .bss           0x3000007c        0x0 /tmp/cctBjqL6.o
 .bss           0x3000007c        0x0 /tmp/cc1A0u6M.o
 .bss           0x3000007c        0x0 /tmp/ccOf3hBF.o
 .bss           0x3000007c        0x0 /tmp/ccR9yGst.o
 .bss           0x3000007c     0x8064 /tmp/cc7PChk9.o
 .bss           0x300080e0        0x0 /tmp/ccyLiiCO.o
 .bss           0x300080e0        0x0 /tmp/ccknpp2F.o
 .bss           0x300080e0        0x0 /tmp/ccIRBhwW.o
 .bss           0x300080e0        0x0 /tmp/ccy8cHqe.o
 .bss           0x300080e0      0x105 /tmp/ccG3QImu.o
 .bss           0x300081e5        0x0 /tmp/ccaUCmsP.o
 .bss           0x300081e5        0x0 /tmp/cc2JmVh7.o
 *fill*         0x300081e5        0x3 
 .bss           0x300081e8       0x80 /tmp/cc1EiAcM.o
                0x300081e8                envString
 .bss           0x30008268        0x0 /tmp/ccZRldzH.o
 .bss           0x30008268        0x0 /tmp/ccULEvVb.o
 .bss           0x30008268        0x0 /tmp/ccL1MfdX.o
 .bss           0x30008268       0x1d /tmp/ccFELqvp.o
 *fill*         0x30008285        0x3 
 .bss           0x30008288       0x18 /tmp/ccfTbllc.o
                0x30008288                shellfs
 .bss           0x300082a0        0x0 /tmp/ccPziobx.o
 .bss           0x300082a0        0x0 /tmp/ccSCmMvx.o
 .bss           0x300082a0        0x0 /tmp/cclqz2MS.o
 .bss           0x300082a0        0x0 /tmp/ccb69q2G.o
 .bss           0x300082a0      0x200 /tmp/ccwV9frK.o
 .bss           0x300084a0     0x2038 /tmp/ccTQCLU3.o
                0x300084a0                work_buf
                0x300094a0                fs_Flash
 .bss           0x3000a4d8      0xbc8 /tmp/ccKYGImA.o
 .bss           0x3000b0a0        0x0 /tmp/cc5wh7BZ.o
 .bss           0x3000b0a0        0x0 /tmp/ccuyE6Fl.o
 .bss           0x3000b0a0     0xc320 /tmp/ccOsM6Hr.o
 .bss           0x300173c0        0x0 /tmp/ccWt1n3R.o
 *(.bss*)
 *(.sbss)
 .sbss          0x300173c0        0xc /tmp/ccOf3hBF.o
 .sbss          0x300173cc        0x4 /tmp/ccknpp2F.o
 .sbss          0x300173d0       0x10 /tmp/cc1EiAcM.o
                0x300173d0                fnode
                0x300173d4                envFunc
                0x300173d8                envChar
                0x300173da                envShort
                0x300173dc                envInt
 .sbss          0x300173e0        0x4 /tmp/ccb69q2G.o
 .sbss          0x300173e4        0x8 /tmp/ccwV9frK.o
 .sbss          0x300173ec        0x4 /tmp/ccTQCLU3.o
                0x300173ec                res_Flash
 .sbss          0x300173f0        0x8 /tmp/ccKYGImA.o
 *(.sbss*)
 *(COMMON)
                0x300173f8                        . = ALIGN (0x4)
                0x300173f8                        _ebss = .

.heap           0x300173f8        0x0
                0x300173f8                        . = ALIGN (0x4)
                0x300173f8                        _heap_start = .

.stack_dummy    0x30020000        0x0
                0x30020000                        PROVIDE (_stack_point = .)
LOAD /tmp/ccy0D5yk.o
LOAD /tmp/cczkFiPk.o
LOAD /tmp/cc8d1zc9.o
LOAD /tmp/ccBivL5y.o
LOAD /tmp/ccV9lxSU.o
LOAD /tmp/cc4B4nu6.o
LOAD /tmp/ccwkb6hr.o
LOAD /tmp/ccrF7JeZ.o
LOAD /tmp/cc3HibGK.o
LOAD /tmp/ccMjH7w0.o
LOAD /tmp/ccHiPauK.o
LOAD /tmp/cctBjqL6.o
LOAD /tmp/cc1A0u6M.o
LOAD /tmp/ccOf3hBF.o
LOAD /tmp/ccR9yGst.o
LOAD /tmp/cc7PChk9.o
LOAD /tmp/ccyLiiCO.o
LOAD /tmp/ccknpp2F.o
LOAD /tmp/ccIRBhwW.o
LOAD /tmp/ccy8cHqe.o
LOAD /tmp/ccG3QImu.o
LOAD /tmp/ccaUCmsP.o
LOAD /tmp/cc2JmVh7.o
LOAD /tmp/cc1EiAcM.o
LOAD /tmp/ccZRldzH.o
LOAD /tmp/ccULEvVb.o
LOAD /tmp/ccL1MfdX.o
LOAD /tmp/ccFELqvp.o
LOAD /tmp/ccfTbllc.o
LOAD /tmp/ccPziobx.o
LOAD /tmp/ccSCmMvx.o
LOAD /tmp/cclqz2MS.o
LOAD /tmp/ccb69q2G.o
LOAD /tmp/ccwV9frK.o
LOAD /tmp/ccTQCLU3.o
LOAD /tmp/ccKYGImA.o
LOAD /tmp/cc5wh7BZ.o
LOAD /tmp/ccuyE6Fl.o
LOAD /tmp/ccOsM6Hr.o
LOAD /tmp/ccWt1n3R.o
OUTPUT(build/retrosoc_fw elf32-littleriscv)

.riscv.attributes
                0x00000000       0x2a
 .riscv.attributes
                0x00000000       0x28 /tmp/ccy0D5yk.o
 .riscv.attributes
                0x00000028       0x28 /tmp/cczkFiPk.o
 .riscv.attributes
                0x00000050       0x28 /tmp/cc8d1zc9.o
 .riscv.attributes
                0x00000078       0x2a /tmp/ccBivL5y.o
 .riscv.attributes
                0x000000a2       0x2a /tmp/ccV9lxSU.o
 .riscv.attributes
                0x000000cc       0x2a /tmp/cc4B4nu6.o
 .riscv.attributes
                0x000000f6       0x2a /tmp/ccwkb6hr.o
 .riscv.attributes
                0x00000120       0x2a /tmp/ccrF7JeZ.o
 .riscv.attributes
                0x0000014a       0x2a /tmp/cc3HibGK.o
 .riscv.attributes
                0x00000174       0x2a /tmp/ccMjH7w0.o
 .riscv.attributes
                0x0000019e       0x2a /tmp/ccHiPauK.o
 .riscv.attributes
                0x000001c8       0x2a /tmp/cctBjqL6.o
 .riscv.attributes
                0x000001f2       0x2a /tmp/cc1A0u6M.o
 .riscv.attributes
                0x0000021c       0x2a /tmp/ccOf3hBF.o
 .riscv.attributes
                0x00000246       0x2a /tmp/ccR9yGst.o
 .riscv.attributes
                0x00000270       0x2a /tmp/cc7PChk9.o
 .riscv.attributes
                0x0000029a       0x2a /tmp/ccyLiiCO.o
 .riscv.attributes
                0x000002c4       0x2a /tmp/ccknpp2F.o
 .riscv.attributes
                0x000002ee       0x2a /tmp/ccIRBhwW.o
 .riscv.attributes
                0x00000318       0x2a /tmp/ccy8cHqe.o
 .riscv.attributes
                0x00000342       0x2a /tmp/ccG3QImu.o
 .riscv.attributes
                0x0000036c       0x2a /tmp/ccaUCmsP.o
 .riscv.attributes
                0x00000396       0x2a /tmp/cc2JmVh7.o
 .riscv.attributes
                0x000003c0       0x2a /tmp/cc1EiAcM.o
 .riscv.attributes
                0x000003ea       0x2a /tmp/ccZRldzH.o
 .riscv.attributes
                0x00000414       0x2a /tmp/ccULEvVb.o
 .riscv.attributes
                0x0000043e       0x2a /tmp/ccL1MfdX.o
 .riscv.attributes
                0x00000468       0x2a /tmp/ccFELqvp.o
 .riscv.attributes
                0x00000492       0x2a /tmp/ccfTbllc.o
 .riscv.attributes
                0x000004bc       0x2a /tmp/ccPziobx.o
 .riscv.attributes
                0x000004e6       0x2a /tmp/ccSCmMvx.o
 .riscv.attributes
                0x00000510       0x2a /tmp/cclqz2MS.o
 .riscv.attributes
                0x0000053a       0x2a /tmp/ccb69q2G.o
 .riscv.attributes
                0x00000564       0x2a /tmp/ccwV9frK.o
 .riscv.attributes
                0x0000058e       0x2a /tmp/ccTQCLU3.o
 .riscv.attributes
                0x000005b8       0x2a /tmp/ccKYGImA.o
 .riscv.attributes
                0x000005e2       0x2a /tmp/cc5wh7BZ.o
 .riscv.attributes
                0x0000060c       0x2a /tmp/ccuyE6Fl.o
 .riscv.attributes
                0x00000636       0x2a /tmp/ccOsM6Hr.o
 .riscv.attributes
                0x00000660       0x2a /tmp/ccWt1n3R.o

.comment        0x00000000       0x19
 .comment       0x00000000       0x19 /tmp/ccBivL5y.o
                                 0x1a (size before relaxing)
 .comment       0x00000019        0x0 /tmp/ccV9lxSU.o
                                 0x1a (size before relaxing)
 .comment       0x00000019        0x0 /tmp/cc4B4nu6.o
                                 0x1a (size before relaxing)
 .comment       0x00000019        0x0 /tmp/ccwkb6hr.o
                                 0x1a (size before relaxing)
 .comment       0x00000019        0x0 /tmp/ccrF7JeZ.o
                                 0x1a (size before relaxing)
 .comment       0x00000019        0x0 /tmp/cc3HibGK.o
                                 0x1a (size before relaxing)
 .comment       0x00000019        0x0 /tmp/ccMjH7w0.o
                                 0x1a (size before relaxing)
 .comment       0x00000019        0x0 /tmp/ccHiPauK.o
                                 0x1a (size before relaxing)
 .comment       0x00000019        0x0 /tmp/cctBjqL6.o
                                 0x1a (size before relaxing)
 .comment       0x00000019        0x0 /tmp/cc1A0u6M.o
                                 0x1a (size before relaxing)
 .comment       0x00000019        0x0 /tmp/ccOf3hBF.o
                                 0x1a (size before relaxing)
 .comment       0x00000019        0x0 /tmp/ccR9yGst.o
                                 0x1a (size before relaxing)
 .comment       0x00000019        0x0 /tmp/cc7PChk9.o
                                 0x1a (size before relaxing)
 .comment       0x00000019        0x0 /tmp/ccyLiiCO.o
                                 0x1a (size before relaxing)
 .comment       0x00000019        0x0 /tmp/ccknpp2F.o
                                 0x1a (size before relaxing)
 .comment       0x00000019        0x0 /tmp/ccIRBhwW.o
                                 0x1a (size before relaxing)
 .comment       0x00000019        0x0 /tmp/ccy8cHqe.o
                                 0x1a (size before relaxing)
 .comment       0x00000019        0x0 /tmp/ccG3QImu.o
                                 0x1a (size before relaxing)
 .comment       0x00000019        0x0 /tmp/ccaUCmsP.o
                                 0x1a (size before relaxing)
 .comment       0x00000019        0x0 /tmp/cc2JmVh7.o
                                 0x1a (size before relaxing)
 .comment       0x00000019        0x0 /tmp/cc1EiAcM.o
                                 0x1a (size before relaxing)
 .comment       0x00000019        0x0 /tmp/ccZRldzH.o
                                 0x1a (size before relaxing)
 .comment       0x00000019        0x0 /tmp/ccULEvVb.o
                                 0x1a (size before relaxing)
 .comment       0x00000019        0x0 /tmp/ccL1MfdX.o
                                 0x1a (size before relaxing)
 .comment       0x00000019        0x0 /tmp/ccFELqvp.o
                                 0x1a (size before relaxing)
 .comment       0x00000019        0x0 /tmp/ccfTbllc.o
                                 0x1a (size before relaxing)
 .comment       0x00000019        0x0 /tmp/ccPziobx.o
                                 0x1a (size before relaxing)
 .comment       0x00000019        0x0 /tmp/ccSCmMvx.o
                                 0x1a (size before relaxing)
 .comment       0x00000019        0x0 /tmp/cclqz2MS.o
                                 0x1a (size before relaxing)
 .comment       0x00000019        0x0 /tmp/ccb69q2G.o
                                 0x1a (size before relaxing)
 .comment       0x00000019        0x0 /tmp/ccwV9frK.o
                                 0x1a (size before relaxing)
 .comment       0x00000019        0x0 /tmp/ccTQCLU3.o
                                 0x1a (size before relaxing)
 .comment       0x00000019        0x0 /tmp/ccKYGImA.o
                                 0x1a (size before relaxing)
 .comment       0x00000019        0x0 /tmp/cc5wh7BZ.o
                                 0x1a (size before relaxing)
 .comment       0x00000019        0x0 /tmp/ccuyE6Fl.o
                                 0x1a (size before relaxing)
 .comment       0x00000019        0x0 /tmp/ccOsM6Hr.o
                                 0x1a (size before relaxing)
 .comment       0x00000019        0x0 /tmp/ccWt1n3R.o
                                 0x1a (size before relaxing)

.note.GNU-stack
                0x00000000        0x0
 .note.GNU-stack
                0x00000000        0x0 /tmp/ccBivL5y.o
 .note.GNU-stack
                0x00000000        0x0 /tmp/ccV9lxSU.o
 .note.GNU-stack
                0x00000000        0x0 /tmp/cc4B4nu6.o
 .note.GNU-stack
                0x00000000        0x0 /tmp/ccwkb6hr.o
 .note.GNU-stack
                0x00000000        0x0 /tmp/ccrF7JeZ.o
 .note.GNU-stack
                0x00000000        0x0 /tmp/cc3HibGK.o
 .note.GNU-stack
                0x00000000        0x0 /tmp/ccMjH7w0.o
 .note.GNU-stack
                0x00000000        0x0 /tmp/ccHiPauK.o
 .note.GNU-stack
                0x00000000        0x0 /tmp/cctBjqL6.o
 .note.GNU-stack
                0x00000000        0x0 /tmp/cc1A0u6M.o
 .note.GNU-stack
                0x00000000        0x0 /tmp/ccOf3hBF.o
 .note.GNU-stack
                0x00000000        0x0 /tmp/ccR9yGst.o
 .note.GNU-stack
                0x00000000        0x0 /tmp/cc7PChk9.o
 .note.GNU-stack
                0x00000000        0x0 /tmp/ccyLiiCO.o
 .note.GNU-stack
                0x00000000        0x0 /tmp/ccknpp2F.o
 .note.GNU-stack
                0x00000000        0x0 /tmp/ccIRBhwW.o
 .note.GNU-stack
                0x00000000        0x0 /tmp/ccy8cHqe.o
 .note.GNU-stack
                0x00000000        0x0 /tmp/ccG3QImu.o
 .note.GNU-stack
                0x00000000        0x0 /tmp/ccaUCmsP.o
 .note.GNU-stack
                0x00000000        0x0 /tmp/cc2JmVh7.o
 .note.GNU-stack
                0x00000000        0x0 /tmp/cc1EiAcM.o
 .note.GNU-stack
                0x00000000        0x0 /tmp/ccZRldzH.o
 .note.GNU-stack
                0x00000000        0x0 /tmp/ccULEvVb.o
 .note.GNU-stack
                0x00000000        0x0 /tmp/ccL1MfdX.o
 .note.GNU-stack
                0x00000000        0x0 /tmp/ccFELqvp.o
 .note.GNU-stack
                0x00000000        0x0 /tmp/ccfTbllc.o
 .note.GNU-stack
                0x00000000        0x0 /tmp/ccPziobx.o
 .note.GNU-stack
                0x00000000        0x0 /tmp/ccSCmMvx.o
 .note.GNU-stack
                0x00000000        0x0 /tmp/cclqz2MS.o
 .note.GNU-stack
                0x00000000        0x0 /tmp/ccb69q2G.o
 .note.GNU-stack
                0x00000000        0x0 /tmp/ccwV9frK.o
 .note.GNU-stack
                0x00000000        0x0 /tmp/ccTQCLU3.o
 .note.GNU-stack
                0x00000000        0x0 /tmp/ccKYGImA.o
 .note.GNU-stack
                0x00000000        0x0 /tmp/cc5wh7BZ.o
 .note.GNU-stack
                0x00000000        0x0 /tmp/ccuyE6Fl.o
 .note.GNU-stack
                0x00000000        0x0 /tmp/ccOsM6Hr.o
 .note.GNU-stack
                0x00000000        0x0 /tmp/ccWt1n3R.o

Cross Reference Table

Symbol                                            File
MYSPI_Init                                        /tmp/ccPziobx.o
MYSPI_Start                                       /tmp/ccPziobx.o
MYSPI_Stop                                        /tmp/ccPziobx.o
MYSPI_SwapByte                                    /tmp/ccPziobx.o
__divsi3                                          /tmp/cc8d1zc9.o
__lshrdi3                                         /tmp/cc3HibGK.o
__modsi3                                          /tmp/cc8d1zc9.o
__muldi3                                          /tmp/cczkFiPk.o
__mulsi3                                          /tmp/ccrF7JeZ.o
__udivsi3                                         /tmp/cc8d1zc9.o
__umodsi3                                         /tmp/cc8d1zc9.o
_ebss                                             /tmp/ccy0D5yk.o
_edata                                            /tmp/ccy0D5yk.o
_sbss                                             /tmp/ccy0D5yk.o
_sdata                                            /tmp/ccy0D5yk.o
_sidata                                           /tmp/ccy0D5yk.o
_stack_point                                      /tmp/ccy0D5yk.o
agencyshellRun                                    /tmp/ccL1MfdX.o
cg_add                                            /tmp/ccknpp2F.o
cg_addi                                           /tmp/ccknpp2F.o
cg_beq                                            /tmp/ccknpp2F.o
cg_bge                                            /tmp/ccknpp2F.o
cg_blt                                            /tmp/ccknpp2F.o
cg_bne                                            /tmp/ccknpp2F.o
cg_div                                            /tmp/ccknpp2F.o
cg_epilogue                                       /tmp/ccknpp2F.o
                                                  /tmp/ccIRBhwW.o
cg_jal                                            /tmp/ccknpp2F.o
cg_jalr                                           /tmp/ccknpp2F.o
cg_li                                             /tmp/ccknpp2F.o
cg_lui                                            /tmp/ccknpp2F.o
cg_lw                                             /tmp/ccknpp2F.o
cg_mul                                            /tmp/ccknpp2F.o
cg_prologue                                       /tmp/ccknpp2F.o
                                                  /tmp/ccIRBhwW.o
cg_rem                                            /tmp/ccknpp2F.o
cg_retval                                         /tmp/ccknpp2F.o
                                                  /tmp/ccIRBhwW.o
cg_sub                                            /tmp/ccknpp2F.o
cg_sw                                             /tmp/ccknpp2F.o
chdir                                             /tmp/cc1EiAcM.o
                                                  /tmp/ccZRldzH.o
codegen_init                                      /tmp/ccknpp2F.o
                                                  /tmp/ccIRBhwW.o
create_shell_env_varible                          /tmp/cc1EiAcM.o
                                                  /tmp/ccR9yGst.o
create_task                                       /tmp/ccKYGImA.o
createfile                                        /tmp/cc1EiAcM.o
                                                  /tmp/ccZRldzH.o
ctx_init                                          /tmp/cc5wh7BZ.o
                                                  /tmp/ccKYGImA.o
delay_ms                                          /tmp/ccwkb6hr.o
delete_task                                       /tmp/ccKYGImA.o
disk_initialize                                   /tmp/ccb69q2G.o
                                                  /tmp/ccwV9frK.o
disk_ioctl                                        /tmp/ccb69q2G.o
                                                  /tmp/ccwV9frK.o
disk_read                                         /tmp/ccb69q2G.o
                                                  /tmp/ccwV9frK.o
disk_status                                       /tmp/ccb69q2G.o
                                                  /tmp/ccwV9frK.o
disk_write                                        /tmp/ccb69q2G.o
                                                  /tmp/ccwV9frK.o
easy_print                                        /tmp/ccR9yGst.o
editCmd                                           /tmp/ccOsM6Hr.o
                                                  /tmp/ccL1MfdX.o
editor_build_line_offsets                         /tmp/ccOsM6Hr.o
editor_construct_path                             /tmp/ccOsM6Hr.o
editor_line_length                                /tmp/ccOsM6Hr.o
                                                  /tmp/ccWt1n3R.o
editor_render                                     /tmp/ccWt1n3R.o
                                                  /tmp/ccOsM6Hr.o
enter_load_from_ctx                               /tmp/cc5wh7BZ.o
                                                  /tmp/ccKYGImA.o
envChar                                           /tmp/cc1EiAcM.o
                                                  /tmp/ccL1MfdX.o
envFunc                                           /tmp/cc1EiAcM.o
                                                  /tmp/ccL1MfdX.o
envInt                                            /tmp/cc1EiAcM.o
                                                  /tmp/ccL1MfdX.o
envShort                                          /tmp/cc1EiAcM.o
                                                  /tmp/ccL1MfdX.o
envString                                         /tmp/cc1EiAcM.o
                                                  /tmp/ccL1MfdX.o
exec_func                                         /tmp/cc1EiAcM.o
exit_save_to_ctx                                  /tmp/cc5wh7BZ.o
                                                  /tmp/ccKYGImA.o
f_chdir                                           /tmp/ccwV9frK.o
                                                  /tmp/cc1EiAcM.o
f_chdrive                                         /tmp/ccwV9frK.o
f_close                                           /tmp/ccwV9frK.o
                                                  /tmp/ccOsM6Hr.o
                                                  /tmp/cc1EiAcM.o
                                                  /tmp/cc7PChk9.o
f_closedir                                        /tmp/ccwV9frK.o
                                                  /tmp/cc1EiAcM.o
f_getcwd                                          /tmp/ccwV9frK.o
                                                  /tmp/cc1EiAcM.o
f_getfree                                         /tmp/ccwV9frK.o
f_gets                                            /tmp/ccwV9frK.o
f_lseek                                           /tmp/ccwV9frK.o
f_mkdir                                           /tmp/ccwV9frK.o
f_mkfs                                            /tmp/ccwV9frK.o
                                                  /tmp/ccTQCLU3.o
f_mount                                           /tmp/ccwV9frK.o
                                                  /tmp/ccTQCLU3.o
f_open                                            /tmp/ccwV9frK.o
                                                  /tmp/ccOsM6Hr.o
                                                  /tmp/cc1EiAcM.o
                                                  /tmp/cc7PChk9.o
f_opendir                                         /tmp/ccwV9frK.o
                                                  /tmp/cc1EiAcM.o
f_printf                                          /tmp/ccwV9frK.o
f_putc                                            /tmp/ccwV9frK.o
f_puts                                            /tmp/ccwV9frK.o
f_read                                            /tmp/ccwV9frK.o
                                                  /tmp/ccOsM6Hr.o
                                                  /tmp/cc7PChk9.o
f_readdir                                         /tmp/ccwV9frK.o
                                                  /tmp/cc1EiAcM.o
f_rename                                          /tmp/ccwV9frK.o
f_stat                                            /tmp/ccwV9frK.o
f_sync                                            /tmp/ccwV9frK.o
f_truncate                                        /tmp/ccwV9frK.o
f_unlink                                          /tmp/ccwV9frK.o
f_write                                           /tmp/ccwV9frK.o
                                                  /tmp/ccOsM6Hr.o
fccCmd                                            /tmp/cc7PChk9.o
                                                  /tmp/ccL1MfdX.o
fcc_compile                                       /tmp/ccIRBhwW.o
                                                  /tmp/cc7PChk9.o
ff_oem2uni                                        /tmp/ccSCmMvx.o
                                                  /tmp/ccwV9frK.o
ff_uni2oem                                        /tmp/ccSCmMvx.o
                                                  /tmp/ccwV9frK.o
ff_wtoupper                                       /tmp/ccSCmMvx.o
                                                  /tmp/ccwV9frK.o
fnode                                             /tmp/cc1EiAcM.o
fs_Flash                                          /tmp/ccTQCLU3.o
getcwd                                            /tmp/cc1EiAcM.o
                                                  /tmp/ccZRldzH.o
gpio_hal_get_level                                /tmp/ccOf3hBF.o
                                                  /tmp/ccPziobx.o
gpio_hal_input_enable                             /tmp/ccOf3hBF.o
                                                  /tmp/ccPziobx.o
gpio_hal_output_enable                            /tmp/ccOf3hBF.o
                                                  /tmp/ccPziobx.o
gpio_hal_read_update                              /tmp/ccOf3hBF.o
                                                  /tmp/ccPziobx.o
gpio_hal_set_fcfg                                 /tmp/ccOf3hBF.o
gpio_hal_set_level                                /tmp/ccOf3hBF.o
                                                  /tmp/ccPziobx.o
gpio_hal_set_mux                                  /tmp/ccOf3hBF.o
gpio_hal_write_update                             /tmp/ccOf3hBF.o
                                                  /tmp/ccPziobx.o
hal_delay_ms                                      /tmp/ccwkb6hr.o
hal_delay_s                                       /tmp/ccwkb6hr.o
hal_delay_us                                      /tmp/ccwkb6hr.o
                                                  /tmp/ccOf3hBF.o
hal_get_sys_tick                                  /tmp/ccwkb6hr.o
hal_hp_uart_config                                /tmp/ccV9lxSU.o
hal_hp_uart_init                                  /tmp/ccV9lxSU.o
hal_hp_uart_putstr                                /tmp/ccV9lxSU.o
hal_hp_uart_recv                                  /tmp/ccV9lxSU.o
hal_hp_uart_recv_str                              /tmp/ccV9lxSU.o
hal_hp_uart_send                                  /tmp/ccV9lxSU.o
hal_i2c_deinit                                    /tmp/cc1A0u6M.o
hal_i2c_init                                      /tmp/cc1A0u6M.o
hal_i2c_read_nbyte                                /tmp/cc1A0u6M.o
hal_i2c_write_nbyte                               /tmp/cc1A0u6M.o
hal_qspi_deinit                                   /tmp/cctBjqL6.o
hal_qspi_init                                     /tmp/cctBjqL6.o
                                                  /tmp/ccy8cHqe.o
hal_qspi_read                                     /tmp/cctBjqL6.o
                                                  /tmp/ccy8cHqe.o
hal_qspi_send_cmd                                 /tmp/cctBjqL6.o
                                                  /tmp/ccy8cHqe.o
hal_qspi_write                                    /tmp/cctBjqL6.o
                                                  /tmp/ccy8cHqe.o
hal_qspi_write_16                                 /tmp/cctBjqL6.o
hal_qspi_write_16_cs                              /tmp/cctBjqL6.o
hal_qspi_write_32                                 /tmp/cctBjqL6.o
hal_qspi_write_32_cs                              /tmp/cctBjqL6.o
hal_qspi_write_32x16                              /tmp/cctBjqL6.o
hal_qspi_write_32x16_cs                           /tmp/cctBjqL6.o
hal_qspi_write_32x2                               /tmp/cctBjqL6.o
hal_qspi_write_32x2_cs                            /tmp/cctBjqL6.o
hal_qspi_write_32x32                              /tmp/cctBjqL6.o
hal_qspi_write_32x32_cs                           /tmp/cctBjqL6.o
hal_qspi_write_32x8                               /tmp/cctBjqL6.o
hal_qspi_write_32x8_cs                            /tmp/cctBjqL6.o
hal_qspi_write_8                                  /tmp/cctBjqL6.o
hal_qspi_write_8_cs                               /tmp/cctBjqL6.o
hal_sys_getchar                                   /tmp/ccHiPauK.o
                                                  /tmp/ccOsM6Hr.o
                                                  /tmp/cc1EiAcM.o
hal_sys_putchar                                   /tmp/ccHiPauK.o
                                                  /tmp/ccWt1n3R.o
                                                  /tmp/cc1EiAcM.o
                                                  /tmp/ccMjH7w0.o
hal_sys_putstr                                    /tmp/ccHiPauK.o
hal_sys_tick_init                                 /tmp/ccwkb6hr.o
hal_sys_uart_init                                 /tmp/ccHiPauK.o
                                                  /tmp/ccR9yGst.o
lexer_init                                        /tmp/ccyLiiCO.o
                                                  /tmp/cc7PChk9.o
lexer_next                                        /tmp/ccyLiiCO.o
                                                  /tmp/ccIRBhwW.o
listdir                                           /tmp/cc1EiAcM.o
                                                  /tmp/ccZRldzH.o
load_filesystem                                   /tmp/ccTQCLU3.o
                                                  /tmp/ccZRldzH.o
load_shell                                        /tmp/ccZRldzH.o
                                                  /tmp/ccR9yGst.o
log_close                                         /tmp/ccuyE6Fl.o
log_init                                          /tmp/ccuyE6Fl.o
log_print                                         /tmp/ccuyE6Fl.o
                                                  /tmp/ccTQCLU3.o
                                                  /tmp/ccwV9frK.o
                                                  /tmp/ccb69q2G.o
                                                  /tmp/cc1EiAcM.o
                                                  /tmp/cc2JmVh7.o
                                                  /tmp/ccaUCmsP.o
                                                  /tmp/ccG3QImu.o
                                                  /tmp/ccOf3hBF.o
main                                              /tmp/ccR9yGst.o
                                                  /tmp/ccy0D5yk.o
memcmp                                            /tmp/ccBivL5y.o
                                                  /tmp/ccwV9frK.o
memcpy                                            /tmp/ccBivL5y.o
                                                  /tmp/cc5wh7BZ.o
                                                  /tmp/ccKYGImA.o
                                                  /tmp/ccTQCLU3.o
                                                  /tmp/ccwV9frK.o
                                                  /tmp/ccfTbllc.o
                                                  /tmp/ccFELqvp.o
                                                  /tmp/ccG3QImu.o
                                                  /tmp/ccR9yGst.o
memmove                                           /tmp/ccBivL5y.o
                                                  /tmp/ccOsM6Hr.o
memset                                            /tmp/ccBivL5y.o
                                                  /tmp/ccOsM6Hr.o
                                                  /tmp/cc5wh7BZ.o
                                                  /tmp/ccKYGImA.o
                                                  /tmp/ccwV9frK.o
                                                  /tmp/ccZRldzH.o
                                                  /tmp/cc2JmVh7.o
                                                  /tmp/ccaUCmsP.o
                                                  /tmp/cc7PChk9.o
pairedChars                                       /tmp/ccFELqvp.o
printf                                            /tmp/ccMjH7w0.o
                                                  /tmp/ccWt1n3R.o
                                                  /tmp/ccOsM6Hr.o
                                                  /tmp/ccuyE6Fl.o
                                                  /tmp/ccKYGImA.o
                                                  /tmp/ccTQCLU3.o
                                                  /tmp/ccZRldzH.o
                                                  /tmp/ccIRBhwW.o
                                                  /tmp/cc7PChk9.o
                                                  /tmp/ccR9yGst.o
pwm_hal_disable                                   /tmp/cc4B4nu6.o
pwm_hal_enable                                    /tmp/cc4B4nu6.o
pwm_hal_init                                      /tmp/cc4B4nu6.o
pwm_hal_set_compare                               /tmp/cc4B4nu6.o
res_Flash                                         /tmp/ccTQCLU3.o
resume_task                                       /tmp/ccKYGImA.o
set_fnode                                         /tmp/cc1EiAcM.o
                                                  /tmp/ccR9yGst.o
sfud_chip_erase                                   /tmp/ccG3QImu.o
sfud_device_init                                  /tmp/ccG3QImu.o
sfud_erase                                        /tmp/ccG3QImu.o
sfud_erase_write                                  /tmp/ccG3QImu.o
                                                  /tmp/ccb69q2G.o
sfud_get_device                                   /tmp/ccG3QImu.o
sfud_get_device_num                               /tmp/ccG3QImu.o
sfud_get_device_table                             /tmp/ccG3QImu.o
                                                  /tmp/ccb69q2G.o
sfud_init                                         /tmp/ccG3QImu.o
                                                  /tmp/ccb69q2G.o
sfud_read                                         /tmp/ccG3QImu.o
                                                  /tmp/ccb69q2G.o
sfud_read_sfdp                                    /tmp/ccaUCmsP.o
                                                  /tmp/ccG3QImu.o
sfud_read_status                                  /tmp/ccG3QImu.o
                                                  /tmp/ccb69q2G.o
sfud_sfdp_get_suitable_eraser                     /tmp/ccaUCmsP.o
                                                  /tmp/ccG3QImu.o
sfud_spi_port_init                                /tmp/ccy8cHqe.o
                                                  /tmp/ccG3QImu.o
sfud_write                                        /tmp/ccG3QImu.o
sfud_write_status                                 /tmp/ccG3QImu.o
shellBackspace                                    /tmp/ccFELqvp.o
                                                  /tmp/ccL1MfdX.o
shellCD                                           /tmp/ccULEvVb.o
                                                  /tmp/ccL1MfdX.o
shellCheckPermission                              /tmp/ccFELqvp.o
shellClear                                        /tmp/ccFELqvp.o
                                                  /tmp/ccL1MfdX.o
shellClearCommandLine                             /tmp/ccFELqvp.o
shellCmds                                         /tmp/ccFELqvp.o
                                                  /tmp/ccL1MfdX.o
shellCommandCount                                 /tmp/ccL1MfdX.o
                                                  /tmp/ccFELqvp.o
shellCommandList                                  /tmp/ccL1MfdX.o
                                                  /tmp/ccFELqvp.o
shellCompanionAdd                                 /tmp/ccfTbllc.o
                                                  /tmp/ccZRldzH.o
shellCompanionDel                                 /tmp/ccfTbllc.o
shellCompanionGet                                 /tmp/ccfTbllc.o
                                                  /tmp/ccULEvVb.o
shellDelete                                       /tmp/ccFELqvp.o
                                                  /tmp/ccL1MfdX.o
shellDeleteByte                                   /tmp/ccFELqvp.o
shellDeleteCommandLine                            /tmp/ccFELqvp.o
shellDown                                         /tmp/ccFELqvp.o
                                                  /tmp/ccL1MfdX.o
shellEnter                                        /tmp/ccFELqvp.o
                                                  /tmp/ccL1MfdX.o
shellExec                                         /tmp/ccFELqvp.o
shellExecute                                      /tmp/ccFELqvp.o
                                                  /tmp/ccL1MfdX.o
shellExtParsePara                                 /tmp/cc2JmVh7.o
                                                  /tmp/ccFELqvp.o
shellExtRun                                       /tmp/cc2JmVh7.o
                                                  /tmp/ccFELqvp.o
shellFsInit                                       /tmp/ccULEvVb.o
                                                  /tmp/ccZRldzH.o
shellGetCurrent                                   /tmp/ccFELqvp.o
                                                  /tmp/ccOsM6Hr.o
                                                  /tmp/ccL1MfdX.o
                                                  /tmp/ccULEvVb.o
                                                  /tmp/cc7PChk9.o
shellGetVarValue                                  /tmp/ccFELqvp.o
                                                  /tmp/cc2JmVh7.o
shellHandler                                      /tmp/ccFELqvp.o
shellHelp                                         /tmp/ccFELqvp.o
                                                  /tmp/ccL1MfdX.o
shellInit                                         /tmp/ccFELqvp.o
                                                  /tmp/ccZRldzH.o
shellInsertByte                                   /tmp/ccFELqvp.o
shellKeys                                         /tmp/ccFELqvp.o
                                                  /tmp/ccL1MfdX.o
shellLS                                           /tmp/ccULEvVb.o
                                                  /tmp/ccL1MfdX.o
shellLeft                                         /tmp/ccFELqvp.o
                                                  /tmp/ccL1MfdX.o
shellListAll                                      /tmp/ccFELqvp.o
shellListCommand                                  /tmp/ccFELqvp.o
shellListItem                                     /tmp/ccFELqvp.o
shellListKey                                      /tmp/ccFELqvp.o
shellListUser                                     /tmp/ccFELqvp.o
shellListVar                                      /tmp/ccFELqvp.o
shellNormalInput                                  /tmp/ccFELqvp.o
shellPrint                                        /tmp/ccFELqvp.o
shellRead                                         /tmp/cc1EiAcM.o
                                                  /tmp/ccZRldzH.o
shellRemove                                       /tmp/ccFELqvp.o
shellRight                                        /tmp/ccFELqvp.o
                                                  /tmp/ccL1MfdX.o
shellRun                                          /tmp/ccFELqvp.o
                                                  /tmp/ccL1MfdX.o
shellRunCommand                                   /tmp/ccFELqvp.o
shellSeekCommand                                  /tmp/ccFELqvp.o
                                                  /tmp/cc2JmVh7.o
shellSetUser                                      /tmp/ccFELqvp.o
shellSetVar                                       /tmp/ccFELqvp.o
                                                  /tmp/ccL1MfdX.o
shellSetVarValue                                  /tmp/ccFELqvp.o
shellSplit                                        /tmp/ccFELqvp.o
shellTOUCH                                        /tmp/ccULEvVb.o
                                                  /tmp/ccL1MfdX.o
shellTab                                          /tmp/ccFELqvp.o
                                                  /tmp/ccL1MfdX.o
shellTask                                         /tmp/ccFELqvp.o
                                                  /tmp/ccZRldzH.o
shellToDec                                        /tmp/ccFELqvp.o
shellToHex                                        /tmp/ccFELqvp.o
shellUp                                           /tmp/ccFELqvp.o
                                                  /tmp/ccL1MfdX.o
shellUsers                                        /tmp/ccFELqvp.o
                                                  /tmp/ccL1MfdX.o
shellVars                                         /tmp/ccFELqvp.o
                                                  /tmp/ccL1MfdX.o
shellWrite                                        /tmp/cc1EiAcM.o
                                                  /tmp/ccZRldzH.o
shellWriteString                                  /tmp/ccFELqvp.o
                                                  /tmp/ccULEvVb.o
shellfs                                           /tmp/ccfTbllc.o
snprintf                                          /tmp/ccMjH7w0.o
                                                  /tmp/ccWt1n3R.o
                                                  /tmp/ccOsM6Hr.o
                                                  /tmp/cc1EiAcM.o
                                                  /tmp/ccIRBhwW.o
                                                  /tmp/cc7PChk9.o
strchr                                            /tmp/ccBivL5y.o
                                                  /tmp/ccwV9frK.o
strcmp                                            /tmp/ccBivL5y.o
                                                  /tmp/ccFELqvp.o
                                                  /tmp/ccyLiiCO.o
strcpy                                            /tmp/ccBivL5y.o
                                                  /tmp/cc1EiAcM.o
strlen                                            /tmp/ccBivL5y.o
                                                  /tmp/ccOsM6Hr.o
                                                  /tmp/ccFELqvp.o
                                                  /tmp/cc1EiAcM.o
                                                  /tmp/ccyLiiCO.o
                                                  /tmp/cc7PChk9.o
strncmp                                           /tmp/ccBivL5y.o
                                                  /tmp/ccFELqvp.o
strncpy                                           /tmp/ccBivL5y.o
                                                  /tmp/ccyLiiCO.o
suspend_task                                      /tmp/ccKYGImA.o
task_scheduler                                    /tmp/ccKYGImA.o
vprintf                                           /tmp/ccMjH7w0.o
                                                  /tmp/ccuyE6Fl.o
vsnprintf                                         /tmp/ccMjH7w0.o
                                                  /tmp/ccFELqvp.o
work_buf                                          /tmp/ccTQCLU3.o
