
build/retrosoc_fw:     file format elf32-littleriscv


Disassembly of section .text:

00000000 <start>:
       0:	00000093          	li	ra,0
       4:	30020117          	auipc	sp,0x30020
       8:	ffc10113          	addi	sp,sp,-4 # 30020000 <_stack_point>
       c:	00000193          	li	gp,0
      10:	00000213          	li	tp,0
      14:	00000293          	li	t0,0
      18:	00000313          	li	t1,0
      1c:	00000393          	li	t2,0
      20:	00000413          	li	s0,0
      24:	00000493          	li	s1,0
      28:	00000513          	li	a0,0
      2c:	00000593          	li	a1,0
      30:	00000613          	li	a2,0
      34:	00000693          	li	a3,0
      38:	00000713          	li	a4,0
      3c:	00000793          	li	a5,0
      40:	00000813          	li	a6,0
      44:	00000893          	li	a7,0
      48:	00000913          	li	s2,0
      4c:	00000993          	li	s3,0
      50:	00000a13          	li	s4,0
      54:	00000a93          	li	s5,0
      58:	00000b13          	li	s6,0
      5c:	00000b93          	li	s7,0
      60:	00000c13          	li	s8,0
      64:	00000c93          	li	s9,0
      68:	00000d13          	li	s10,0
      6c:	00000d93          	li	s11,0
      70:	00000e13          	li	t3,0
      74:	00000e93          	li	t4,0
      78:	00000f13          	li	t5,0
      7c:	00000f93          	li	t6,0
      80:	00022517          	auipc	a0,0x22
      84:	34450513          	addi	a0,a0,836 # 223c4 <_etext>
      88:	30000597          	auipc	a1,0x30000
      8c:	f7858593          	addi	a1,a1,-136 # 30000000 <flash_table>
      90:	30000617          	auipc	a2,0x30000
      94:	fec60613          	addi	a2,a2,-20 # 3000007c <cmd_data.3>
      98:	00c5dc63          	bge	a1,a2,b0 <end_init_data>

0000009c <loop_init_data>:
      9c:	00052683          	lw	a3,0(a0)
      a0:	00d5a023          	sw	a3,0(a1)
      a4:	00450513          	addi	a0,a0,4
      a8:	00458593          	addi	a1,a1,4
      ac:	fec5c8e3          	blt	a1,a2,9c <loop_init_data>

000000b0 <end_init_data>:
      b0:	30000517          	auipc	a0,0x30000
      b4:	fcc50513          	addi	a0,a0,-52 # 3000007c <cmd_data.3>
      b8:	3000f597          	auipc	a1,0x3000f
      bc:	2d858593          	addi	a1,a1,728 # 3000f390 <_ebss>
      c0:	00b55863          	bge	a0,a1,d0 <end_init_bss>

000000c4 <loop_init_bss>:
      c4:	00052023          	sw	zero,0(a0)
      c8:	00450513          	addi	a0,a0,4
      cc:	feb54ce3          	blt	a0,a1,c4 <loop_init_bss>

000000d0 <end_init_bss>:
      d0:	58d0c0ef          	jal	ce5c <main>

000000d4 <loop>:
      d4:	0000006f          	j	d4 <loop>

000000d8 <__muldi3>:
      d8:	00050613          	mv	a2,a0
      dc:	00000513          	li	a0,0
      e0:	0015f693          	andi	a3,a1,1
      e4:	00068463          	beqz	a3,ec <__muldi3+0x14>
      e8:	00c50533          	add	a0,a0,a2
      ec:	0015d593          	srli	a1,a1,0x1
      f0:	00161613          	slli	a2,a2,0x1
      f4:	fe0596e3          	bnez	a1,e0 <__muldi3+0x8>
      f8:	00008067          	ret

000000fc <__divsi3>:
      fc:	06054063          	bltz	a0,15c <__umodsi3+0x10>
     100:	0605c663          	bltz	a1,16c <__umodsi3+0x20>

00000104 <__udivsi3>:
     104:	00058613          	mv	a2,a1
     108:	00050593          	mv	a1,a0
     10c:	fff00513          	li	a0,-1
     110:	02060c63          	beqz	a2,148 <__udivsi3+0x44>
     114:	00100693          	li	a3,1
     118:	00b67a63          	bgeu	a2,a1,12c <__udivsi3+0x28>
     11c:	00c05863          	blez	a2,12c <__udivsi3+0x28>
     120:	00161613          	slli	a2,a2,0x1
     124:	00169693          	slli	a3,a3,0x1
     128:	feb66ae3          	bltu	a2,a1,11c <__udivsi3+0x18>
     12c:	00000513          	li	a0,0
     130:	00c5e663          	bltu	a1,a2,13c <__udivsi3+0x38>
     134:	40c585b3          	sub	a1,a1,a2
     138:	00d56533          	or	a0,a0,a3
     13c:	0016d693          	srli	a3,a3,0x1
     140:	00165613          	srli	a2,a2,0x1
     144:	fe0696e3          	bnez	a3,130 <__udivsi3+0x2c>
     148:	00008067          	ret

0000014c <__umodsi3>:
     14c:	00008293          	mv	t0,ra
     150:	fb5ff0ef          	jal	104 <__udivsi3>
     154:	00058513          	mv	a0,a1
     158:	00028067          	jr	t0
     15c:	40a00533          	neg	a0,a0
     160:	00b04863          	bgtz	a1,170 <__umodsi3+0x24>
     164:	40b005b3          	neg	a1,a1
     168:	f9dff06f          	j	104 <__udivsi3>
     16c:	40b005b3          	neg	a1,a1
     170:	00008293          	mv	t0,ra
     174:	f91ff0ef          	jal	104 <__udivsi3>
     178:	40a00533          	neg	a0,a0
     17c:	00028067          	jr	t0

00000180 <__modsi3>:
     180:	00008293          	mv	t0,ra
     184:	0005ca63          	bltz	a1,198 <__modsi3+0x18>
     188:	00054c63          	bltz	a0,1a0 <__modsi3+0x20>
     18c:	f79ff0ef          	jal	104 <__udivsi3>
     190:	00058513          	mv	a0,a1
     194:	00028067          	jr	t0
     198:	40b005b3          	neg	a1,a1
     19c:	fe0558e3          	bgez	a0,18c <__modsi3+0xc>
     1a0:	40a00533          	neg	a0,a0
     1a4:	f61ff0ef          	jal	104 <__udivsi3>
     1a8:	40b00533          	neg	a0,a1
     1ac:	00028067          	jr	t0

000001b0 <memcpy>:
     1b0:	00000793          	li	a5,0
     1b4:	00f61463          	bne	a2,a5,1bc <memcpy+0xc>
     1b8:	00008067          	ret
     1bc:	00f58733          	add	a4,a1,a5
     1c0:	00074683          	lbu	a3,0(a4)
     1c4:	00f50733          	add	a4,a0,a5
     1c8:	00178793          	addi	a5,a5,1
     1cc:	00d70023          	sb	a3,0(a4)
     1d0:	fe5ff06f          	j	1b4 <memcpy+0x4>

000001d4 <memset>:
     1d4:	00c50633          	add	a2,a0,a2
     1d8:	00050793          	mv	a5,a0
     1dc:	00c79463          	bne	a5,a2,1e4 <memset+0x10>
     1e0:	00008067          	ret
     1e4:	00178793          	addi	a5,a5,1
     1e8:	feb78fa3          	sb	a1,-1(a5)
     1ec:	ff1ff06f          	j	1dc <memset+0x8>

000001f0 <strlen>:
     1f0:	00000793          	li	a5,0
     1f4:	00f50733          	add	a4,a0,a5
     1f8:	00074703          	lbu	a4,0(a4)
     1fc:	00071663          	bnez	a4,208 <strlen+0x18>
     200:	00078513          	mv	a0,a5
     204:	00008067          	ret
     208:	00178793          	addi	a5,a5,1
     20c:	fe9ff06f          	j	1f4 <strlen+0x4>

00000210 <memcmp>:
     210:	00000713          	li	a4,0
     214:	00e61663          	bne	a2,a4,220 <memcmp+0x10>
     218:	00000513          	li	a0,0
     21c:	00008067          	ret
     220:	00e507b3          	add	a5,a0,a4
     224:	00170713          	addi	a4,a4,1
     228:	00e586b3          	add	a3,a1,a4
     22c:	0007c783          	lbu	a5,0(a5)
     230:	fff6c683          	lbu	a3,-1(a3)
     234:	fed780e3          	beq	a5,a3,214 <memcmp+0x4>
     238:	40d78533          	sub	a0,a5,a3
     23c:	00008067          	ret

00000240 <strchr>:
     240:	0ff5f593          	zext.b	a1,a1
     244:	00054783          	lbu	a5,0(a0)
     248:	00b78863          	beq	a5,a1,258 <strchr+0x18>
     24c:	00150513          	addi	a0,a0,1
     250:	fe079ae3          	bnez	a5,244 <strchr+0x4>
     254:	00000513          	li	a0,0
     258:	00008067          	ret

0000025c <strcmp>:
     25c:	00050793          	mv	a5,a0
     260:	0007c683          	lbu	a3,0(a5)
     264:	0005c703          	lbu	a4,0(a1)
     268:	40e68533          	sub	a0,a3,a4
     26c:	00068663          	beqz	a3,278 <strcmp+0x1c>
     270:	00051463          	bnez	a0,278 <strcmp+0x1c>
     274:	00071463          	bnez	a4,27c <strcmp+0x20>
     278:	00008067          	ret
     27c:	00178793          	addi	a5,a5,1
     280:	00158593          	addi	a1,a1,1
     284:	fddff06f          	j	260 <strcmp+0x4>

00000288 <strncpy>:
     288:	00b57863          	bgeu	a0,a1,298 <strncpy+0x10>
     28c:	00000793          	li	a5,0
     290:	04f61063          	bne	a2,a5,2d0 <strncpy+0x48>
     294:	00008067          	ret
     298:	fff60813          	addi	a6,a2,-1
     29c:	010586b3          	add	a3,a1,a6
     2a0:	fea6e6e3          	bltu	a3,a0,28c <strncpy+0x4>
     2a4:	40c00633          	neg	a2,a2
     2a8:	00000793          	li	a5,0
     2ac:	00f61463          	bne	a2,a5,2b4 <strncpy+0x2c>
     2b0:	00008067          	ret
     2b4:	00f68733          	add	a4,a3,a5
     2b8:	00074583          	lbu	a1,0(a4)
     2bc:	01078733          	add	a4,a5,a6
     2c0:	00e50733          	add	a4,a0,a4
     2c4:	00b70023          	sb	a1,0(a4)
     2c8:	fff78793          	addi	a5,a5,-1
     2cc:	fe1ff06f          	j	2ac <strncpy+0x24>
     2d0:	00f58733          	add	a4,a1,a5
     2d4:	00074683          	lbu	a3,0(a4)
     2d8:	00f50733          	add	a4,a0,a5
     2dc:	00178793          	addi	a5,a5,1
     2e0:	00d70023          	sb	a3,0(a4)
     2e4:	fadff06f          	j	290 <strncpy+0x8>

000002e8 <strcpy>:
     2e8:	00050793          	mv	a5,a0
     2ec:	0005c703          	lbu	a4,0(a1)
     2f0:	00158593          	addi	a1,a1,1
     2f4:	00178793          	addi	a5,a5,1
     2f8:	fee78fa3          	sb	a4,-1(a5)
     2fc:	fe0718e3          	bnez	a4,2ec <strcpy+0x4>
     300:	00008067          	ret

00000304 <strncmp>:
     304:	00000713          	li	a4,0
     308:	00c71663          	bne	a4,a2,314 <strncmp+0x10>
     30c:	00000513          	li	a0,0
     310:	00008067          	ret
     314:	00e507b3          	add	a5,a0,a4
     318:	00e586b3          	add	a3,a1,a4
     31c:	0007c783          	lbu	a5,0(a5)
     320:	0006c683          	lbu	a3,0(a3)
     324:	00d79463          	bne	a5,a3,32c <strncmp+0x28>
     328:	00079663          	bnez	a5,334 <strncmp+0x30>
     32c:	40d78533          	sub	a0,a5,a3
     330:	00008067          	ret
     334:	00170713          	addi	a4,a4,1
     338:	fd1ff06f          	j	308 <strncmp+0x4>

0000033c <memmove>:
     33c:	04b50e63          	beq	a0,a1,398 <memmove+0x5c>
     340:	04060c63          	beqz	a2,398 <memmove+0x5c>
     344:	02a5fc63          	bgeu	a1,a0,37c <memmove+0x40>
     348:	00c586b3          	add	a3,a1,a2
     34c:	02d57863          	bgeu	a0,a3,37c <memmove+0x40>
     350:	fff64593          	not	a1,a2
     354:	00000793          	li	a5,0
     358:	fff78793          	addi	a5,a5,-1
     35c:	00f59463          	bne	a1,a5,364 <memmove+0x28>
     360:	00008067          	ret
     364:	00f68733          	add	a4,a3,a5
     368:	00074803          	lbu	a6,0(a4)
     36c:	00f60733          	add	a4,a2,a5
     370:	00e50733          	add	a4,a0,a4
     374:	01070023          	sb	a6,0(a4)
     378:	fe1ff06f          	j	358 <memmove+0x1c>
     37c:	00000793          	li	a5,0
     380:	00f58733          	add	a4,a1,a5
     384:	00074683          	lbu	a3,0(a4)
     388:	00f50733          	add	a4,a0,a5
     38c:	00178793          	addi	a5,a5,1
     390:	00d70023          	sb	a3,0(a4)
     394:	fef616e3          	bne	a2,a5,380 <memmove+0x44>
     398:	00008067          	ret

0000039c <hal_hp_uart_init>:
     39c:	044aa7b7          	lui	a5,0x44aa
     3a0:	20078793          	addi	a5,a5,512 # 44aa200 <_etext+0x4487e3c>
     3a4:	02a7d7b3          	divu	a5,a5,a0
     3a8:	20003737          	lui	a4,0x20003
     3ac:	00072023          	sw	zero,0(a4) # 20003000 <_etext+0x1ffe0c3c>
     3b0:	00f00693          	li	a3,15
     3b4:	fff78793          	addi	a5,a5,-1
     3b8:	00f72223          	sw	a5,4(a4)
     3bc:	00d72623          	sw	a3,12(a4)
     3c0:	00c00693          	li	a3,12
     3c4:	00d72623          	sw	a3,12(a4)
     3c8:	01f00793          	li	a5,31
     3cc:	00f72023          	sw	a5,0(a4)
     3d0:	00008067          	ret

000003d4 <hal_hp_uart_config>:
     3d4:	00052703          	lw	a4,0(a0)
     3d8:	044aa7b7          	lui	a5,0x44aa
     3dc:	20078793          	addi	a5,a5,512 # 44aa200 <_etext+0x4487e3c>
     3e0:	02e7d7b3          	divu	a5,a5,a4
     3e4:	200036b7          	lui	a3,0x20003
     3e8:	0006a023          	sw	zero,0(a3) # 20003000 <_etext+0x1ffe0c3c>
     3ec:	00f00713          	li	a4,15
     3f0:	fff78793          	addi	a5,a5,-1
     3f4:	00f6a223          	sw	a5,4(a3)
     3f8:	00e6a623          	sw	a4,12(a3)
     3fc:	00c00713          	li	a4,12
     400:	00e6a623          	sw	a4,12(a3)
     404:	00654783          	lbu	a5,6(a0)
     408:	00554703          	lbu	a4,5(a0)
     40c:	ffb78793          	addi	a5,a5,-5
     410:	00171713          	slli	a4,a4,0x1
     414:	00e7e7b3          	or	a5,a5,a4
     418:	00454703          	lbu	a4,4(a0)
     41c:	00271713          	slli	a4,a4,0x2
     420:	00e7e7b3          	or	a5,a5,a4
     424:	00f6a023          	sw	a5,0(a3)
     428:	00008067          	ret

0000042c <hal_hp_uart_send>:
     42c:	20003737          	lui	a4,0x20003
     430:	01070713          	addi	a4,a4,16 # 20003010 <_etext+0x1ffe0c4c>
     434:	00072783          	lw	a5,0(a4)
     438:	1007f793          	andi	a5,a5,256
     43c:	fe079ce3          	bnez	a5,434 <hal_hp_uart_send+0x8>
     440:	200037b7          	lui	a5,0x20003
     444:	00a7a423          	sw	a0,8(a5) # 20003008 <_etext+0x1ffe0c44>
     448:	00008067          	ret

0000044c <hal_hp_uart_putstr>:
     44c:	ff010113          	addi	sp,sp,-16
     450:	00812423          	sw	s0,8(sp)
     454:	00112623          	sw	ra,12(sp)
     458:	00050413          	mv	s0,a0
     45c:	00044503          	lbu	a0,0(s0)
     460:	00051a63          	bnez	a0,474 <hal_hp_uart_putstr+0x28>
     464:	00c12083          	lw	ra,12(sp)
     468:	00812403          	lw	s0,8(sp)
     46c:	01010113          	addi	sp,sp,16
     470:	00008067          	ret
     474:	00140413          	addi	s0,s0,1
     478:	fb5ff0ef          	jal	42c <hal_hp_uart_send>
     47c:	fe1ff06f          	j	45c <hal_hp_uart_putstr+0x10>

00000480 <hal_hp_uart_recv>:
     480:	20003737          	lui	a4,0x20003
     484:	01070713          	addi	a4,a4,16 # 20003010 <_etext+0x1ffe0c4c>
     488:	00072783          	lw	a5,0(a4)
     48c:	0807f793          	andi	a5,a5,128
     490:	fe079ce3          	bnez	a5,488 <hal_hp_uart_recv+0x8>
     494:	200037b7          	lui	a5,0x20003
     498:	0087a783          	lw	a5,8(a5) # 20003008 <_etext+0x1ffe0c44>
     49c:	00f50023          	sb	a5,0(a0)
     4a0:	00008067          	ret

000004a4 <hal_hp_uart_recv_str>:
     4a4:	ff010113          	addi	sp,sp,-16
     4a8:	00812423          	sw	s0,8(sp)
     4ac:	00912223          	sw	s1,4(sp)
     4b0:	00112623          	sw	ra,12(sp)
     4b4:	00050413          	mv	s0,a0
     4b8:	00a00493          	li	s1,10
     4bc:	00040513          	mv	a0,s0
     4c0:	fc1ff0ef          	jal	480 <hal_hp_uart_recv>
     4c4:	00044783          	lbu	a5,0(s0)
     4c8:	00140413          	addi	s0,s0,1
     4cc:	fe9798e3          	bne	a5,s1,4bc <hal_hp_uart_recv_str+0x18>
     4d0:	00040023          	sb	zero,0(s0)
     4d4:	00c12083          	lw	ra,12(sp)
     4d8:	00812403          	lw	s0,8(sp)
     4dc:	00412483          	lw	s1,4(sp)
     4e0:	01010113          	addi	sp,sp,16
     4e4:	00008067          	ret

000004e8 <pwm_hal_init>:
     4e8:	00059c63          	bnez	a1,500 <pwm_hal_init+0x18>
     4ec:	00062703          	lw	a4,0(a2)
     4f0:	200047b7          	lui	a5,0x20004
     4f4:	00e7a223          	sw	a4,4(a5) # 20004004 <_etext+0x1ffe1c40>
     4f8:	00462703          	lw	a4,4(a2)
     4fc:	00e7a623          	sw	a4,12(a5)
     500:	00000513          	li	a0,0
     504:	00008067          	ret

00000508 <pwm_hal_set_compare>:
     508:	02059463          	bnez	a1,530 <pwm_hal_set_compare+0x28>
     50c:	00200793          	li	a5,2
     510:	02f60a63          	beq	a2,a5,544 <pwm_hal_set_compare+0x3c>
     514:	00c7ea63          	bltu	a5,a2,528 <pwm_hal_set_compare+0x20>
     518:	02061063          	bnez	a2,538 <pwm_hal_set_compare+0x30>
     51c:	200047b7          	lui	a5,0x20004
     520:	00d7a823          	sw	a3,16(a5) # 20004010 <_etext+0x1ffe1c4c>
     524:	00c0006f          	j	530 <pwm_hal_set_compare+0x28>
     528:	00300793          	li	a5,3
     52c:	02f60263          	beq	a2,a5,550 <pwm_hal_set_compare+0x48>
     530:	00000513          	li	a0,0
     534:	00008067          	ret
     538:	200047b7          	lui	a5,0x20004
     53c:	00d7aa23          	sw	a3,20(a5) # 20004014 <_etext+0x1ffe1c50>
     540:	ff1ff06f          	j	530 <pwm_hal_set_compare+0x28>
     544:	200047b7          	lui	a5,0x20004
     548:	00d7ac23          	sw	a3,24(a5) # 20004018 <_etext+0x1ffe1c54>
     54c:	fe5ff06f          	j	530 <pwm_hal_set_compare+0x28>
     550:	200047b7          	lui	a5,0x20004
     554:	00d7ae23          	sw	a3,28(a5) # 2000401c <_etext+0x1ffe1c58>
     558:	fd9ff06f          	j	530 <pwm_hal_set_compare+0x28>

0000055c <pwm_hal_enable>:
     55c:	00059863          	bnez	a1,56c <pwm_hal_enable+0x10>
     560:	200047b7          	lui	a5,0x20004
     564:	00300713          	li	a4,3
     568:	00e7a023          	sw	a4,0(a5) # 20004000 <_etext+0x1ffe1c3c>
     56c:	00000513          	li	a0,0
     570:	00008067          	ret

00000574 <pwm_hal_disable>:
     574:	00059663          	bnez	a1,580 <pwm_hal_disable+0xc>
     578:	200047b7          	lui	a5,0x20004
     57c:	0007a023          	sw	zero,0(a5) # 20004000 <_etext+0x1ffe1c3c>
     580:	00000513          	li	a0,0
     584:	00008067          	ret

00000588 <hal_delay_us>:
     588:	04051063          	bnez	a0,5c8 <hal_delay_us+0x40>
     58c:	10002737          	lui	a4,0x10002
     590:	10000793          	li	a5,256
     594:	00f72023          	sw	a5,0(a4) # 10002000 <_etext+0xffdfc3c>
     598:	04800793          	li	a5,72
     59c:	02f585b3          	mul	a1,a1,a5
     5a0:	00870793          	addi	a5,a4,8
     5a4:	10100693          	li	a3,257
     5a8:	fff58593          	addi	a1,a1,-1
     5ac:	00b7a023          	sw	a1,0(a5)
     5b0:	00d72023          	sw	a3,0(a4)
     5b4:	0007a703          	lw	a4,0(a5)
     5b8:	fe071ee3          	bnez	a4,5b4 <hal_delay_us+0x2c>
     5bc:	00000793          	li	a5,0
     5c0:	00078513          	mv	a0,a5
     5c4:	00008067          	ret
     5c8:	00100713          	li	a4,1
     5cc:	00070793          	mv	a5,a4
     5d0:	fee518e3          	bne	a0,a4,5c0 <hal_delay_us+0x38>
     5d4:	10003737          	lui	a4,0x10003
     5d8:	10000793          	li	a5,256
     5dc:	00f72023          	sw	a5,0(a4) # 10003000 <_etext+0xffe0c3c>
     5e0:	04800793          	li	a5,72
     5e4:	02f585b3          	mul	a1,a1,a5
     5e8:	00870793          	addi	a5,a4,8
     5ec:	10100693          	li	a3,257
     5f0:	fff58593          	addi	a1,a1,-1
     5f4:	00b7a023          	sw	a1,0(a5)
     5f8:	00d72023          	sw	a3,0(a4)
     5fc:	0007a703          	lw	a4,0(a5)
     600:	fe071ee3          	bnez	a4,5fc <hal_delay_us+0x74>
     604:	fb9ff06f          	j	5bc <hal_delay_us+0x34>

00000608 <hal_delay_ms>:
     608:	3e800793          	li	a5,1000
     60c:	02f585b3          	mul	a1,a1,a5
     610:	f79ff06f          	j	588 <hal_delay_us>

00000614 <delay_ms>:
     614:	00050593          	mv	a1,a0
     618:	00000513          	li	a0,0
     61c:	fedff06f          	j	608 <hal_delay_ms>

00000620 <hal_delay_s>:
     620:	3e800793          	li	a5,1000
     624:	02f585b3          	mul	a1,a1,a5
     628:	fe1ff06f          	j	608 <hal_delay_ms>

0000062c <hal_sys_tick_init>:
     62c:	100027b7          	lui	a5,0x10002
     630:	00050a63          	beqz	a0,644 <hal_sys_tick_init+0x18>
     634:	00100713          	li	a4,1
     638:	00070793          	mv	a5,a4
     63c:	02e51263          	bne	a0,a4,660 <hal_sys_tick_init+0x34>
     640:	100037b7          	lui	a5,0x10003
     644:	10000713          	li	a4,256
     648:	00e7a023          	sw	a4,0(a5) # 10003000 <_etext+0xffe0c3c>
     64c:	fff00693          	li	a3,-1
     650:	00d7a423          	sw	a3,8(a5)
     654:	10100713          	li	a4,257
     658:	00e7a023          	sw	a4,0(a5)
     65c:	00000793          	li	a5,0
     660:	00078513          	mv	a0,a5
     664:	00008067          	ret

00000668 <hal_get_sys_tick>:
     668:	100027b7          	lui	a5,0x10002
     66c:	00050a63          	beqz	a0,680 <hal_get_sys_tick+0x18>
     670:	00100713          	li	a4,1
     674:	00000793          	li	a5,0
     678:	00e51863          	bne	a0,a4,688 <hal_get_sys_tick+0x20>
     67c:	100037b7          	lui	a5,0x10003
     680:	0087a783          	lw	a5,8(a5) # 10003008 <_etext+0xffe0c44>
     684:	fff7c793          	not	a5,a5
     688:	00078513          	mv	a0,a5
     68c:	00008067          	ret

00000690 <__mulsi3>:
     690:	00050793          	mv	a5,a0
     694:	00000513          	li	a0,0
     698:	00079463          	bnez	a5,6a0 <__mulsi3+0x10>
     69c:	00008067          	ret
     6a0:	0017f713          	andi	a4,a5,1
     6a4:	02b70733          	mul	a4,a4,a1
     6a8:	0017d793          	srli	a5,a5,0x1
     6ac:	00159593          	slli	a1,a1,0x1
     6b0:	00e50533          	add	a0,a0,a4
     6b4:	fe5ff06f          	j	698 <__mulsi3+0x8>

000006b8 <__lshrdi3>:
     6b8:	02060e63          	beqz	a2,6f4 <__lshrdi3+0x3c>
     6bc:	03f00793          	li	a5,63
     6c0:	02c7cc63          	blt	a5,a2,6f8 <__lshrdi3+0x40>
     6c4:	01f00793          	li	a5,31
     6c8:	02c7c063          	blt	a5,a2,6e8 <__lshrdi3+0x30>
     6cc:	02000793          	li	a5,32
     6d0:	40c787b3          	sub	a5,a5,a2
     6d4:	00f597b3          	sll	a5,a1,a5
     6d8:	00c55533          	srl	a0,a0,a2
     6dc:	00a7e533          	or	a0,a5,a0
     6e0:	00c5d5b3          	srl	a1,a1,a2
     6e4:	00008067          	ret
     6e8:	fe060613          	addi	a2,a2,-32
     6ec:	00c5d533          	srl	a0,a1,a2
     6f0:	00000593          	li	a1,0
     6f4:	00008067          	ret
     6f8:	00000513          	li	a0,0
     6fc:	ff5ff06f          	j	6f0 <__lshrdi3+0x38>

00000700 <itoa_decimal>:
     700:	ff010113          	addi	sp,sp,-16
     704:	02055c63          	bgez	a0,73c <itoa_decimal+0x3c>
     708:	40a00533          	neg	a0,a0
     70c:	00100813          	li	a6,1
     710:	00410793          	addi	a5,sp,4
     714:	00000713          	li	a4,0
     718:	00a00313          	li	t1,10
     71c:	026568b3          	rem	a7,a0,t1
     720:	00170713          	addi	a4,a4,1
     724:	00178793          	addi	a5,a5,1
     728:	02654533          	div	a0,a0,t1
     72c:	03088893          	addi	a7,a7,48
     730:	ff178fa3          	sb	a7,-1(a5)
     734:	fe0514e3          	bnez	a0,71c <itoa_decimal+0x1c>
     738:	0200006f          	j	758 <itoa_decimal+0x58>
     73c:	00050663          	beqz	a0,748 <itoa_decimal+0x48>
     740:	00000813          	li	a6,0
     744:	fcdff06f          	j	710 <itoa_decimal+0x10>
     748:	03000793          	li	a5,48
     74c:	00f10223          	sb	a5,4(sp)
     750:	00000813          	li	a6,0
     754:	00100713          	li	a4,1
     758:	fd068e93          	addi	t4,a3,-48
     75c:	00080e13          	mv	t3,a6
     760:	080e9663          	bnez	t4,7ec <itoa_decimal+0xec>
     764:	08080463          	beqz	a6,7ec <itoa_decimal+0xec>
     768:	02d00793          	li	a5,45
     76c:	00f58023          	sb	a5,0(a1)
     770:	00100793          	li	a5,1
     774:	00f58333          	add	t1,a1,a5
     778:	00030893          	mv	a7,t1
     77c:	00060513          	mv	a0,a2
     780:	01070833          	add	a6,a4,a6
     784:	06a84863          	blt	a6,a0,7f4 <itoa_decimal+0xf4>
     788:	00070513          	mv	a0,a4
     78c:	00000693          	li	a3,0
     790:	01064463          	blt	a2,a6,798 <itoa_decimal+0x98>
     794:	410606b3          	sub	a3,a2,a6
     798:	00f687b3          	add	a5,a3,a5
     79c:	000e8c63          	beqz	t4,7b4 <itoa_decimal+0xb4>
     7a0:	000e0a63          	beqz	t3,7b4 <itoa_decimal+0xb4>
     7a4:	006686b3          	add	a3,a3,t1
     7a8:	02d00613          	li	a2,45
     7ac:	00178793          	addi	a5,a5,1
     7b0:	00c68023          	sb	a2,0(a3)
     7b4:	00f586b3          	add	a3,a1,a5
     7b8:	00410813          	addi	a6,sp,4
     7bc:	fff70713          	addi	a4,a4,-1
     7c0:	00e80633          	add	a2,a6,a4
     7c4:	00064603          	lbu	a2,0(a2)
     7c8:	00168693          	addi	a3,a3,1
     7cc:	fec68fa3          	sb	a2,-1(a3)
     7d0:	fe0716e3          	bnez	a4,7bc <itoa_decimal+0xbc>
     7d4:	00a585b3          	add	a1,a1,a0
     7d8:	00f585b3          	add	a1,a1,a5
     7dc:	00058023          	sb	zero,0(a1)
     7e0:	00f50533          	add	a0,a0,a5
     7e4:	01010113          	addi	sp,sp,16
     7e8:	00008067          	ret
     7ec:	00000793          	li	a5,0
     7f0:	f85ff06f          	j	774 <itoa_decimal+0x74>
     7f4:	00d88023          	sb	a3,0(a7)
     7f8:	fff50513          	addi	a0,a0,-1
     7fc:	00188893          	addi	a7,a7,1
     800:	f85ff06f          	j	784 <itoa_decimal+0x84>

00000804 <itoa_hex>:
     804:	fe010113          	addi	sp,sp,-32
     808:	06060a63          	beqz	a2,87c <itoa_hex+0x78>
     80c:	00021637          	lui	a2,0x21
     810:	80c60613          	addi	a2,a2,-2036 # 2080c <log_level_colors+0x24>
     814:	06051a63          	bnez	a0,888 <itoa_hex+0x84>
     818:	03000793          	li	a5,48
     81c:	00f10623          	sb	a5,12(sp)
     820:	00100793          	li	a5,1
     824:	00058613          	mv	a2,a1
     828:	00d58833          	add	a6,a1,a3
     82c:	40c80533          	sub	a0,a6,a2
     830:	08a7c263          	blt	a5,a0,8b4 <itoa_hex+0xb0>
     834:	00078513          	mv	a0,a5
     838:	00000713          	li	a4,0
     83c:	00f6c463          	blt	a3,a5,844 <itoa_hex+0x40>
     840:	40f68733          	sub	a4,a3,a5
     844:	00e586b3          	add	a3,a1,a4
     848:	00c10813          	addi	a6,sp,12
     84c:	fff78793          	addi	a5,a5,-1
     850:	00f80633          	add	a2,a6,a5
     854:	00064603          	lbu	a2,0(a2)
     858:	00168693          	addi	a3,a3,1
     85c:	fec68fa3          	sb	a2,-1(a3)
     860:	fe0796e3          	bnez	a5,84c <itoa_hex+0x48>
     864:	00a585b3          	add	a1,a1,a0
     868:	00e585b3          	add	a1,a1,a4
     86c:	00058023          	sb	zero,0(a1)
     870:	00e50533          	add	a0,a0,a4
     874:	02010113          	addi	sp,sp,32
     878:	00008067          	ret
     87c:	00021637          	lui	a2,0x21
     880:	82060613          	addi	a2,a2,-2016 # 20820 <log_level_colors+0x38>
     884:	f91ff06f          	j	814 <itoa_hex+0x10>
     888:	00c10813          	addi	a6,sp,12
     88c:	00000793          	li	a5,0
     890:	00f57893          	andi	a7,a0,15
     894:	011608b3          	add	a7,a2,a7
     898:	0008c883          	lbu	a7,0(a7)
     89c:	00455513          	srli	a0,a0,0x4
     8a0:	00178793          	addi	a5,a5,1
     8a4:	01180023          	sb	a7,0(a6)
     8a8:	00180813          	addi	a6,a6,1
     8ac:	fe0512e3          	bnez	a0,890 <itoa_hex+0x8c>
     8b0:	f75ff06f          	j	824 <itoa_hex+0x20>
     8b4:	00e60023          	sb	a4,0(a2)
     8b8:	00160613          	addi	a2,a2,1
     8bc:	f71ff06f          	j	82c <itoa_hex+0x28>

000008c0 <puts_helper>:
     8c0:	ff010113          	addi	sp,sp,-16
     8c4:	00812423          	sw	s0,8(sp)
     8c8:	00912223          	sw	s1,4(sp)
     8cc:	00112623          	sw	ra,12(sp)
     8d0:	00050493          	mv	s1,a0
     8d4:	00000413          	li	s0,0
     8d8:	008487b3          	add	a5,s1,s0
     8dc:	0007c503          	lbu	a0,0(a5)
     8e0:	00051e63          	bnez	a0,8fc <puts_helper+0x3c>
     8e4:	00c12083          	lw	ra,12(sp)
     8e8:	00040513          	mv	a0,s0
     8ec:	00812403          	lw	s0,8(sp)
     8f0:	00412483          	lw	s1,4(sp)
     8f4:	01010113          	addi	sp,sp,16
     8f8:	00008067          	ret
     8fc:	700000ef          	jal	ffc <hal_sys_putchar>
     900:	00140413          	addi	s0,s0,1
     904:	fd5ff06f          	j	8d8 <puts_helper+0x18>

00000908 <vprintf>:
     908:	fa010113          	addi	sp,sp,-96
     90c:	04812c23          	sw	s0,88(sp)
     910:	04912a23          	sw	s1,84(sp)
     914:	05212823          	sw	s2,80(sp)
     918:	05312623          	sw	s3,76(sp)
     91c:	05412423          	sw	s4,72(sp)
     920:	05512223          	sw	s5,68(sp)
     924:	05612023          	sw	s6,64(sp)
     928:	03712e23          	sw	s7,60(sp)
     92c:	03812c23          	sw	s8,56(sp)
     930:	04112e23          	sw	ra,92(sp)
     934:	03912a23          	sw	s9,52(sp)
     938:	00050913          	mv	s2,a0
     93c:	00058493          	mv	s1,a1
     940:	00000413          	li	s0,0
     944:	02500993          	li	s3,37
     948:	03000a13          	li	s4,48
     94c:	00900a93          	li	s5,9
     950:	00a00b13          	li	s6,10
     954:	07800b93          	li	s7,120
     958:	06200c13          	li	s8,98
     95c:	00094503          	lbu	a0,0(s2)
     960:	02051e63          	bnez	a0,99c <vprintf+0x94>
     964:	05c12083          	lw	ra,92(sp)
     968:	00040513          	mv	a0,s0
     96c:	05812403          	lw	s0,88(sp)
     970:	05412483          	lw	s1,84(sp)
     974:	05012903          	lw	s2,80(sp)
     978:	04c12983          	lw	s3,76(sp)
     97c:	04812a03          	lw	s4,72(sp)
     980:	04412a83          	lw	s5,68(sp)
     984:	04012b03          	lw	s6,64(sp)
     988:	03c12b83          	lw	s7,60(sp)
     98c:	03812c03          	lw	s8,56(sp)
     990:	03412c83          	lw	s9,52(sp)
     994:	06010113          	addi	sp,sp,96
     998:	00008067          	ret
     99c:	1b351863          	bne	a0,s3,b4c <vprintf+0x244>
     9a0:	00194703          	lbu	a4,1(s2)
     9a4:	1a070463          	beqz	a4,b4c <vprintf+0x244>
     9a8:	07471063          	bne	a4,s4,a08 <vprintf+0x100>
     9ac:	00290913          	addi	s2,s2,2
     9b0:	00000613          	li	a2,0
     9b4:	0100006f          	j	9c4 <vprintf+0xbc>
     9b8:	03660633          	mul	a2,a2,s6
     9bc:	00068913          	mv	s2,a3
     9c0:	00c78633          	add	a2,a5,a2
     9c4:	00094503          	lbu	a0,0(s2)
     9c8:	00190693          	addi	a3,s2,1
     9cc:	fd050793          	addi	a5,a0,-48
     9d0:	0ff7f593          	zext.b	a1,a5
     9d4:	febaf2e3          	bgeu	s5,a1,9b8 <vprintf+0xb0>
     9d8:	00abec63          	bltu	s7,a0,9f0 <vprintf+0xe8>
     9dc:	02ac6c63          	bltu	s8,a0,a14 <vprintf+0x10c>
     9e0:	02500793          	li	a5,37
     9e4:	16f50463          	beq	a0,a5,b4c <vprintf+0x244>
     9e8:	05800793          	li	a5,88
     9ec:	0af50863          	beq	a0,a5,a9c <vprintf+0x194>
     9f0:	02500513          	li	a0,37
     9f4:	608000ef          	jal	ffc <hal_sys_putchar>
     9f8:	00094503          	lbu	a0,0(s2)
     9fc:	00240413          	addi	s0,s0,2
     a00:	5fc000ef          	jal	ffc <hal_sys_putchar>
     a04:	06c0006f          	j	a70 <vprintf+0x168>
     a08:	00190913          	addi	s2,s2,1
     a0c:	02000713          	li	a4,32
     a10:	fa1ff06f          	j	9b0 <vprintf+0xa8>
     a14:	f9d50513          	addi	a0,a0,-99
     a18:	0ff57513          	zext.b	a0,a0
     a1c:	01500793          	li	a5,21
     a20:	fca7e8e3          	bltu	a5,a0,9f0 <vprintf+0xe8>
     a24:	0000d7b7          	lui	a5,0xd
     a28:	ea478793          	addi	a5,a5,-348 # cea4 <main+0x48>
     a2c:	00251513          	slli	a0,a0,0x2
     a30:	00f50533          	add	a0,a0,a5
     a34:	00052783          	lw	a5,0(a0)
     a38:	00078067          	jr	a5
     a3c:	0004c503          	lbu	a0,0(s1)
     a40:	00140413          	addi	s0,s0,1
     a44:	5b8000ef          	jal	ffc <hal_sys_putchar>
     a48:	00448493          	addi	s1,s1,4
     a4c:	0240006f          	j	a70 <vprintf+0x168>
     a50:	0004a503          	lw	a0,0(s1)
     a54:	00448c93          	addi	s9,s1,4
     a58:	00051663          	bnez	a0,a64 <vprintf+0x15c>
     a5c:	00021537          	lui	a0,0x21
     a60:	83450513          	addi	a0,a0,-1996 # 20834 <log_level_colors+0x4c>
     a64:	e5dff0ef          	jal	8c0 <puts_helper>
     a68:	00a40433          	add	s0,s0,a0
     a6c:	000c8493          	mv	s1,s9
     a70:	00190913          	addi	s2,s2,1
     a74:	ee9ff06f          	j	95c <vprintf+0x54>
     a78:	00060693          	mv	a3,a2
     a7c:	00000613          	li	a2,0
     a80:	0004a503          	lw	a0,0(s1)
     a84:	01010593          	addi	a1,sp,16
     a88:	d7dff0ef          	jal	804 <itoa_hex>
     a8c:	01010513          	addi	a0,sp,16
     a90:	e31ff0ef          	jal	8c0 <puts_helper>
     a94:	00a40433          	add	s0,s0,a0
     a98:	fb1ff06f          	j	a48 <vprintf+0x140>
     a9c:	00060693          	mv	a3,a2
     aa0:	00100613          	li	a2,1
     aa4:	fddff06f          	j	a80 <vprintf+0x178>
     aa8:	03000513          	li	a0,48
     aac:	00c12623          	sw	a2,12(sp)
     ab0:	00e12423          	sw	a4,8(sp)
     ab4:	0004ac83          	lw	s9,0(s1)
     ab8:	544000ef          	jal	ffc <hal_sys_putchar>
     abc:	07800513          	li	a0,120
     ac0:	53c000ef          	jal	ffc <hal_sys_putchar>
     ac4:	00812703          	lw	a4,8(sp)
     ac8:	00c12683          	lw	a3,12(sp)
     acc:	00240413          	addi	s0,s0,2
     ad0:	00000613          	li	a2,0
     ad4:	01010593          	addi	a1,sp,16
     ad8:	000c8513          	mv	a0,s9
     adc:	fadff06f          	j	a88 <vprintf+0x180>
     ae0:	00194583          	lbu	a1,1(s2)
     ae4:	06c00793          	li	a5,108
     ae8:	00290913          	addi	s2,s2,2
     aec:	00f58463          	beq	a1,a5,af4 <vprintf+0x1ec>
     af0:	00068913          	mv	s2,a3
     af4:	00094783          	lbu	a5,0(s2)
     af8:	05800693          	li	a3,88
     afc:	0df7f593          	andi	a1,a5,223
     b00:	00d59a63          	bne	a1,a3,b14 <vprintf+0x20c>
     b04:	fa878793          	addi	a5,a5,-88
     b08:	00060693          	mv	a3,a2
     b0c:	0017b613          	seqz	a2,a5
     b10:	f71ff06f          	j	a80 <vprintf+0x178>
     b14:	f9c78793          	addi	a5,a5,-100
     b18:	0ff7f793          	zext.b	a5,a5
     b1c:	01100693          	li	a3,17
     b20:	ecf6e8e3          	bltu	a3,a5,9f0 <vprintf+0xe8>
     b24:	fffe06b7          	lui	a3,0xfffe0
     b28:	fde68693          	addi	a3,a3,-34 # fffdffde <_stack_point+0xcffbffde>
     b2c:	40f6d7b3          	sra	a5,a3,a5
     b30:	0017f793          	andi	a5,a5,1
     b34:	ea079ee3          	bnez	a5,9f0 <vprintf+0xe8>
     b38:	0004a503          	lw	a0,0(s1)
     b3c:	00070693          	mv	a3,a4
     b40:	01010593          	addi	a1,sp,16
     b44:	bbdff0ef          	jal	700 <itoa_decimal>
     b48:	f45ff06f          	j	a8c <vprintf+0x184>
     b4c:	4b0000ef          	jal	ffc <hal_sys_putchar>
     b50:	00140413          	addi	s0,s0,1
     b54:	f1dff06f          	j	a70 <vprintf+0x168>

00000b58 <vsnprintf>:
     b58:	fc010113          	addi	sp,sp,-64
     b5c:	03612023          	sw	s6,32(sp)
     b60:	02112e23          	sw	ra,60(sp)
     b64:	02812c23          	sw	s0,56(sp)
     b68:	02912a23          	sw	s1,52(sp)
     b6c:	03212823          	sw	s2,48(sp)
     b70:	03312623          	sw	s3,44(sp)
     b74:	03412423          	sw	s4,40(sp)
     b78:	03512223          	sw	s5,36(sp)
     b7c:	00000b13          	li	s6,0
     b80:	02058463          	beqz	a1,ba8 <vsnprintf+0x50>
     b84:	00050413          	mv	s0,a0
     b88:	00060993          	mv	s3,a2
     b8c:	00068793          	mv	a5,a3
     b90:	fff58493          	addi	s1,a1,-1
     b94:	00000b13          	li	s6,0
     b98:	02500913          	li	s2,37
     b9c:	0009c683          	lbu	a3,0(s3)
     ba0:	02069a63          	bnez	a3,bd4 <vsnprintf+0x7c>
     ba4:	00040023          	sb	zero,0(s0)
     ba8:	03c12083          	lw	ra,60(sp)
     bac:	03812403          	lw	s0,56(sp)
     bb0:	03412483          	lw	s1,52(sp)
     bb4:	03012903          	lw	s2,48(sp)
     bb8:	02c12983          	lw	s3,44(sp)
     bbc:	02812a03          	lw	s4,40(sp)
     bc0:	02412a83          	lw	s5,36(sp)
     bc4:	000b0513          	mv	a0,s6
     bc8:	02012b03          	lw	s6,32(sp)
     bcc:	04010113          	addi	sp,sp,64
     bd0:	00008067          	ret
     bd4:	39269e63          	bne	a3,s2,f70 <vsnprintf+0x418>
     bd8:	0019c703          	lbu	a4,1(s3)
     bdc:	38070a63          	beqz	a4,f70 <vsnprintf+0x418>
     be0:	03000693          	li	a3,48
     be4:	06d71e63          	bne	a4,a3,c60 <vsnprintf+0x108>
     be8:	00298993          	addi	s3,s3,2
     bec:	00000613          	li	a2,0
     bf0:	00900813          	li	a6,9
     bf4:	00a00313          	li	t1,10
     bf8:	0100006f          	j	c08 <vsnprintf+0xb0>
     bfc:	02660633          	mul	a2,a2,t1
     c00:	00050993          	mv	s3,a0
     c04:	00c68633          	add	a2,a3,a2
     c08:	0009c583          	lbu	a1,0(s3)
     c0c:	00198513          	addi	a0,s3,1
     c10:	fd058693          	addi	a3,a1,-48
     c14:	0ff6f893          	zext.b	a7,a3
     c18:	ff1872e3          	bgeu	a6,a7,bfc <vsnprintf+0xa4>
     c1c:	07800693          	li	a3,120
     c20:	00b6ee63          	bltu	a3,a1,c3c <vsnprintf+0xe4>
     c24:	06200693          	li	a3,98
     c28:	04b6e263          	bltu	a3,a1,c6c <vsnprintf+0x114>
     c2c:	02500693          	li	a3,37
     c30:	24d58663          	beq	a1,a3,e7c <vsnprintf+0x324>
     c34:	05800693          	li	a3,88
     c38:	18d58863          	beq	a1,a3,dc8 <vsnprintf+0x270>
     c3c:	00048e63          	beqz	s1,c58 <vsnprintf+0x100>
     c40:	02500713          	li	a4,37
     c44:	00e40023          	sb	a4,0(s0)
     c48:	00100713          	li	a4,1
     c4c:	30e49863          	bne	s1,a4,f5c <vsnprintf+0x404>
     c50:	00940433          	add	s0,s0,s1
     c54:	00000493          	li	s1,0
     c58:	002b0513          	addi	a0,s6,2
     c5c:	0580006f          	j	cb4 <vsnprintf+0x15c>
     c60:	00198993          	addi	s3,s3,1
     c64:	02000713          	li	a4,32
     c68:	f85ff06f          	j	bec <vsnprintf+0x94>
     c6c:	f9d58593          	addi	a1,a1,-99
     c70:	0ff5f593          	zext.b	a1,a1
     c74:	01500693          	li	a3,21
     c78:	fcb6e2e3          	bltu	a3,a1,c3c <vsnprintf+0xe4>
     c7c:	0000d6b7          	lui	a3,0xd
     c80:	efc68693          	addi	a3,a3,-260 # cefc <main+0xa0>
     c84:	00259593          	slli	a1,a1,0x2
     c88:	00d585b3          	add	a1,a1,a3
     c8c:	0005a683          	lw	a3,0(a1)
     c90:	00068067          	jr	a3
     c94:	00478713          	addi	a4,a5,4
     c98:	00048a63          	beqz	s1,cac <vsnprintf+0x154>
     c9c:	0007a783          	lw	a5,0(a5)
     ca0:	fff48493          	addi	s1,s1,-1
     ca4:	00140413          	addi	s0,s0,1
     ca8:	fef40fa3          	sb	a5,-1(s0)
     cac:	001b0513          	addi	a0,s6,1
     cb0:	00070793          	mv	a5,a4
     cb4:	00198993          	addi	s3,s3,1
     cb8:	00050b13          	mv	s6,a0
     cbc:	ee1ff06f          	j	b9c <vsnprintf+0x44>
     cc0:	00478693          	addi	a3,a5,4
     cc4:	0007a783          	lw	a5,0(a5)
     cc8:	00079663          	bnez	a5,cd4 <vsnprintf+0x17c>
     ccc:	000217b7          	lui	a5,0x21
     cd0:	83478793          	addi	a5,a5,-1996 # 20834 <log_level_colors+0x4c>
     cd4:	000b0513          	mv	a0,s6
     cd8:	41650733          	sub	a4,a0,s6
     cdc:	00e78733          	add	a4,a5,a4
     ce0:	00074703          	lbu	a4,0(a4)
     ce4:	00071663          	bnez	a4,cf0 <vsnprintf+0x198>
     ce8:	00068793          	mv	a5,a3
     cec:	fc9ff06f          	j	cb4 <vsnprintf+0x15c>
     cf0:	00048863          	beqz	s1,d00 <vsnprintf+0x1a8>
     cf4:	00e40023          	sb	a4,0(s0)
     cf8:	fff48493          	addi	s1,s1,-1
     cfc:	00140413          	addi	s0,s0,1
     d00:	00150513          	addi	a0,a0,1
     d04:	fd5ff06f          	j	cd8 <vsnprintf+0x180>
     d08:	0007a503          	lw	a0,0(a5)
     d0c:	00070693          	mv	a3,a4
     d10:	00010593          	mv	a1,sp
     d14:	00478a93          	addi	s5,a5,4
     d18:	9e9ff0ef          	jal	700 <itoa_decimal>
     d1c:	00000793          	li	a5,0
     d20:	00048c63          	beqz	s1,d38 <vsnprintf+0x1e0>
     d24:	00f10733          	add	a4,sp,a5
     d28:	00074703          	lbu	a4,0(a4)
     d2c:	fff48493          	addi	s1,s1,-1
     d30:	00140413          	addi	s0,s0,1
     d34:	fee40fa3          	sb	a4,-1(s0)
     d38:	00178793          	addi	a5,a5,1
     d3c:	fef512e3          	bne	a0,a5,d20 <vsnprintf+0x1c8>
     d40:	01650533          	add	a0,a0,s6
     d44:	000a8793          	mv	a5,s5
     d48:	f6dff06f          	j	cb4 <vsnprintf+0x15c>
     d4c:	0007a503          	lw	a0,0(a5)
     d50:	00070693          	mv	a3,a4
     d54:	00010593          	mv	a1,sp
     d58:	00478a93          	addi	s5,a5,4
     d5c:	9a5ff0ef          	jal	700 <itoa_decimal>
     d60:	00000793          	li	a5,0
     d64:	00048c63          	beqz	s1,d7c <vsnprintf+0x224>
     d68:	00f10733          	add	a4,sp,a5
     d6c:	00074703          	lbu	a4,0(a4)
     d70:	fff48493          	addi	s1,s1,-1
     d74:	00140413          	addi	s0,s0,1
     d78:	fee40fa3          	sb	a4,-1(s0)
     d7c:	00178793          	addi	a5,a5,1
     d80:	fef512e3          	bne	a0,a5,d64 <vsnprintf+0x20c>
     d84:	fbdff06f          	j	d40 <vsnprintf+0x1e8>
     d88:	0007a503          	lw	a0,0(a5)
     d8c:	00060693          	mv	a3,a2
     d90:	00010593          	mv	a1,sp
     d94:	00000613          	li	a2,0
     d98:	00478a93          	addi	s5,a5,4
     d9c:	a69ff0ef          	jal	804 <itoa_hex>
     da0:	00000793          	li	a5,0
     da4:	00048c63          	beqz	s1,dbc <vsnprintf+0x264>
     da8:	00f10733          	add	a4,sp,a5
     dac:	00074703          	lbu	a4,0(a4)
     db0:	fff48493          	addi	s1,s1,-1
     db4:	00140413          	addi	s0,s0,1
     db8:	fee40fa3          	sb	a4,-1(s0)
     dbc:	00178793          	addi	a5,a5,1
     dc0:	fef512e3          	bne	a0,a5,da4 <vsnprintf+0x24c>
     dc4:	f7dff06f          	j	d40 <vsnprintf+0x1e8>
     dc8:	0007a503          	lw	a0,0(a5)
     dcc:	00060693          	mv	a3,a2
     dd0:	00010593          	mv	a1,sp
     dd4:	00100613          	li	a2,1
     dd8:	00478a93          	addi	s5,a5,4
     ddc:	a29ff0ef          	jal	804 <itoa_hex>
     de0:	00000793          	li	a5,0
     de4:	00048c63          	beqz	s1,dfc <vsnprintf+0x2a4>
     de8:	00f10733          	add	a4,sp,a5
     dec:	00074703          	lbu	a4,0(a4)
     df0:	fff48493          	addi	s1,s1,-1
     df4:	00140413          	addi	s0,s0,1
     df8:	fee40fa3          	sb	a4,-1(s0)
     dfc:	00178793          	addi	a5,a5,1
     e00:	fef512e3          	bne	a0,a5,de4 <vsnprintf+0x28c>
     e04:	f3dff06f          	j	d40 <vsnprintf+0x1e8>
     e08:	0007a503          	lw	a0,0(a5)
     e0c:	00478a93          	addi	s5,a5,4
     e10:	00048e63          	beqz	s1,e2c <vsnprintf+0x2d4>
     e14:	03000793          	li	a5,48
     e18:	00f40023          	sb	a5,0(s0)
     e1c:	00100793          	li	a5,1
     e20:	04f49463          	bne	s1,a5,e68 <vsnprintf+0x310>
     e24:	00940433          	add	s0,s0,s1
     e28:	00000493          	li	s1,0
     e2c:	00060693          	mv	a3,a2
     e30:	00010593          	mv	a1,sp
     e34:	00000613          	li	a2,0
     e38:	9cdff0ef          	jal	804 <itoa_hex>
     e3c:	002b0b13          	addi	s6,s6,2
     e40:	00000793          	li	a5,0
     e44:	00048c63          	beqz	s1,e5c <vsnprintf+0x304>
     e48:	00f10733          	add	a4,sp,a5
     e4c:	00074703          	lbu	a4,0(a4)
     e50:	fff48493          	addi	s1,s1,-1
     e54:	00140413          	addi	s0,s0,1
     e58:	fee40fa3          	sb	a4,-1(s0)
     e5c:	00178793          	addi	a5,a5,1
     e60:	fef512e3          	bne	a0,a5,e44 <vsnprintf+0x2ec>
     e64:	eddff06f          	j	d40 <vsnprintf+0x1e8>
     e68:	07800793          	li	a5,120
     e6c:	00f400a3          	sb	a5,1(s0)
     e70:	ffe48493          	addi	s1,s1,-2
     e74:	00240413          	addi	s0,s0,2
     e78:	fb5ff06f          	j	e2c <vsnprintf+0x2d4>
     e7c:	00048863          	beqz	s1,e8c <vsnprintf+0x334>
     e80:	00b40023          	sb	a1,0(s0)
     e84:	fff48493          	addi	s1,s1,-1
     e88:	00140413          	addi	s0,s0,1
     e8c:	001b0513          	addi	a0,s6,1
     e90:	e25ff06f          	j	cb4 <vsnprintf+0x15c>
     e94:	0019c583          	lbu	a1,1(s3)
     e98:	06c00693          	li	a3,108
     e9c:	00298993          	addi	s3,s3,2
     ea0:	00d58463          	beq	a1,a3,ea8 <vsnprintf+0x350>
     ea4:	00050993          	mv	s3,a0
     ea8:	0009c683          	lbu	a3,0(s3)
     eac:	05800593          	li	a1,88
     eb0:	0df6f513          	andi	a0,a3,223
     eb4:	04b51463          	bne	a0,a1,efc <vsnprintf+0x3a4>
     eb8:	fa868513          	addi	a0,a3,-88
     ebc:	00060693          	mv	a3,a2
     ec0:	00153613          	seqz	a2,a0
     ec4:	0007a503          	lw	a0,0(a5)
     ec8:	00010593          	mv	a1,sp
     ecc:	00478a93          	addi	s5,a5,4
     ed0:	935ff0ef          	jal	804 <itoa_hex>
     ed4:	00000793          	li	a5,0
     ed8:	00048c63          	beqz	s1,ef0 <vsnprintf+0x398>
     edc:	00f10733          	add	a4,sp,a5
     ee0:	00074703          	lbu	a4,0(a4)
     ee4:	fff48493          	addi	s1,s1,-1
     ee8:	00140413          	addi	s0,s0,1
     eec:	fee40fa3          	sb	a4,-1(s0)
     ef0:	00178793          	addi	a5,a5,1
     ef4:	fef512e3          	bne	a0,a5,ed8 <vsnprintf+0x380>
     ef8:	e49ff06f          	j	d40 <vsnprintf+0x1e8>
     efc:	f9c68693          	addi	a3,a3,-100
     f00:	0ff6f693          	zext.b	a3,a3
     f04:	01100593          	li	a1,17
     f08:	d2d5eae3          	bltu	a1,a3,c3c <vsnprintf+0xe4>
     f0c:	fffe05b7          	lui	a1,0xfffe0
     f10:	fde58593          	addi	a1,a1,-34 # fffdffde <_stack_point+0xcffbffde>
     f14:	40d5d6b3          	sra	a3,a1,a3
     f18:	0016f693          	andi	a3,a3,1
     f1c:	d20690e3          	bnez	a3,c3c <vsnprintf+0xe4>
     f20:	0007a503          	lw	a0,0(a5)
     f24:	00070693          	mv	a3,a4
     f28:	00010593          	mv	a1,sp
     f2c:	00478a93          	addi	s5,a5,4
     f30:	fd0ff0ef          	jal	700 <itoa_decimal>
     f34:	00000793          	li	a5,0
     f38:	00048c63          	beqz	s1,f50 <vsnprintf+0x3f8>
     f3c:	00f10733          	add	a4,sp,a5
     f40:	00074703          	lbu	a4,0(a4)
     f44:	fff48493          	addi	s1,s1,-1
     f48:	00140413          	addi	s0,s0,1
     f4c:	fee40fa3          	sb	a4,-1(s0)
     f50:	00178793          	addi	a5,a5,1
     f54:	fef512e3          	bne	a0,a5,f38 <vsnprintf+0x3e0>
     f58:	de9ff06f          	j	d40 <vsnprintf+0x1e8>
     f5c:	0009c703          	lbu	a4,0(s3)
     f60:	ffe48493          	addi	s1,s1,-2
     f64:	00240413          	addi	s0,s0,2
     f68:	fee40fa3          	sb	a4,-1(s0)
     f6c:	cedff06f          	j	c58 <vsnprintf+0x100>
     f70:	f0048ee3          	beqz	s1,e8c <vsnprintf+0x334>
     f74:	00d40023          	sb	a3,0(s0)
     f78:	f0dff06f          	j	e84 <vsnprintf+0x32c>

00000f7c <snprintf>:
     f7c:	fc010113          	addi	sp,sp,-64
     f80:	02d12623          	sw	a3,44(sp)
     f84:	02c10693          	addi	a3,sp,44
     f88:	00112e23          	sw	ra,28(sp)
     f8c:	02e12823          	sw	a4,48(sp)
     f90:	02f12a23          	sw	a5,52(sp)
     f94:	03012c23          	sw	a6,56(sp)
     f98:	03112e23          	sw	a7,60(sp)
     f9c:	00d12623          	sw	a3,12(sp)
     fa0:	bb9ff0ef          	jal	b58 <vsnprintf>
     fa4:	01c12083          	lw	ra,28(sp)
     fa8:	04010113          	addi	sp,sp,64
     fac:	00008067          	ret

00000fb0 <printf>:
     fb0:	fc010113          	addi	sp,sp,-64
     fb4:	02b12223          	sw	a1,36(sp)
     fb8:	02410593          	addi	a1,sp,36
     fbc:	00112e23          	sw	ra,28(sp)
     fc0:	02c12423          	sw	a2,40(sp)
     fc4:	02d12623          	sw	a3,44(sp)
     fc8:	02e12823          	sw	a4,48(sp)
     fcc:	02f12a23          	sw	a5,52(sp)
     fd0:	03012c23          	sw	a6,56(sp)
     fd4:	03112e23          	sw	a7,60(sp)
     fd8:	00b12623          	sw	a1,12(sp)
     fdc:	92dff0ef          	jal	908 <vprintf>
     fe0:	01c12083          	lw	ra,28(sp)
     fe4:	04010113          	addi	sp,sp,64
     fe8:	00008067          	ret

00000fec <hal_sys_uart_init>:
     fec:	100017b7          	lui	a5,0x10001
     ff0:	27000713          	li	a4,624
     ff4:	00e7a023          	sw	a4,0(a5) # 10001000 <_etext+0xffdec3c>
     ff8:	00008067          	ret

00000ffc <hal_sys_putchar>:
     ffc:	100017b7          	lui	a5,0x10001
    1000:	00a7a223          	sw	a0,4(a5) # 10001004 <_etext+0xffdec40>
    1004:	00008067          	ret

00001008 <hal_sys_putstr>:
    1008:	100017b7          	lui	a5,0x10001
    100c:	00478793          	addi	a5,a5,4 # 10001004 <_etext+0xffdec40>
    1010:	00054703          	lbu	a4,0(a0)
    1014:	00071463          	bnez	a4,101c <hal_sys_putstr+0x14>
    1018:	00008067          	ret
    101c:	00150513          	addi	a0,a0,1
    1020:	00e7a023          	sw	a4,0(a5)
    1024:	fedff06f          	j	1010 <hal_sys_putstr+0x8>

00001028 <hal_sys_getchar>:
    1028:	100017b7          	lui	a5,0x10001
    102c:	00478793          	addi	a5,a5,4 # 10001004 <_etext+0xffdec40>
    1030:	fff00713          	li	a4,-1
    1034:	0007a503          	lw	a0,0(a5)
    1038:	fee50ee3          	beq	a0,a4,1034 <hal_sys_getchar+0xc>
    103c:	0ff57513          	zext.b	a0,a0
    1040:	00008067          	ret

00001044 <qspi_wait_idle>:
    1044:	200076b7          	lui	a3,0x20007
    1048:	00100713          	li	a4,1
    104c:	0006a783          	lw	a5,0(a3) # 20007000 <_etext+0x1ffe4c3c>
    1050:	07f7f793          	andi	a5,a5,127
    1054:	fee79ce3          	bne	a5,a4,104c <qspi_wait_idle+0x8>
    1058:	00008067          	ret

0000105c <get_hw_cs>:
    105c:	000107b7          	lui	a5,0x10
    1060:	02f50463          	beq	a0,a5,1088 <get_hw_cs+0x2c>
    1064:	00020737          	lui	a4,0x20
    1068:	20000793          	li	a5,512
    106c:	02e50063          	beq	a0,a4,108c <get_hw_cs+0x30>
    1070:	00030737          	lui	a4,0x30
    1074:	30000793          	li	a5,768
    1078:	00e50a63          	beq	a0,a4,108c <get_hw_cs+0x30>
    107c:	00040737          	lui	a4,0x40
    1080:	40000793          	li	a5,1024
    1084:	00e50463          	beq	a0,a4,108c <get_hw_cs+0x30>
    1088:	10000793          	li	a5,256
    108c:	00078513          	mv	a0,a5
    1090:	00008067          	ret

00001094 <hal_qspi_init>:
    1094:	02058663          	beqz	a1,10c0 <hal_qspi_init+0x2c>
    1098:	02051463          	bnez	a0,10c0 <hal_qspi_init+0x2c>
    109c:	200077b7          	lui	a5,0x20007
    10a0:	01000713          	li	a4,16
    10a4:	00e7a023          	sw	a4,0(a5) # 20007000 <_etext+0x1ffe4c3c>
    10a8:	0007a023          	sw	zero,0(a5)
    10ac:	0207a223          	sw	zero,36(a5)
    10b0:	0007aa23          	sw	zero,20(a5)
    10b4:	0005a703          	lw	a4,0(a1)
    10b8:	00e7a223          	sw	a4,4(a5)
    10bc:	00008067          	ret
    10c0:	fff00513          	li	a0,-1
    10c4:	00008067          	ret

000010c8 <hal_qspi_deinit>:
    10c8:	00051a63          	bnez	a0,10dc <hal_qspi_deinit+0x14>
    10cc:	200077b7          	lui	a5,0x20007
    10d0:	01000713          	li	a4,16
    10d4:	00e7a023          	sw	a4,0(a5) # 20007000 <_etext+0x1ffe4c3c>
    10d8:	00008067          	ret
    10dc:	fff00513          	li	a0,-1
    10e0:	00008067          	ret

000010e4 <hal_qspi_write_8>:
    10e4:	02051e63          	bnez	a0,1120 <hal_qspi_write_8+0x3c>
    10e8:	20007737          	lui	a4,0x20007
    10ec:	000806b7          	lui	a3,0x80
    10f0:	00d72823          	sw	a3,16(a4) # 20007010 <_etext+0x1ffe4c4c>
    10f4:	01859593          	slli	a1,a1,0x18
    10f8:	00b72c23          	sw	a1,24(a4)
    10fc:	10200793          	li	a5,258
    1100:	00f72023          	sw	a5,0(a4)
    1104:	00100693          	li	a3,1
    1108:	00072783          	lw	a5,0(a4)
    110c:	01079793          	slli	a5,a5,0x10
    1110:	0107d793          	srli	a5,a5,0x10
    1114:	fed79ae3          	bne	a5,a3,1108 <hal_qspi_write_8+0x24>
    1118:	00000513          	li	a0,0
    111c:	00008067          	ret
    1120:	fff00513          	li	a0,-1
    1124:	00008067          	ret

00001128 <hal_qspi_write_8_cs>:
    1128:	04051a63          	bnez	a0,117c <hal_qspi_write_8_cs+0x54>
    112c:	ff010113          	addi	sp,sp,-16
    1130:	00812423          	sw	s0,8(sp)
    1134:	00112623          	sw	ra,12(sp)
    1138:	20007437          	lui	s0,0x20007
    113c:	00080737          	lui	a4,0x80
    1140:	01859593          	slli	a1,a1,0x18
    1144:	00e42823          	sw	a4,16(s0) # 20007010 <_etext+0x1ffe4c4c>
    1148:	00060513          	mv	a0,a2
    114c:	00b42c23          	sw	a1,24(s0)
    1150:	f0dff0ef          	jal	105c <get_hw_cs>
    1154:	00256513          	ori	a0,a0,2
    1158:	00a42023          	sw	a0,0(s0)
    115c:	00100793          	li	a5,1
    1160:	00042703          	lw	a4,0(s0)
    1164:	fef71ee3          	bne	a4,a5,1160 <hal_qspi_write_8_cs+0x38>
    1168:	00c12083          	lw	ra,12(sp)
    116c:	00812403          	lw	s0,8(sp)
    1170:	00000513          	li	a0,0
    1174:	01010113          	addi	sp,sp,16
    1178:	00008067          	ret
    117c:	fff00513          	li	a0,-1
    1180:	00008067          	ret

00001184 <hal_qspi_write_16>:
    1184:	02051a63          	bnez	a0,11b8 <hal_qspi_write_16+0x34>
    1188:	200077b7          	lui	a5,0x20007
    118c:	001006b7          	lui	a3,0x100
    1190:	00d7a823          	sw	a3,16(a5) # 20007010 <_etext+0x1ffe4c4c>
    1194:	01059593          	slli	a1,a1,0x10
    1198:	10200713          	li	a4,258
    119c:	00b7ac23          	sw	a1,24(a5)
    11a0:	00e7a023          	sw	a4,0(a5)
    11a4:	00100713          	li	a4,1
    11a8:	0007a683          	lw	a3,0(a5)
    11ac:	fee69ee3          	bne	a3,a4,11a8 <hal_qspi_write_16+0x24>
    11b0:	00000513          	li	a0,0
    11b4:	00008067          	ret
    11b8:	fff00513          	li	a0,-1
    11bc:	00008067          	ret

000011c0 <hal_qspi_write_16_cs>:
    11c0:	04051a63          	bnez	a0,1214 <hal_qspi_write_16_cs+0x54>
    11c4:	ff010113          	addi	sp,sp,-16
    11c8:	00812423          	sw	s0,8(sp)
    11cc:	00112623          	sw	ra,12(sp)
    11d0:	20007437          	lui	s0,0x20007
    11d4:	00100737          	lui	a4,0x100
    11d8:	01059593          	slli	a1,a1,0x10
    11dc:	00e42823          	sw	a4,16(s0) # 20007010 <_etext+0x1ffe4c4c>
    11e0:	00060513          	mv	a0,a2
    11e4:	00b42c23          	sw	a1,24(s0)
    11e8:	e75ff0ef          	jal	105c <get_hw_cs>
    11ec:	00256513          	ori	a0,a0,2
    11f0:	00a42023          	sw	a0,0(s0)
    11f4:	00100793          	li	a5,1
    11f8:	00042703          	lw	a4,0(s0)
    11fc:	fef71ee3          	bne	a4,a5,11f8 <hal_qspi_write_16_cs+0x38>
    1200:	00c12083          	lw	ra,12(sp)
    1204:	00812403          	lw	s0,8(sp)
    1208:	00000513          	li	a0,0
    120c:	01010113          	addi	sp,sp,16
    1210:	00008067          	ret
    1214:	fff00513          	li	a0,-1
    1218:	00008067          	ret

0000121c <hal_qspi_write_32>:
    121c:	02051863          	bnez	a0,124c <hal_qspi_write_32+0x30>
    1220:	200077b7          	lui	a5,0x20007
    1224:	002006b7          	lui	a3,0x200
    1228:	00d7a823          	sw	a3,16(a5) # 20007010 <_etext+0x1ffe4c4c>
    122c:	10200713          	li	a4,258
    1230:	00b7ac23          	sw	a1,24(a5)
    1234:	00e7a023          	sw	a4,0(a5)
    1238:	00100713          	li	a4,1
    123c:	0007a683          	lw	a3,0(a5)
    1240:	fee69ee3          	bne	a3,a4,123c <hal_qspi_write_32+0x20>
    1244:	00000513          	li	a0,0
    1248:	00008067          	ret
    124c:	fff00513          	li	a0,-1
    1250:	00008067          	ret

00001254 <hal_qspi_write_32_cs>:
    1254:	04051863          	bnez	a0,12a4 <hal_qspi_write_32_cs+0x50>
    1258:	ff010113          	addi	sp,sp,-16
    125c:	00812423          	sw	s0,8(sp)
    1260:	00112623          	sw	ra,12(sp)
    1264:	20007437          	lui	s0,0x20007
    1268:	00200737          	lui	a4,0x200
    126c:	00e42823          	sw	a4,16(s0) # 20007010 <_etext+0x1ffe4c4c>
    1270:	00060513          	mv	a0,a2
    1274:	00b42c23          	sw	a1,24(s0)
    1278:	de5ff0ef          	jal	105c <get_hw_cs>
    127c:	00256513          	ori	a0,a0,2
    1280:	00a42023          	sw	a0,0(s0)
    1284:	00100793          	li	a5,1
    1288:	00042703          	lw	a4,0(s0)
    128c:	fef71ee3          	bne	a4,a5,1288 <hal_qspi_write_32_cs+0x34>
    1290:	00c12083          	lw	ra,12(sp)
    1294:	00812403          	lw	s0,8(sp)
    1298:	00000513          	li	a0,0
    129c:	01010113          	addi	sp,sp,16
    12a0:	00008067          	ret
    12a4:	fff00513          	li	a0,-1
    12a8:	00008067          	ret

000012ac <hal_qspi_write_32x2>:
    12ac:	02051a63          	bnez	a0,12e0 <hal_qspi_write_32x2+0x34>
    12b0:	20007737          	lui	a4,0x20007
    12b4:	004006b7          	lui	a3,0x400
    12b8:	00d72823          	sw	a3,16(a4) # 20007010 <_etext+0x1ffe4c4c>
    12bc:	00b72c23          	sw	a1,24(a4)
    12c0:	10200793          	li	a5,258
    12c4:	00c72c23          	sw	a2,24(a4)
    12c8:	00f72023          	sw	a5,0(a4)
    12cc:	00100793          	li	a5,1
    12d0:	00072683          	lw	a3,0(a4)
    12d4:	fef69ee3          	bne	a3,a5,12d0 <hal_qspi_write_32x2+0x24>
    12d8:	00000513          	li	a0,0
    12dc:	00008067          	ret
    12e0:	fff00513          	li	a0,-1
    12e4:	00008067          	ret

000012e8 <hal_qspi_write_32x2_cs>:
    12e8:	04051a63          	bnez	a0,133c <hal_qspi_write_32x2_cs+0x54>
    12ec:	ff010113          	addi	sp,sp,-16
    12f0:	00812423          	sw	s0,8(sp)
    12f4:	00112623          	sw	ra,12(sp)
    12f8:	20007437          	lui	s0,0x20007
    12fc:	00400737          	lui	a4,0x400
    1300:	00e42823          	sw	a4,16(s0) # 20007010 <_etext+0x1ffe4c4c>
    1304:	00b42c23          	sw	a1,24(s0)
    1308:	00068513          	mv	a0,a3
    130c:	00c42c23          	sw	a2,24(s0)
    1310:	d4dff0ef          	jal	105c <get_hw_cs>
    1314:	00256513          	ori	a0,a0,2
    1318:	00a42023          	sw	a0,0(s0)
    131c:	00100793          	li	a5,1
    1320:	00042703          	lw	a4,0(s0)
    1324:	fef71ee3          	bne	a4,a5,1320 <hal_qspi_write_32x2_cs+0x38>
    1328:	00c12083          	lw	ra,12(sp)
    132c:	00812403          	lw	s0,8(sp)
    1330:	00000513          	li	a0,0
    1334:	01010113          	addi	sp,sp,16
    1338:	00008067          	ret
    133c:	fff00513          	li	a0,-1
    1340:	00008067          	ret

00001344 <hal_qspi_write_32x8>:
    1344:	04051863          	bnez	a0,1394 <hal_qspi_write_32x8+0x50>
    1348:	20007337          	lui	t1,0x20007
    134c:	01000e37          	lui	t3,0x1000
    1350:	01c32823          	sw	t3,16(t1) # 20007010 <_etext+0x1ffe4c4c>
    1354:	00b32c23          	sw	a1,24(t1)
    1358:	00c32c23          	sw	a2,24(t1)
    135c:	00d32c23          	sw	a3,24(t1)
    1360:	00e32c23          	sw	a4,24(t1)
    1364:	00f32c23          	sw	a5,24(t1)
    1368:	01032c23          	sw	a6,24(t1)
    136c:	01132c23          	sw	a7,24(t1)
    1370:	00012783          	lw	a5,0(sp)
    1374:	00f32c23          	sw	a5,24(t1)
    1378:	10200793          	li	a5,258
    137c:	00f32023          	sw	a5,0(t1)
    1380:	00100793          	li	a5,1
    1384:	00032703          	lw	a4,0(t1)
    1388:	fef71ee3          	bne	a4,a5,1384 <hal_qspi_write_32x8+0x40>
    138c:	00000513          	li	a0,0
    1390:	00008067          	ret
    1394:	fff00513          	li	a0,-1
    1398:	00008067          	ret

0000139c <hal_qspi_write_32x8_cs>:
    139c:	06051863          	bnez	a0,140c <hal_qspi_write_32x8_cs+0x70>
    13a0:	ff010113          	addi	sp,sp,-16
    13a4:	00812423          	sw	s0,8(sp)
    13a8:	00112623          	sw	ra,12(sp)
    13ac:	20007437          	lui	s0,0x20007
    13b0:	01000337          	lui	t1,0x1000
    13b4:	00642823          	sw	t1,16(s0) # 20007010 <_etext+0x1ffe4c4c>
    13b8:	00b42c23          	sw	a1,24(s0)
    13bc:	00c42c23          	sw	a2,24(s0)
    13c0:	00d42c23          	sw	a3,24(s0)
    13c4:	00e42c23          	sw	a4,24(s0)
    13c8:	00f42c23          	sw	a5,24(s0)
    13cc:	01042c23          	sw	a6,24(s0)
    13d0:	01142c23          	sw	a7,24(s0)
    13d4:	01012783          	lw	a5,16(sp)
    13d8:	01412503          	lw	a0,20(sp)
    13dc:	00f42c23          	sw	a5,24(s0)
    13e0:	c7dff0ef          	jal	105c <get_hw_cs>
    13e4:	00256513          	ori	a0,a0,2
    13e8:	00a42023          	sw	a0,0(s0)
    13ec:	00100793          	li	a5,1
    13f0:	00042703          	lw	a4,0(s0)
    13f4:	fef71ee3          	bne	a4,a5,13f0 <hal_qspi_write_32x8_cs+0x54>
    13f8:	00c12083          	lw	ra,12(sp)
    13fc:	00812403          	lw	s0,8(sp)
    1400:	00000513          	li	a0,0
    1404:	01010113          	addi	sp,sp,16
    1408:	00008067          	ret
    140c:	fff00513          	li	a0,-1
    1410:	00008067          	ret

00001414 <hal_qspi_write_32x16>:
    1414:	08051863          	bnez	a0,14a4 <hal_qspi_write_32x16+0x90>
    1418:	20007337          	lui	t1,0x20007
    141c:	02000e37          	lui	t3,0x2000
    1420:	01c32823          	sw	t3,16(t1) # 20007010 <_etext+0x1ffe4c4c>
    1424:	00b32c23          	sw	a1,24(t1)
    1428:	00c32c23          	sw	a2,24(t1)
    142c:	00d32c23          	sw	a3,24(t1)
    1430:	00e32c23          	sw	a4,24(t1)
    1434:	00f32c23          	sw	a5,24(t1)
    1438:	01032c23          	sw	a6,24(t1)
    143c:	01132c23          	sw	a7,24(t1)
    1440:	00012783          	lw	a5,0(sp)
    1444:	00f32c23          	sw	a5,24(t1)
    1448:	00412783          	lw	a5,4(sp)
    144c:	00f32c23          	sw	a5,24(t1)
    1450:	00812783          	lw	a5,8(sp)
    1454:	00f32c23          	sw	a5,24(t1)
    1458:	00c12783          	lw	a5,12(sp)
    145c:	00f32c23          	sw	a5,24(t1)
    1460:	01012783          	lw	a5,16(sp)
    1464:	00f32c23          	sw	a5,24(t1)
    1468:	01412783          	lw	a5,20(sp)
    146c:	00f32c23          	sw	a5,24(t1)
    1470:	01812783          	lw	a5,24(sp)
    1474:	00f32c23          	sw	a5,24(t1)
    1478:	01c12783          	lw	a5,28(sp)
    147c:	00f32c23          	sw	a5,24(t1)
    1480:	02012783          	lw	a5,32(sp)
    1484:	00f32c23          	sw	a5,24(t1)
    1488:	10200793          	li	a5,258
    148c:	00f32023          	sw	a5,0(t1)
    1490:	00100793          	li	a5,1
    1494:	00032703          	lw	a4,0(t1)
    1498:	fef71ee3          	bne	a4,a5,1494 <hal_qspi_write_32x16+0x80>
    149c:	00000513          	li	a0,0
    14a0:	00008067          	ret
    14a4:	fff00513          	li	a0,-1
    14a8:	00008067          	ret

000014ac <hal_qspi_write_32x16_cs>:
    14ac:	0a051863          	bnez	a0,155c <hal_qspi_write_32x16_cs+0xb0>
    14b0:	ff010113          	addi	sp,sp,-16
    14b4:	00812423          	sw	s0,8(sp)
    14b8:	00112623          	sw	ra,12(sp)
    14bc:	20007437          	lui	s0,0x20007
    14c0:	02000337          	lui	t1,0x2000
    14c4:	00642823          	sw	t1,16(s0) # 20007010 <_etext+0x1ffe4c4c>
    14c8:	00b42c23          	sw	a1,24(s0)
    14cc:	00c42c23          	sw	a2,24(s0)
    14d0:	00d42c23          	sw	a3,24(s0)
    14d4:	00e42c23          	sw	a4,24(s0)
    14d8:	00f42c23          	sw	a5,24(s0)
    14dc:	01042c23          	sw	a6,24(s0)
    14e0:	01142c23          	sw	a7,24(s0)
    14e4:	01012783          	lw	a5,16(sp)
    14e8:	03412503          	lw	a0,52(sp)
    14ec:	00f42c23          	sw	a5,24(s0)
    14f0:	01412783          	lw	a5,20(sp)
    14f4:	00f42c23          	sw	a5,24(s0)
    14f8:	01812783          	lw	a5,24(sp)
    14fc:	00f42c23          	sw	a5,24(s0)
    1500:	01c12783          	lw	a5,28(sp)
    1504:	00f42c23          	sw	a5,24(s0)
    1508:	02012783          	lw	a5,32(sp)
    150c:	00f42c23          	sw	a5,24(s0)
    1510:	02412783          	lw	a5,36(sp)
    1514:	00f42c23          	sw	a5,24(s0)
    1518:	02812783          	lw	a5,40(sp)
    151c:	00f42c23          	sw	a5,24(s0)
    1520:	02c12783          	lw	a5,44(sp)
    1524:	00f42c23          	sw	a5,24(s0)
    1528:	03012783          	lw	a5,48(sp)
    152c:	00f42c23          	sw	a5,24(s0)
    1530:	b2dff0ef          	jal	105c <get_hw_cs>
    1534:	00256513          	ori	a0,a0,2
    1538:	00a42023          	sw	a0,0(s0)
    153c:	00100793          	li	a5,1
    1540:	00042703          	lw	a4,0(s0)
    1544:	fef71ee3          	bne	a4,a5,1540 <hal_qspi_write_32x16_cs+0x94>
    1548:	00c12083          	lw	ra,12(sp)
    154c:	00812403          	lw	s0,8(sp)
    1550:	00000513          	li	a0,0
    1554:	01010113          	addi	sp,sp,16
    1558:	00008067          	ret
    155c:	fff00513          	li	a0,-1
    1560:	00008067          	ret

00001564 <hal_qspi_write_32x32>:
    1564:	10051a63          	bnez	a0,1678 <hal_qspi_write_32x32+0x114>
    1568:	20007337          	lui	t1,0x20007
    156c:	04000e37          	lui	t3,0x4000
    1570:	01c32823          	sw	t3,16(t1) # 20007010 <_etext+0x1ffe4c4c>
    1574:	00b32c23          	sw	a1,24(t1)
    1578:	00c32c23          	sw	a2,24(t1)
    157c:	00d32c23          	sw	a3,24(t1)
    1580:	00e32c23          	sw	a4,24(t1)
    1584:	00f32c23          	sw	a5,24(t1)
    1588:	01032c23          	sw	a6,24(t1)
    158c:	01132c23          	sw	a7,24(t1)
    1590:	00012783          	lw	a5,0(sp)
    1594:	01830513          	addi	a0,t1,24
    1598:	00f52023          	sw	a5,0(a0)
    159c:	00412783          	lw	a5,4(sp)
    15a0:	00f52023          	sw	a5,0(a0)
    15a4:	00812783          	lw	a5,8(sp)
    15a8:	00f52023          	sw	a5,0(a0)
    15ac:	00c12783          	lw	a5,12(sp)
    15b0:	00f52023          	sw	a5,0(a0)
    15b4:	01012783          	lw	a5,16(sp)
    15b8:	00f52023          	sw	a5,0(a0)
    15bc:	01412783          	lw	a5,20(sp)
    15c0:	00f52023          	sw	a5,0(a0)
    15c4:	01812783          	lw	a5,24(sp)
    15c8:	00f52023          	sw	a5,0(a0)
    15cc:	01c12783          	lw	a5,28(sp)
    15d0:	00f52023          	sw	a5,0(a0)
    15d4:	02012783          	lw	a5,32(sp)
    15d8:	00f52023          	sw	a5,0(a0)
    15dc:	02412783          	lw	a5,36(sp)
    15e0:	00f52023          	sw	a5,0(a0)
    15e4:	02812783          	lw	a5,40(sp)
    15e8:	00f52023          	sw	a5,0(a0)
    15ec:	02c12783          	lw	a5,44(sp)
    15f0:	00f52023          	sw	a5,0(a0)
    15f4:	03012783          	lw	a5,48(sp)
    15f8:	00f52023          	sw	a5,0(a0)
    15fc:	03412783          	lw	a5,52(sp)
    1600:	00f52023          	sw	a5,0(a0)
    1604:	03812783          	lw	a5,56(sp)
    1608:	00f52023          	sw	a5,0(a0)
    160c:	03c12783          	lw	a5,60(sp)
    1610:	00f52023          	sw	a5,0(a0)
    1614:	04012783          	lw	a5,64(sp)
    1618:	00f52023          	sw	a5,0(a0)
    161c:	04412783          	lw	a5,68(sp)
    1620:	00f52023          	sw	a5,0(a0)
    1624:	04812783          	lw	a5,72(sp)
    1628:	00f52023          	sw	a5,0(a0)
    162c:	04c12783          	lw	a5,76(sp)
    1630:	00f52023          	sw	a5,0(a0)
    1634:	05012783          	lw	a5,80(sp)
    1638:	00f52023          	sw	a5,0(a0)
    163c:	05412783          	lw	a5,84(sp)
    1640:	00f52023          	sw	a5,0(a0)
    1644:	05812783          	lw	a5,88(sp)
    1648:	00f52023          	sw	a5,0(a0)
    164c:	05c12783          	lw	a5,92(sp)
    1650:	00f52023          	sw	a5,0(a0)
    1654:	06012783          	lw	a5,96(sp)
    1658:	00f52023          	sw	a5,0(a0)
    165c:	10200793          	li	a5,258
    1660:	00f32023          	sw	a5,0(t1)
    1664:	00100793          	li	a5,1
    1668:	00032703          	lw	a4,0(t1)
    166c:	fef71ee3          	bne	a4,a5,1668 <hal_qspi_write_32x32+0x104>
    1670:	00000513          	li	a0,0
    1674:	00008067          	ret
    1678:	fff00513          	li	a0,-1
    167c:	00008067          	ret

00001680 <hal_qspi_write_32x32_cs>:
    1680:	12051a63          	bnez	a0,17b4 <hal_qspi_write_32x32_cs+0x134>
    1684:	ff010113          	addi	sp,sp,-16
    1688:	00112623          	sw	ra,12(sp)
    168c:	00812423          	sw	s0,8(sp)
    1690:	04000337          	lui	t1,0x4000
    1694:	20007437          	lui	s0,0x20007
    1698:	01840513          	addi	a0,s0,24 # 20007018 <_etext+0x1ffe4c54>
    169c:	00642823          	sw	t1,16(s0)
    16a0:	00b52023          	sw	a1,0(a0)
    16a4:	00c52023          	sw	a2,0(a0)
    16a8:	00d52023          	sw	a3,0(a0)
    16ac:	00e52023          	sw	a4,0(a0)
    16b0:	00f52023          	sw	a5,0(a0)
    16b4:	01052023          	sw	a6,0(a0)
    16b8:	01152023          	sw	a7,0(a0)
    16bc:	01012783          	lw	a5,16(sp)
    16c0:	00f52023          	sw	a5,0(a0)
    16c4:	01412783          	lw	a5,20(sp)
    16c8:	00f52023          	sw	a5,0(a0)
    16cc:	01812783          	lw	a5,24(sp)
    16d0:	00f52023          	sw	a5,0(a0)
    16d4:	01c12783          	lw	a5,28(sp)
    16d8:	00f52023          	sw	a5,0(a0)
    16dc:	02012783          	lw	a5,32(sp)
    16e0:	00f52023          	sw	a5,0(a0)
    16e4:	02412783          	lw	a5,36(sp)
    16e8:	00f52023          	sw	a5,0(a0)
    16ec:	02812783          	lw	a5,40(sp)
    16f0:	00f52023          	sw	a5,0(a0)
    16f4:	02c12783          	lw	a5,44(sp)
    16f8:	00f52023          	sw	a5,0(a0)
    16fc:	03012783          	lw	a5,48(sp)
    1700:	00f52023          	sw	a5,0(a0)
    1704:	03412783          	lw	a5,52(sp)
    1708:	00f52023          	sw	a5,0(a0)
    170c:	03812783          	lw	a5,56(sp)
    1710:	00f52023          	sw	a5,0(a0)
    1714:	03c12783          	lw	a5,60(sp)
    1718:	00f52023          	sw	a5,0(a0)
    171c:	04012783          	lw	a5,64(sp)
    1720:	00f52023          	sw	a5,0(a0)
    1724:	04412783          	lw	a5,68(sp)
    1728:	00f52023          	sw	a5,0(a0)
    172c:	04812783          	lw	a5,72(sp)
    1730:	00f52023          	sw	a5,0(a0)
    1734:	04c12783          	lw	a5,76(sp)
    1738:	00f52023          	sw	a5,0(a0)
    173c:	05012783          	lw	a5,80(sp)
    1740:	00f52023          	sw	a5,0(a0)
    1744:	05412783          	lw	a5,84(sp)
    1748:	00f52023          	sw	a5,0(a0)
    174c:	05812783          	lw	a5,88(sp)
    1750:	00f52023          	sw	a5,0(a0)
    1754:	05c12783          	lw	a5,92(sp)
    1758:	00f52023          	sw	a5,0(a0)
    175c:	06012783          	lw	a5,96(sp)
    1760:	00f52023          	sw	a5,0(a0)
    1764:	06412783          	lw	a5,100(sp)
    1768:	00f52023          	sw	a5,0(a0)
    176c:	06812783          	lw	a5,104(sp)
    1770:	00f52023          	sw	a5,0(a0)
    1774:	06c12783          	lw	a5,108(sp)
    1778:	00f52023          	sw	a5,0(a0)
    177c:	07012783          	lw	a5,112(sp)
    1780:	00f52023          	sw	a5,0(a0)
    1784:	07412503          	lw	a0,116(sp)
    1788:	8d5ff0ef          	jal	105c <get_hw_cs>
    178c:	00256513          	ori	a0,a0,2
    1790:	00a42023          	sw	a0,0(s0)
    1794:	00100793          	li	a5,1
    1798:	00042703          	lw	a4,0(s0)
    179c:	fef71ee3          	bne	a4,a5,1798 <hal_qspi_write_32x32_cs+0x118>
    17a0:	00c12083          	lw	ra,12(sp)
    17a4:	00812403          	lw	s0,8(sp)
    17a8:	00000513          	li	a0,0
    17ac:	01010113          	addi	sp,sp,16
    17b0:	00008067          	ret
    17b4:	fff00513          	li	a0,-1
    17b8:	00008067          	ret

000017bc <hal_qspi_send_cmd>:
    17bc:	06051463          	bnez	a0,1824 <hal_qspi_send_cmd+0x68>
    17c0:	ff010113          	addi	sp,sp,-16
    17c4:	00112623          	sw	ra,12(sp)
    17c8:	00060c63          	beqz	a2,17e0 <hal_qspi_send_cmd+0x24>
    17cc:	02000793          	li	a5,32
    17d0:	40c787b3          	sub	a5,a5,a2
    17d4:	00f595b3          	sll	a1,a1,a5
    17d8:	200077b7          	lui	a5,0x20007
    17dc:	00b7a423          	sw	a1,8(a5) # 20007008 <_etext+0x1ffe4c44>
    17e0:	00070c63          	beqz	a4,17f8 <hal_qspi_send_cmd+0x3c>
    17e4:	02000793          	li	a5,32
    17e8:	40e787b3          	sub	a5,a5,a4
    17ec:	00f696b3          	sll	a3,a3,a5
    17f0:	200077b7          	lui	a5,0x20007
    17f4:	00d7a623          	sw	a3,12(a5) # 2000700c <_etext+0x1ffe4c48>
    17f8:	00871713          	slli	a4,a4,0x8
    17fc:	00c76733          	or	a4,a4,a2
    1800:	200077b7          	lui	a5,0x20007
    1804:	00e7a823          	sw	a4,16(a5) # 20007010 <_etext+0x1ffe4c4c>
    1808:	10100713          	li	a4,257
    180c:	00e7a023          	sw	a4,0(a5)
    1810:	835ff0ef          	jal	1044 <qspi_wait_idle>
    1814:	00c12083          	lw	ra,12(sp)
    1818:	00000513          	li	a0,0
    181c:	01010113          	addi	sp,sp,16
    1820:	00008067          	ret
    1824:	fff00513          	li	a0,-1
    1828:	00008067          	ret

0000182c <hal_qspi_write>:
    182c:	1a051463          	bnez	a0,19d4 <hal_qspi_write+0x1a8>
    1830:	00081463          	bnez	a6,1838 <hal_qspi_write+0xc>
    1834:	f89ff06f          	j	17bc <hal_qspi_send_cmd>
    1838:	fe010113          	addi	sp,sp,-32
    183c:	00070e93          	mv	t4,a4
    1840:	00112e23          	sw	ra,28(sp)
    1844:	02700713          	li	a4,39
    1848:	00060f13          	mv	t5,a2
    184c:	00050e13          	mv	t3,a0
    1850:	00058293          	mv	t0,a1
    1854:	00068f93          	mv	t6,a3
    1858:	02800613          	li	a2,40
    185c:	01076463          	bltu	a4,a6,1864 <hal_qspi_write+0x38>
    1860:	0fc87613          	andi	a2,a6,252
    1864:	200076b7          	lui	a3,0x20007
    1868:	00080893          	mv	a7,a6
    186c:	01868693          	addi	a3,a3,24 # 20007018 <_etext+0x1ffe4c54>
    1870:	41180733          	sub	a4,a6,a7
    1874:	0ff77713          	zext.b	a4,a4
    1878:	0ac76c63          	bltu	a4,a2,1930 <hal_qspi_write+0x104>
    187c:	000f0c63          	beqz	t5,1894 <hal_qspi_write+0x68>
    1880:	02000713          	li	a4,32
    1884:	41e70733          	sub	a4,a4,t5
    1888:	00e292b3          	sll	t0,t0,a4
    188c:	20007737          	lui	a4,0x20007
    1890:	00572423          	sw	t0,8(a4) # 20007008 <_etext+0x1ffe4c44>
    1894:	000e8c63          	beqz	t4,18ac <hal_qspi_write+0x80>
    1898:	02000713          	li	a4,32
    189c:	41d70733          	sub	a4,a4,t4
    18a0:	00ef9fb3          	sll	t6,t6,a4
    18a4:	20007737          	lui	a4,0x20007
    18a8:	01f72623          	sw	t6,12(a4) # 2000700c <_etext+0x1ffe4c48>
    18ac:	008e9e93          	slli	t4,t4,0x8
    18b0:	01381813          	slli	a6,a6,0x13
    18b4:	01eeeeb3          	or	t4,t4,t5
    18b8:	20007737          	lui	a4,0x20007
    18bc:	01d86833          	or	a6,a6,t4
    18c0:	01072823          	sw	a6,16(a4) # 20007010 <_etext+0x1ffe4c4c>
    18c4:	10200693          	li	a3,258
    18c8:	00d72023          	sw	a3,0(a4)
    18cc:	0e088a63          	beqz	a7,19c0 <hal_qspi_write+0x194>
    18d0:	20007637          	lui	a2,0x20007
    18d4:	02000693          	li	a3,32
    18d8:	00062703          	lw	a4,0(a2) # 20007000 <_etext+0x1ffe4c3c>
    18dc:	07f77713          	andi	a4,a4,127
    18e0:	fed71ce3          	bne	a4,a3,18d8 <hal_qspi_write+0xac>
    18e4:	00300713          	li	a4,3
    18e8:	09177463          	bgeu	a4,a7,1970 <hal_qspi_write+0x144>
    18ec:	0007c703          	lbu	a4,0(a5)
    18f0:	0017c683          	lbu	a3,1(a5)
    18f4:	ffc88893          	addi	a7,a7,-4
    18f8:	01871713          	slli	a4,a4,0x18
    18fc:	01069693          	slli	a3,a3,0x10
    1900:	00d76733          	or	a4,a4,a3
    1904:	0037c683          	lbu	a3,3(a5)
    1908:	01089893          	slli	a7,a7,0x10
    190c:	00478793          	addi	a5,a5,4
    1910:	00d76733          	or	a4,a4,a3
    1914:	ffe7c683          	lbu	a3,-2(a5)
    1918:	0108d893          	srli	a7,a7,0x10
    191c:	00869693          	slli	a3,a3,0x8
    1920:	00d76733          	or	a4,a4,a3
    1924:	200076b7          	lui	a3,0x20007
    1928:	00e6ac23          	sw	a4,24(a3) # 20007018 <_etext+0x1ffe4c54>
    192c:	fa1ff06f          	j	18cc <hal_qspi_write+0xa0>
    1930:	0007c303          	lbu	t1,0(a5)
    1934:	0017c703          	lbu	a4,1(a5)
    1938:	ffc88893          	addi	a7,a7,-4
    193c:	01831313          	slli	t1,t1,0x18
    1940:	01071713          	slli	a4,a4,0x10
    1944:	00e36333          	or	t1,t1,a4
    1948:	0037c703          	lbu	a4,3(a5)
    194c:	01089893          	slli	a7,a7,0x10
    1950:	00478793          	addi	a5,a5,4
    1954:	00e36333          	or	t1,t1,a4
    1958:	ffe7c703          	lbu	a4,-2(a5)
    195c:	0108d893          	srli	a7,a7,0x10
    1960:	00871713          	slli	a4,a4,0x8
    1964:	00e36333          	or	t1,t1,a4
    1968:	0066a023          	sw	t1,0(a3)
    196c:	f05ff06f          	j	1870 <hal_qspi_write+0x44>
    1970:	00012623          	sw	zero,12(sp)
    1974:	00c10613          	addi	a2,sp,12
    1978:	01c786b3          	add	a3,a5,t3
    197c:	0006c683          	lbu	a3,0(a3)
    1980:	01c60733          	add	a4,a2,t3
    1984:	001e0e13          	addi	t3,t3,1 # 4000001 <_etext+0x3fddc3d>
    1988:	00d70023          	sb	a3,0(a4)
    198c:	010e1713          	slli	a4,t3,0x10
    1990:	01075713          	srli	a4,a4,0x10
    1994:	ff1762e3          	bltu	a4,a7,1978 <hal_qspi_write+0x14c>
    1998:	00c14783          	lbu	a5,12(sp)
    199c:	00d14703          	lbu	a4,13(sp)
    19a0:	01879793          	slli	a5,a5,0x18
    19a4:	01071713          	slli	a4,a4,0x10
    19a8:	00e7e7b3          	or	a5,a5,a4
    19ac:	00e14703          	lbu	a4,14(sp)
    19b0:	00871713          	slli	a4,a4,0x8
    19b4:	00e7e7b3          	or	a5,a5,a4
    19b8:	20007737          	lui	a4,0x20007
    19bc:	00f72c23          	sw	a5,24(a4) # 20007018 <_etext+0x1ffe4c54>
    19c0:	e84ff0ef          	jal	1044 <qspi_wait_idle>
    19c4:	01c12083          	lw	ra,28(sp)
    19c8:	00000513          	li	a0,0
    19cc:	02010113          	addi	sp,sp,32
    19d0:	00008067          	ret
    19d4:	fff00513          	li	a0,-1
    19d8:	00008067          	ret

000019dc <hal_qspi_read>:
    19dc:	20051463          	bnez	a0,1be4 <hal_qspi_read+0x208>
    19e0:	fb010113          	addi	sp,sp,-80
    19e4:	04812423          	sw	s0,72(sp)
    19e8:	04112623          	sw	ra,76(sp)
    19ec:	04912223          	sw	s1,68(sp)
    19f0:	05212023          	sw	s2,64(sp)
    19f4:	03312e23          	sw	s3,60(sp)
    19f8:	03412c23          	sw	s4,56(sp)
    19fc:	03512a23          	sw	s5,52(sp)
    1a00:	03612823          	sw	s6,48(sp)
    1a04:	03712623          	sw	s7,44(sp)
    1a08:	03812423          	sw	s8,40(sp)
    1a0c:	03912223          	sw	s9,36(sp)
    1a10:	03a12023          	sw	s10,32(sp)
    1a14:	01b12e23          	sw	s11,28(sp)
    1a18:	00088413          	mv	s0,a7
    1a1c:	04089263          	bnez	a7,1a60 <hal_qspi_read+0x84>
    1a20:	04c12083          	lw	ra,76(sp)
    1a24:	04812403          	lw	s0,72(sp)
    1a28:	04412483          	lw	s1,68(sp)
    1a2c:	04012903          	lw	s2,64(sp)
    1a30:	03c12983          	lw	s3,60(sp)
    1a34:	03812a03          	lw	s4,56(sp)
    1a38:	03412a83          	lw	s5,52(sp)
    1a3c:	03012b03          	lw	s6,48(sp)
    1a40:	02c12b83          	lw	s7,44(sp)
    1a44:	02812c03          	lw	s8,40(sp)
    1a48:	02412c83          	lw	s9,36(sp)
    1a4c:	02012d03          	lw	s10,32(sp)
    1a50:	01c12d83          	lw	s11,28(sp)
    1a54:	00000513          	li	a0,0
    1a58:	05010113          	addi	sp,sp,80
    1a5c:	00008067          	ret
    1a60:	02000c93          	li	s9,32
    1a64:	00078c13          	mv	s8,a5
    1a68:	00871b93          	slli	s7,a4,0x8
    1a6c:	40cc87b3          	sub	a5,s9,a2
    1a70:	20007db7          	lui	s11,0x20007
    1a74:	00f59ab3          	sll	s5,a1,a5
    1a78:	00068a13          	mv	s4,a3
    1a7c:	00080493          	mv	s1,a6
    1a80:	00070993          	mv	s3,a4
    1a84:	00060b13          	mv	s6,a2
    1a88:	00cbebb3          	or	s7,s7,a2
    1a8c:	10100593          	li	a1,257
    1a90:	019d8d33          	add	s10,s11,s9
    1a94:	00040913          	mv	s2,s0
    1a98:	008cf463          	bgeu	s9,s0,1aa0 <hal_qspi_read+0xc4>
    1a9c:	02000913          	li	s2,32
    1aa0:	01091913          	slli	s2,s2,0x10
    1aa4:	01095913          	srli	s2,s2,0x10
    1aa8:	000b0663          	beqz	s6,1ab4 <hal_qspi_read+0xd8>
    1aac:	200077b7          	lui	a5,0x20007
    1ab0:	0157a423          	sw	s5,8(a5) # 20007008 <_etext+0x1ffe4c44>
    1ab4:	00098a63          	beqz	s3,1ac8 <hal_qspi_read+0xec>
    1ab8:	413c87b3          	sub	a5,s9,s3
    1abc:	00fa17b3          	sll	a5,s4,a5
    1ac0:	20007737          	lui	a4,0x20007
    1ac4:	00f72623          	sw	a5,12(a4) # 2000700c <_etext+0x1ffe4c48>
    1ac8:	01391793          	slli	a5,s2,0x13
    1acc:	0177e7b3          	or	a5,a5,s7
    1ad0:	20007737          	lui	a4,0x20007
    1ad4:	00f72823          	sw	a5,16(a4) # 20007010 <_etext+0x1ffe4c4c>
    1ad8:	01872a23          	sw	s8,20(a4)
    1adc:	00bda023          	sw	a1,0(s11) # 20007000 <_etext+0x1ffe4c3c>
    1ae0:	d64ff0ef          	jal	1044 <qspi_wait_idle>
    1ae4:	00090513          	mv	a0,s2
    1ae8:	00300893          	li	a7,3
    1aec:	00c10793          	addi	a5,sp,12
    1af0:	00400313          	li	t1,4
    1af4:	10100593          	li	a1,257
    1af8:	000da703          	lw	a4,0(s11)
    1afc:	01075693          	srli	a3,a4,0x10
    1b00:	01f6f693          	andi	a3,a3,31
    1b04:	06068063          	beqz	a3,1b64 <hal_qspi_read+0x188>
    1b08:	000d2803          	lw	a6,0(s10)
    1b0c:	06a8fa63          	bgeu	a7,a0,1b80 <hal_qspi_read+0x1a4>
    1b10:	01885713          	srli	a4,a6,0x18
    1b14:	01081693          	slli	a3,a6,0x10
    1b18:	00e10623          	sb	a4,12(sp)
    1b1c:	01085713          	srli	a4,a6,0x10
    1b20:	00e106a3          	sb	a4,13(sp)
    1b24:	00881813          	slli	a6,a6,0x8
    1b28:	0186d713          	srli	a4,a3,0x18
    1b2c:	01070833          	add	a6,a4,a6
    1b30:	01011723          	sh	a6,14(sp)
    1b34:	00000713          	li	a4,0
    1b38:	00e786b3          	add	a3,a5,a4
    1b3c:	0006c603          	lbu	a2,0(a3)
    1b40:	00e486b3          	add	a3,s1,a4
    1b44:	00170713          	addi	a4,a4,1
    1b48:	00c68023          	sb	a2,0(a3)
    1b4c:	fe6716e3          	bne	a4,t1,1b38 <hal_qspi_read+0x15c>
    1b50:	ffc50513          	addi	a0,a0,-4
    1b54:	01051513          	slli	a0,a0,0x10
    1b58:	01055513          	srli	a0,a0,0x10
    1b5c:	00448493          	addi	s1,s1,4
    1b60:	f8051ce3          	bnez	a0,1af8 <hal_qspi_read+0x11c>
    1b64:	41240433          	sub	s0,s0,s2
    1b68:	01041413          	slli	s0,s0,0x10
    1b6c:	01045413          	srli	s0,s0,0x10
    1b70:	00098463          	beqz	s3,1b78 <hal_qspi_read+0x19c>
    1b74:	012a0a33          	add	s4,s4,s2
    1b78:	f0041ee3          	bnez	s0,1a94 <hal_qspi_read+0xb8>
    1b7c:	ea5ff06f          	j	1a20 <hal_qspi_read+0x44>
    1b80:	fff50693          	addi	a3,a0,-1
    1b84:	0ff57313          	zext.b	t1,a0
    1b88:	00369613          	slli	a2,a3,0x3
    1b8c:	00000713          	li	a4,0
    1b90:	00e788b3          	add	a7,a5,a4
    1b94:	00c85e33          	srl	t3,a6,a2
    1b98:	00170713          	addi	a4,a4,1
    1b9c:	01c88023          	sb	t3,0(a7)
    1ba0:	0ff77893          	zext.b	a7,a4
    1ba4:	ff860613          	addi	a2,a2,-8
    1ba8:	fe68e4e3          	bltu	a7,t1,1b90 <hal_qspi_read+0x1b4>
    1bac:	00000713          	li	a4,0
    1bb0:	00e78633          	add	a2,a5,a4
    1bb4:	00064803          	lbu	a6,0(a2)
    1bb8:	00e48633          	add	a2,s1,a4
    1bbc:	00170713          	addi	a4,a4,1
    1bc0:	01060023          	sb	a6,0(a2)
    1bc4:	01071613          	slli	a2,a4,0x10
    1bc8:	01065613          	srli	a2,a2,0x10
    1bcc:	fea662e3          	bltu	a2,a0,1bb0 <hal_qspi_read+0x1d4>
    1bd0:	01069693          	slli	a3,a3,0x10
    1bd4:	0106d693          	srli	a3,a3,0x10
    1bd8:	00148493          	addi	s1,s1,1
    1bdc:	009684b3          	add	s1,a3,s1
    1be0:	f85ff06f          	j	1b64 <hal_qspi_read+0x188>
    1be4:	fff00513          	li	a0,-1
    1be8:	00008067          	ret

00001bec <hal_i2c_get_ack>:
    1bec:	20006737          	lui	a4,0x20006
    1bf0:	01470713          	addi	a4,a4,20 # 20006014 <_etext+0x1ffe3c50>
    1bf4:	00072783          	lw	a5,0(a4)
    1bf8:	0027f793          	andi	a5,a5,2
    1bfc:	fe078ce3          	beqz	a5,1bf4 <hal_i2c_get_ack+0x8>
    1c00:	200067b7          	lui	a5,0x20006
    1c04:	01478793          	addi	a5,a5,20 # 20006014 <_etext+0x1ffe3c50>
    1c08:	0007a703          	lw	a4,0(a5)
    1c0c:	00277713          	andi	a4,a4,2
    1c10:	fe071ce3          	bnez	a4,1c08 <hal_i2c_get_ack+0x1c>
    1c14:	0007a503          	lw	a0,0(a5)
    1c18:	00755513          	srli	a0,a0,0x7
    1c1c:	00157513          	andi	a0,a0,1
    1c20:	00154513          	xori	a0,a0,1
    1c24:	00008067          	ret

00001c28 <hal_i2c_stop>:
    1c28:	200067b7          	lui	a5,0x20006
    1c2c:	04000713          	li	a4,64
    1c30:	00e7a823          	sw	a4,16(a5) # 20006010 <_etext+0x1ffe3c4c>
    1c34:	01478713          	addi	a4,a5,20
    1c38:	00072783          	lw	a5,0(a4)
    1c3c:	0407f793          	andi	a5,a5,64
    1c40:	fe079ce3          	bnez	a5,1c38 <hal_i2c_stop+0x10>
    1c44:	00008067          	ret

00001c48 <hal_i2c_init>:
    1c48:	02058263          	beqz	a1,1c6c <hal_i2c_init+0x24>
    1c4c:	02051063          	bnez	a0,1c6c <hal_i2c_init+0x24>
    1c50:	200067b7          	lui	a5,0x20006
    1c54:	0007a023          	sw	zero,0(a5) # 20006000 <_etext+0x1ffe3c3c>
    1c58:	0005a683          	lw	a3,0(a1)
    1c5c:	08000713          	li	a4,128
    1c60:	00d7a223          	sw	a3,4(a5)
    1c64:	00e7a023          	sw	a4,0(a5)
    1c68:	00008067          	ret
    1c6c:	fff00513          	li	a0,-1
    1c70:	00008067          	ret

00001c74 <hal_i2c_deinit>:
    1c74:	00051863          	bnez	a0,1c84 <hal_i2c_deinit+0x10>
    1c78:	200067b7          	lui	a5,0x20006
    1c7c:	0007a023          	sw	zero,0(a5) # 20006000 <_etext+0x1ffe3c3c>
    1c80:	00008067          	ret
    1c84:	fff00513          	li	a0,-1
    1c88:	00008067          	ret

00001c8c <hal_i2c_write_nbyte>:
    1c8c:	00173813          	seqz	a6,a4
    1c90:	0017b893          	seqz	a7,a5
    1c94:	01186833          	or	a6,a6,a7
    1c98:	0e081a63          	bnez	a6,1d8c <hal_i2c_write_nbyte+0x100>
    1c9c:	0e051863          	bnez	a0,1d8c <hal_i2c_write_nbyte+0x100>
    1ca0:	fd010113          	addi	sp,sp,-48
    1ca4:	03212023          	sw	s2,32(sp)
    1ca8:	01512a23          	sw	s5,20(sp)
    1cac:	20006937          	lui	s2,0x20006
    1cb0:	20006ab7          	lui	s5,0x20006
    1cb4:	02812423          	sw	s0,40(sp)
    1cb8:	02912223          	sw	s1,36(sp)
    1cbc:	01312e23          	sw	s3,28(sp)
    1cc0:	01412c23          	sw	s4,24(sp)
    1cc4:	01612823          	sw	s6,16(sp)
    1cc8:	02112623          	sw	ra,44(sp)
    1ccc:	00078993          	mv	s3,a5
    1cd0:	00070a13          	mv	s4,a4
    1cd4:	00060413          	mv	s0,a2
    1cd8:	00159493          	slli	s1,a1,0x1
    1cdc:	008a8a93          	addi	s5,s5,8 # 20006008 <_etext+0x1ffe3c44>
    1ce0:	01090913          	addi	s2,s2,16 # 20006010 <_etext+0x1ffe3c4c>
    1ce4:	09000b13          	li	s6,144
    1ce8:	00d12623          	sw	a3,12(sp)
    1cec:	009aa023          	sw	s1,0(s5)
    1cf0:	01692023          	sw	s6,0(s2)
    1cf4:	ef9ff0ef          	jal	1bec <hal_i2c_get_ack>
    1cf8:	00c12683          	lw	a3,12(sp)
    1cfc:	fe0506e3          	beqz	a0,1ce8 <hal_i2c_write_nbyte+0x5c>
    1d00:	01000793          	li	a5,16
    1d04:	00f69a63          	bne	a3,a5,1d18 <hal_i2c_write_nbyte+0x8c>
    1d08:	00845793          	srli	a5,s0,0x8
    1d0c:	00faa023          	sw	a5,0(s5)
    1d10:	00d92023          	sw	a3,0(s2)
    1d14:	ed9ff0ef          	jal	1bec <hal_i2c_get_ack>
    1d18:	20006937          	lui	s2,0x20006
    1d1c:	0ff47413          	zext.b	s0,s0
    1d20:	200064b7          	lui	s1,0x20006
    1d24:	00892423          	sw	s0,8(s2) # 20006008 <_etext+0x1ffe3c44>
    1d28:	01048493          	addi	s1,s1,16 # 20006010 <_etext+0x1ffe3c4c>
    1d2c:	01000a93          	li	s5,16
    1d30:	0154a023          	sw	s5,0(s1)
    1d34:	00890913          	addi	s2,s2,8
    1d38:	eb5ff0ef          	jal	1bec <hal_i2c_get_ack>
    1d3c:	00000413          	li	s0,0
    1d40:	008a07b3          	add	a5,s4,s0
    1d44:	0007c783          	lbu	a5,0(a5)
    1d48:	00140413          	addi	s0,s0,1
    1d4c:	00f92023          	sw	a5,0(s2)
    1d50:	0154a023          	sw	s5,0(s1)
    1d54:	e99ff0ef          	jal	1bec <hal_i2c_get_ack>
    1d58:	ff3464e3          	bltu	s0,s3,1d40 <hal_i2c_write_nbyte+0xb4>
    1d5c:	ecdff0ef          	jal	1c28 <hal_i2c_stop>
    1d60:	02c12083          	lw	ra,44(sp)
    1d64:	02812403          	lw	s0,40(sp)
    1d68:	02412483          	lw	s1,36(sp)
    1d6c:	02012903          	lw	s2,32(sp)
    1d70:	01c12983          	lw	s3,28(sp)
    1d74:	01812a03          	lw	s4,24(sp)
    1d78:	01412a83          	lw	s5,20(sp)
    1d7c:	01012b03          	lw	s6,16(sp)
    1d80:	00000513          	li	a0,0
    1d84:	03010113          	addi	sp,sp,48
    1d88:	00008067          	ret
    1d8c:	fff00513          	li	a0,-1
    1d90:	00008067          	ret

00001d94 <hal_i2c_read_nbyte>:
    1d94:	00173813          	seqz	a6,a4
    1d98:	0017b893          	seqz	a7,a5
    1d9c:	01186833          	or	a6,a6,a7
    1da0:	12081063          	bnez	a6,1ec0 <hal_i2c_read_nbyte+0x12c>
    1da4:	10051e63          	bnez	a0,1ec0 <hal_i2c_read_nbyte+0x12c>
    1da8:	fd010113          	addi	sp,sp,-48
    1dac:	01312e23          	sw	s3,28(sp)
    1db0:	01512a23          	sw	s5,20(sp)
    1db4:	200069b7          	lui	s3,0x20006
    1db8:	20006ab7          	lui	s5,0x20006
    1dbc:	02812423          	sw	s0,40(sp)
    1dc0:	02912223          	sw	s1,36(sp)
    1dc4:	03212023          	sw	s2,32(sp)
    1dc8:	01412c23          	sw	s4,24(sp)
    1dcc:	01612823          	sw	s6,16(sp)
    1dd0:	02112623          	sw	ra,44(sp)
    1dd4:	00078913          	mv	s2,a5
    1dd8:	00070a13          	mv	s4,a4
    1ddc:	00060493          	mv	s1,a2
    1de0:	00159413          	slli	s0,a1,0x1
    1de4:	008a8a93          	addi	s5,s5,8 # 20006008 <_etext+0x1ffe3c44>
    1de8:	01098993          	addi	s3,s3,16 # 20006010 <_etext+0x1ffe3c4c>
    1dec:	09000b13          	li	s6,144
    1df0:	00d12623          	sw	a3,12(sp)
    1df4:	008aa023          	sw	s0,0(s5)
    1df8:	0169a023          	sw	s6,0(s3)
    1dfc:	df1ff0ef          	jal	1bec <hal_i2c_get_ack>
    1e00:	00c12683          	lw	a3,12(sp)
    1e04:	fe0506e3          	beqz	a0,1df0 <hal_i2c_read_nbyte+0x5c>
    1e08:	01000793          	li	a5,16
    1e0c:	00f69a63          	bne	a3,a5,1e20 <hal_i2c_read_nbyte+0x8c>
    1e10:	0084d793          	srli	a5,s1,0x8
    1e14:	00faa023          	sw	a5,0(s5)
    1e18:	00d9a023          	sw	a3,0(s3)
    1e1c:	dd1ff0ef          	jal	1bec <hal_i2c_get_ack>
    1e20:	200066b7          	lui	a3,0x20006
    1e24:	0ff4f613          	zext.b	a2,s1
    1e28:	01068993          	addi	s3,a3,16 # 20006010 <_etext+0x1ffe3c4c>
    1e2c:	00c6a423          	sw	a2,8(a3)
    1e30:	01000793          	li	a5,16
    1e34:	00f9a023          	sw	a5,0(s3)
    1e38:	00868493          	addi	s1,a3,8
    1e3c:	db1ff0ef          	jal	1bec <hal_i2c_get_ack>
    1e40:	de9ff0ef          	jal	1c28 <hal_i2c_stop>
    1e44:	00146413          	ori	s0,s0,1
    1e48:	0084a023          	sw	s0,0(s1)
    1e4c:	09000793          	li	a5,144
    1e50:	00f9a023          	sw	a5,0(s3)
    1e54:	200064b7          	lui	s1,0x20006
    1e58:	d95ff0ef          	jal	1bec <hal_i2c_get_ack>
    1e5c:	00000413          	li	s0,0
    1e60:	fff90a93          	addi	s5,s2,-1
    1e64:	00c48493          	addi	s1,s1,12 # 2000600c <_etext+0x1ffe3c48>
    1e68:	02000793          	li	a5,32
    1e6c:	008a9463          	bne	s5,s0,1e74 <hal_i2c_read_nbyte+0xe0>
    1e70:	06000793          	li	a5,96
    1e74:	00f9a023          	sw	a5,0(s3)
    1e78:	d75ff0ef          	jal	1bec <hal_i2c_get_ack>
    1e7c:	0004a703          	lw	a4,0(s1)
    1e80:	008a07b3          	add	a5,s4,s0
    1e84:	00140413          	addi	s0,s0,1
    1e88:	00e78023          	sb	a4,0(a5)
    1e8c:	fd246ee3          	bltu	s0,s2,1e68 <hal_i2c_read_nbyte+0xd4>
    1e90:	d99ff0ef          	jal	1c28 <hal_i2c_stop>
    1e94:	02c12083          	lw	ra,44(sp)
    1e98:	02812403          	lw	s0,40(sp)
    1e9c:	02412483          	lw	s1,36(sp)
    1ea0:	02012903          	lw	s2,32(sp)
    1ea4:	01c12983          	lw	s3,28(sp)
    1ea8:	01812a03          	lw	s4,24(sp)
    1eac:	01412a83          	lw	s5,20(sp)
    1eb0:	01012b03          	lw	s6,16(sp)
    1eb4:	00000513          	li	a0,0
    1eb8:	03010113          	addi	sp,sp,48
    1ebc:	00008067          	ret
    1ec0:	fff00513          	li	a0,-1
    1ec4:	00008067          	ret

00001ec8 <gpio_hal_input_enable>:
    1ec8:	3000f737          	lui	a4,0x3000f
    1ecc:	36472683          	lw	a3,868(a4) # 3000f364 <ddr>
    1ed0:	00100793          	li	a5,1
    1ed4:	00b797b3          	sll	a5,a5,a1
    1ed8:	00d7e7b3          	or	a5,a5,a3
    1edc:	36f72223          	sw	a5,868(a4)
    1ee0:	00008067          	ret

00001ee4 <gpio_hal_output_enable>:
    1ee4:	3000f737          	lui	a4,0x3000f
    1ee8:	36472683          	lw	a3,868(a4) # 3000f364 <ddr>
    1eec:	00100793          	li	a5,1
    1ef0:	00b797b3          	sll	a5,a5,a1
    1ef4:	fff7c793          	not	a5,a5
    1ef8:	00d7f7b3          	and	a5,a5,a3
    1efc:	36f72223          	sw	a5,868(a4)
    1f00:	00008067          	ret

00001f04 <gpio_hal_set_level>:
    1f04:	00100713          	li	a4,1
    1f08:	00b715b3          	sll	a1,a4,a1
    1f0c:	3000f7b7          	lui	a5,0x3000f
    1f10:	00e61a63          	bne	a2,a4,1f24 <gpio_hal_set_level+0x20>
    1f14:	3607a703          	lw	a4,864(a5) # 3000f360 <wdr>
    1f18:	00e5e5b3          	or	a1,a1,a4
    1f1c:	36b7a023          	sw	a1,864(a5)
    1f20:	00008067          	ret
    1f24:	3607a703          	lw	a4,864(a5)
    1f28:	fff5c593          	not	a1,a1
    1f2c:	00e5f5b3          	and	a1,a1,a4
    1f30:	fedff06f          	j	1f1c <gpio_hal_set_level+0x18>

00001f34 <gpio_hal_get_level>:
    1f34:	3000f7b7          	lui	a5,0x3000f
    1f38:	3647a783          	lw	a5,868(a5) # 3000f364 <ddr>
    1f3c:	00100713          	li	a4,1
    1f40:	00b71733          	sll	a4,a4,a1
    1f44:	00b7d7b3          	srl	a5,a5,a1
    1f48:	0017f793          	andi	a5,a5,1
    1f4c:	00078c63          	beqz	a5,1f64 <gpio_hal_get_level+0x30>
    1f50:	3000f7b7          	lui	a5,0x3000f
    1f54:	35c7a503          	lw	a0,860(a5) # 3000f35c <rdr>
    1f58:	00e57533          	and	a0,a0,a4
    1f5c:	00a03533          	snez	a0,a0
    1f60:	00008067          	ret
    1f64:	3000f7b7          	lui	a5,0x3000f
    1f68:	3607a503          	lw	a0,864(a5) # 3000f360 <wdr>
    1f6c:	fedff06f          	j	1f58 <gpio_hal_get_level+0x24>

00001f70 <gpio_hal_read_update>:
    1f70:	100007b7          	lui	a5,0x10000
    1f74:	0007a703          	lw	a4,0(a5) # 10000000 <_etext+0xffddc3c>
    1f78:	03200593          	li	a1,50
    1f7c:	3000f7b7          	lui	a5,0x3000f
    1f80:	00000513          	li	a0,0
    1f84:	34e7ae23          	sw	a4,860(a5) # 3000f35c <rdr>
    1f88:	e00fe06f          	j	588 <hal_delay_us>

00001f8c <gpio_hal_write_update>:
    1f8c:	3000f7b7          	lui	a5,0x3000f
    1f90:	3647a703          	lw	a4,868(a5) # 3000f364 <ddr>
    1f94:	100007b7          	lui	a5,0x10000
    1f98:	03200593          	li	a1,50
    1f9c:	00e7a223          	sw	a4,4(a5) # 10000004 <_etext+0xffddc40>
    1fa0:	3000f7b7          	lui	a5,0x3000f
    1fa4:	3607a703          	lw	a4,864(a5) # 3000f360 <wdr>
    1fa8:	100007b7          	lui	a5,0x10000
    1fac:	00000513          	li	a0,0
    1fb0:	00e7a023          	sw	a4,0(a5) # 10000000 <_etext+0xffddc3c>
    1fb4:	dd4fe06f          	j	588 <hal_delay_us>

00001fb8 <gpio_hal_set_fcfg>:
    1fb8:	000216b7          	lui	a3,0x21
    1fbc:	000215b7          	lui	a1,0x21
    1fc0:	83c68693          	addi	a3,a3,-1988 # 2083c <log_level_colors+0x54>
    1fc4:	03e00613          	li	a2,62
    1fc8:	86858593          	addi	a1,a1,-1944 # 20868 <log_level_colors+0x80>
    1fcc:	00400513          	li	a0,4
    1fd0:	1000a06f          	j	c0d0 <log_print>

00001fd4 <gpio_hal_set_mux>:
    1fd4:	000216b7          	lui	a3,0x21
    1fd8:	000215b7          	lui	a1,0x21
    1fdc:	87868693          	addi	a3,a3,-1928 # 20878 <log_level_colors+0x90>
    1fe0:	04300613          	li	a2,67
    1fe4:	86858593          	addi	a1,a1,-1944 # 20868 <log_level_colors+0x80>
    1fe8:	00400513          	li	a0,4
    1fec:	0e40a06f          	j	c0d0 <log_print>

00001ff0 <easy_print>:
    1ff0:	00050593          	mv	a1,a0
    1ff4:	00021537          	lui	a0,0x21
    1ff8:	8a850513          	addi	a0,a0,-1880 # 208a8 <log_level_colors+0xc0>
    1ffc:	fb5fe06f          	j	fb0 <printf>

00002000 <spi_write_read>:
    2000:	00070893          	mv	a7,a4
    2004:	00300713          	li	a4,3
    2008:	00058793          	mv	a5,a1
    200c:	00068813          	mv	a6,a3
    2010:	0005c583          	lbu	a1,0(a1)
    2014:	06c77863          	bgeu	a4,a2,2084 <spi_write_read+0x84>
    2018:	0027c503          	lbu	a0,2(a5)
    201c:	0017c303          	lbu	t1,1(a5)
    2020:	01800713          	li	a4,24
    2024:	00851513          	slli	a0,a0,0x8
    2028:	00656333          	or	t1,a0,t1
    202c:	00831313          	slli	t1,t1,0x8
    2030:	00855513          	srli	a0,a0,0x8
    2034:	00650533          	add	a0,a0,t1
    2038:	01051513          	slli	a0,a0,0x10
    203c:	0037c303          	lbu	t1,3(a5)
    2040:	01055513          	srli	a0,a0,0x10
    2044:	00851513          	slli	a0,a0,0x8
    2048:	00a366b3          	or	a3,t1,a0
    204c:	00375513          	srli	a0,a4,0x3
    2050:	00150513          	addi	a0,a0,1
    2054:	06c57063          	bgeu	a0,a2,20b4 <spi_write_read+0xb4>
    2058:	40a60633          	sub	a2,a2,a0
    205c:	01061613          	slli	a2,a2,0x10
    2060:	01065613          	srli	a2,a2,0x10
    2064:	02088663          	beqz	a7,2090 <spi_write_read+0x90>
    2068:	00361793          	slli	a5,a2,0x3
    206c:	01089893          	slli	a7,a7,0x10
    2070:	0108d893          	srli	a7,a7,0x10
    2074:	0f87f793          	andi	a5,a5,248
    2078:	00800613          	li	a2,8
    207c:	00000513          	li	a0,0
    2080:	95dff06f          	j	19dc <hal_qspi_read>
    2084:	00000693          	li	a3,0
    2088:	00000713          	li	a4,0
    208c:	fc1ff06f          	j	204c <spi_write_read+0x4c>
    2090:	00a787b3          	add	a5,a5,a0
    2094:	00060a63          	beqz	a2,20a8 <spi_write_read+0xa8>
    2098:	00060813          	mv	a6,a2
    209c:	00000513          	li	a0,0
    20a0:	00800613          	li	a2,8
    20a4:	f88ff06f          	j	182c <hal_qspi_write>
    20a8:	00800613          	li	a2,8
    20ac:	00000513          	li	a0,0
    20b0:	f0cff06f          	j	17bc <hal_qspi_send_cmd>
    20b4:	fe088ae3          	beqz	a7,20a8 <spi_write_read+0xa8>
    20b8:	00000613          	li	a2,0
    20bc:	fadff06f          	j	2068 <spi_write_read+0x68>

000020c0 <sfud_spi_port_init>:
    20c0:	fe010113          	addi	sp,sp,-32
    20c4:	00812c23          	sw	s0,24(sp)
    20c8:	00400793          	li	a5,4
    20cc:	00050413          	mv	s0,a0
    20d0:	00c10593          	addi	a1,sp,12
    20d4:	00000513          	li	a0,0
    20d8:	00112e23          	sw	ra,28(sp)
    20dc:	00f12623          	sw	a5,12(sp)
    20e0:	fb5fe0ef          	jal	1094 <hal_qspi_init>
    20e4:	02051e63          	bnez	a0,2120 <sfud_spi_port_init+0x60>
    20e8:	000027b7          	lui	a5,0x2
    20ec:	00078793          	mv	a5,a5
    20f0:	02f42223          	sw	a5,36(s0)
    20f4:	000027b7          	lui	a5,0x2
    20f8:	71078793          	addi	a5,a5,1808 # 2710 <sfud_erase+0x90>
    20fc:	02042423          	sw	zero,40(s0)
    2100:	02042623          	sw	zero,44(s0)
    2104:	02042823          	sw	zero,48(s0)
    2108:	02042c23          	sw	zero,56(s0)
    210c:	02f42e23          	sw	a5,60(s0)
    2110:	01c12083          	lw	ra,28(sp)
    2114:	01812403          	lw	s0,24(sp)
    2118:	02010113          	addi	sp,sp,32
    211c:	00008067          	ret
    2120:	00200513          	li	a0,2
    2124:	fedff06f          	j	2110 <sfud_spi_port_init+0x50>

00002128 <make_adress_byte_array.part.0.isra.0>:
    2128:	00250513          	addi	a0,a0,2
    212c:	00351513          	slli	a0,a0,0x3
    2130:	ff800793          	li	a5,-8
    2134:	00a5d733          	srl	a4,a1,a0
    2138:	00e60023          	sb	a4,0(a2)
    213c:	ff850513          	addi	a0,a0,-8
    2140:	00160613          	addi	a2,a2,1
    2144:	fef518e3          	bne	a0,a5,2134 <make_adress_byte_array.part.0.isra.0+0xc>
    2148:	00008067          	ret

0000214c <sfud_get_device>:
    214c:	00051863          	bnez	a0,215c <sfud_get_device+0x10>
    2150:	30000537          	lui	a0,0x30000
    2154:	00050513          	mv	a0,a0
    2158:	00008067          	ret
    215c:	00000513          	li	a0,0
    2160:	00008067          	ret

00002164 <sfud_get_device_num>:
    2164:	00100513          	li	a0,1
    2168:	00008067          	ret

0000216c <sfud_get_device_table>:
    216c:	30000537          	lui	a0,0x30000
    2170:	00050513          	mv	a0,a0
    2174:	00008067          	ret

00002178 <sfud_read_status>:
    2178:	fe010113          	addi	sp,sp,-32
    217c:	00500793          	li	a5,5
    2180:	00112e23          	sw	ra,28(sp)
    2184:	00f107a3          	sb	a5,15(sp)
    2188:	02051863          	bnez	a0,21b8 <sfud_read_status+0x40>
    218c:	0000d7b7          	lui	a5,0xd
    2190:	00021737          	lui	a4,0x21
    2194:	000216b7          	lui	a3,0x21
    2198:	000215b7          	lui	a1,0x21
    219c:	f6078793          	addi	a5,a5,-160 # cf60 <__FUNCTION__.1>
    21a0:	8e470713          	addi	a4,a4,-1820 # 208e4 <log_level_colors+0xfc>
    21a4:	8ec68693          	addi	a3,a3,-1812 # 208ec <log_level_colors+0x104>
    21a8:	3bd00613          	li	a2,957
    21ac:	90c58593          	addi	a1,a1,-1780 # 2090c <log_level_colors+0x124>
    21b0:	721090ef          	jal	c0d0 <log_print>
    21b4:	0000006f          	j	21b4 <sfud_read_status+0x3c>
    21b8:	00058693          	mv	a3,a1
    21bc:	02059a63          	bnez	a1,21f0 <sfud_read_status+0x78>
    21c0:	0000d7b7          	lui	a5,0xd
    21c4:	00021737          	lui	a4,0x21
    21c8:	000216b7          	lui	a3,0x21
    21cc:	000215b7          	lui	a1,0x21
    21d0:	f6078793          	addi	a5,a5,-160 # cf60 <__FUNCTION__.1>
    21d4:	92470713          	addi	a4,a4,-1756 # 20924 <log_level_colors+0x13c>
    21d8:	8ec68693          	addi	a3,a3,-1812 # 208ec <log_level_colors+0x104>
    21dc:	3be00613          	li	a2,958
    21e0:	90c58593          	addi	a1,a1,-1780 # 2090c <log_level_colors+0x124>
    21e4:	00000513          	li	a0,0
    21e8:	6e9090ef          	jal	c0d0 <log_print>
    21ec:	0000006f          	j	21ec <sfud_read_status+0x74>
    21f0:	02452783          	lw	a5,36(a0) # 30000024 <flash_table+0x24>
    21f4:	00100713          	li	a4,1
    21f8:	00f10593          	addi	a1,sp,15
    21fc:	00070613          	mv	a2,a4
    2200:	02050513          	addi	a0,a0,32
    2204:	000780e7          	jalr	a5
    2208:	01c12083          	lw	ra,28(sp)
    220c:	02010113          	addi	sp,sp,32
    2210:	00008067          	ret

00002214 <wait_busy>:
    2214:	fe010113          	addi	sp,sp,-32
    2218:	00912a23          	sw	s1,20(sp)
    221c:	03c52483          	lw	s1,60(a0)
    2220:	01212823          	sw	s2,16(sp)
    2224:	00112e23          	sw	ra,28(sp)
    2228:	00812c23          	sw	s0,24(sp)
    222c:	00050913          	mv	s2,a0
    2230:	00f10593          	addi	a1,sp,15
    2234:	00090513          	mv	a0,s2
    2238:	f41ff0ef          	jal	2178 <sfud_read_status>
    223c:	00050413          	mv	s0,a0
    2240:	00051863          	bnez	a0,2250 <wait_busy+0x3c>
    2244:	00f14783          	lbu	a5,15(sp)
    2248:	0017f793          	andi	a5,a5,1
    224c:	02078e63          	beqz	a5,2288 <wait_busy+0x74>
    2250:	00048c63          	beqz	s1,2268 <wait_busy+0x54>
    2254:	03892783          	lw	a5,56(s2)
    2258:	00078463          	beqz	a5,2260 <wait_busy+0x4c>
    225c:	000780e7          	jalr	a5
    2260:	fff48493          	addi	s1,s1,-1
    2264:	fcdff06f          	j	2230 <wait_busy+0x1c>
    2268:	000216b7          	lui	a3,0x21
    226c:	000215b7          	lui	a1,0x21
    2270:	92c68693          	addi	a3,a3,-1748 # 2092c <log_level_colors+0x144>
    2274:	3d500613          	li	a2,981
    2278:	90c58593          	addi	a1,a1,-1780 # 2090c <log_level_colors+0x124>
    227c:	00100513          	li	a0,1
    2280:	00400413          	li	s0,4
    2284:	64d090ef          	jal	c0d0 <log_print>
    2288:	01c12083          	lw	ra,28(sp)
    228c:	00040513          	mv	a0,s0
    2290:	01812403          	lw	s0,24(sp)
    2294:	01412483          	lw	s1,20(sp)
    2298:	01012903          	lw	s2,16(sp)
    229c:	02010113          	addi	sp,sp,32
    22a0:	00008067          	ret

000022a4 <sfud_read>:
    22a4:	fc010113          	addi	sp,sp,-64
    22a8:	02112e23          	sw	ra,60(sp)
    22ac:	02812c23          	sw	s0,56(sp)
    22b0:	02912a23          	sw	s1,52(sp)
    22b4:	03212823          	sw	s2,48(sp)
    22b8:	03312623          	sw	s3,44(sp)
    22bc:	03412423          	sw	s4,40(sp)
    22c0:	02051863          	bnez	a0,22f0 <sfud_read+0x4c>
    22c4:	0000d7b7          	lui	a5,0xd
    22c8:	00021737          	lui	a4,0x21
    22cc:	000216b7          	lui	a3,0x21
    22d0:	000215b7          	lui	a1,0x21
    22d4:	f7478793          	addi	a5,a5,-140 # cf74 <__FUNCTION__.8>
    22d8:	8e470713          	addi	a4,a4,-1820 # 208e4 <log_level_colors+0xfc>
    22dc:	8ec68693          	addi	a3,a3,-1812 # 208ec <log_level_colors+0x104>
    22e0:	18e00613          	li	a2,398
    22e4:	90c58593          	addi	a1,a1,-1780 # 2090c <log_level_colors+0x124>
    22e8:	5e9090ef          	jal	c0d0 <log_print>
    22ec:	0000006f          	j	22ec <sfud_read+0x48>
    22f0:	00068a13          	mv	s4,a3
    22f4:	02069a63          	bnez	a3,2328 <sfud_read+0x84>
    22f8:	0000d7b7          	lui	a5,0xd
    22fc:	00021737          	lui	a4,0x21
    2300:	000216b7          	lui	a3,0x21
    2304:	000215b7          	lui	a1,0x21
    2308:	f7478793          	addi	a5,a5,-140 # cf74 <__FUNCTION__.8>
    230c:	95470713          	addi	a4,a4,-1708 # 20954 <log_level_colors+0x16c>
    2310:	8ec68693          	addi	a3,a3,-1812 # 208ec <log_level_colors+0x104>
    2314:	18f00613          	li	a2,399
    2318:	90c58593          	addi	a1,a1,-1780 # 2090c <log_level_colors+0x124>
    231c:	00000513          	li	a0,0
    2320:	5b1090ef          	jal	c0d0 <log_print>
    2324:	0000006f          	j	2324 <sfud_read+0x80>
    2328:	03454783          	lbu	a5,52(a0)
    232c:	00050413          	mv	s0,a0
    2330:	02079a63          	bnez	a5,2364 <sfud_read+0xc0>
    2334:	0000d7b7          	lui	a5,0xd
    2338:	00021737          	lui	a4,0x21
    233c:	000216b7          	lui	a3,0x21
    2340:	000215b7          	lui	a1,0x21
    2344:	f7478793          	addi	a5,a5,-140 # cf74 <__FUNCTION__.8>
    2348:	95c70713          	addi	a4,a4,-1700 # 2095c <log_level_colors+0x174>
    234c:	8ec68693          	addi	a3,a3,-1812 # 208ec <log_level_colors+0x104>
    2350:	19100613          	li	a2,401
    2354:	90c58593          	addi	a1,a1,-1780 # 2090c <log_level_colors+0x124>
    2358:	00000513          	li	a0,0
    235c:	575090ef          	jal	c0d0 <log_print>
    2360:	0000006f          	j	2360 <sfud_read+0xbc>
    2364:	01052703          	lw	a4,16(a0)
    2368:	00c587b3          	add	a5,a1,a2
    236c:	00060993          	mv	s3,a2
    2370:	04f77463          	bgeu	a4,a5,23b8 <sfud_read+0x114>
    2374:	000216b7          	lui	a3,0x21
    2378:	000215b7          	lui	a1,0x21
    237c:	96c68693          	addi	a3,a3,-1684 # 2096c <log_level_colors+0x184>
    2380:	19400613          	li	a2,404
    2384:	90c58593          	addi	a1,a1,-1780 # 2090c <log_level_colors+0x124>
    2388:	00100513          	li	a0,1
    238c:	545090ef          	jal	c0d0 <log_print>
    2390:	00500493          	li	s1,5
    2394:	03c12083          	lw	ra,60(sp)
    2398:	03812403          	lw	s0,56(sp)
    239c:	03012903          	lw	s2,48(sp)
    23a0:	02c12983          	lw	s3,44(sp)
    23a4:	02812a03          	lw	s4,40(sp)
    23a8:	00048513          	mv	a0,s1
    23ac:	03412483          	lw	s1,52(sp)
    23b0:	04010113          	addi	sp,sp,64
    23b4:	00008067          	ret
    23b8:	02852783          	lw	a5,40(a0)
    23bc:	00078a63          	beqz	a5,23d0 <sfud_read+0x12c>
    23c0:	02050513          	addi	a0,a0,32
    23c4:	00b12623          	sw	a1,12(sp)
    23c8:	000780e7          	jalr	a5
    23cc:	00c12583          	lw	a1,12(sp)
    23d0:	00040513          	mv	a0,s0
    23d4:	00b12623          	sw	a1,12(sp)
    23d8:	e3dff0ef          	jal	2214 <wait_busy>
    23dc:	00c12583          	lw	a1,12(sp)
    23e0:	00400493          	li	s1,4
    23e4:	04051063          	bnez	a0,2424 <sfud_read+0x180>
    23e8:	03544503          	lbu	a0,53(s0)
    23ec:	00300793          	li	a5,3
    23f0:	01910613          	addi	a2,sp,25
    23f4:	00f10c23          	sb	a5,24(sp)
    23f8:	d31ff0ef          	jal	2128 <make_adress_byte_array.part.0.isra.0>
    23fc:	03544603          	lbu	a2,53(s0)
    2400:	02442783          	lw	a5,36(s0)
    2404:	00098713          	mv	a4,s3
    2408:	00960633          	add	a2,a2,s1
    240c:	000a0693          	mv	a3,s4
    2410:	0ff67613          	zext.b	a2,a2
    2414:	01810593          	addi	a1,sp,24
    2418:	02040513          	addi	a0,s0,32
    241c:	000780e7          	jalr	a5
    2420:	00050493          	mv	s1,a0
    2424:	02c42783          	lw	a5,44(s0)
    2428:	f60786e3          	beqz	a5,2394 <sfud_read+0xf0>
    242c:	02040513          	addi	a0,s0,32
    2430:	000780e7          	jalr	a5
    2434:	f61ff06f          	j	2394 <sfud_read+0xf0>

00002438 <set_write_enabled>:
    2438:	fe010113          	addi	sp,sp,-32
    243c:	00112e23          	sw	ra,28(sp)
    2440:	00812c23          	sw	s0,24(sp)
    2444:	00912a23          	sw	s1,20(sp)
    2448:	02051863          	bnez	a0,2478 <set_write_enabled+0x40>
    244c:	0000d7b7          	lui	a5,0xd
    2450:	00021737          	lui	a4,0x21
    2454:	000216b7          	lui	a3,0x21
    2458:	000215b7          	lui	a1,0x21
    245c:	f8078793          	addi	a5,a5,-128 # cf80 <__FUNCTION__.10>
    2460:	8e470713          	addi	a4,a4,-1820 # 208e4 <log_level_colors+0xfc>
    2464:	8ec68693          	addi	a3,a3,-1812 # 208ec <log_level_colors+0x104>
    2468:	36f00613          	li	a2,879
    246c:	90c58593          	addi	a1,a1,-1780 # 2090c <log_level_colors+0x124>
    2470:	461090ef          	jal	c0d0 <log_print>
    2474:	0000006f          	j	2474 <set_write_enabled+0x3c>
    2478:	0015b793          	seqz	a5,a1
    247c:	40f007b3          	neg	a5,a5
    2480:	ffe7f793          	andi	a5,a5,-2
    2484:	00678793          	addi	a5,a5,6
    2488:	00f10723          	sb	a5,14(sp)
    248c:	02452783          	lw	a5,36(a0)
    2490:	00050413          	mv	s0,a0
    2494:	00058493          	mv	s1,a1
    2498:	00000713          	li	a4,0
    249c:	00000693          	li	a3,0
    24a0:	00100613          	li	a2,1
    24a4:	00e10593          	addi	a1,sp,14
    24a8:	02050513          	addi	a0,a0,32
    24ac:	000780e7          	jalr	a5
    24b0:	04051263          	bnez	a0,24f4 <set_write_enabled+0xbc>
    24b4:	00f10593          	addi	a1,sp,15
    24b8:	00040513          	mv	a0,s0
    24bc:	cbdff0ef          	jal	2178 <sfud_read_status>
    24c0:	02051a63          	bnez	a0,24f4 <set_write_enabled+0xbc>
    24c4:	00f14783          	lbu	a5,15(sp)
    24c8:	0027f793          	andi	a5,a5,2
    24cc:	02048e63          	beqz	s1,2508 <set_write_enabled+0xd0>
    24d0:	02079263          	bnez	a5,24f4 <set_write_enabled+0xbc>
    24d4:	000216b7          	lui	a3,0x21
    24d8:	99468693          	addi	a3,a3,-1644 # 20994 <log_level_colors+0x1ac>
    24dc:	37f00613          	li	a2,895
    24e0:	000215b7          	lui	a1,0x21
    24e4:	00100513          	li	a0,1
    24e8:	90c58593          	addi	a1,a1,-1780 # 2090c <log_level_colors+0x124>
    24ec:	3e5090ef          	jal	c0d0 <log_print>
    24f0:	00200513          	li	a0,2
    24f4:	01c12083          	lw	ra,28(sp)
    24f8:	01812403          	lw	s0,24(sp)
    24fc:	01412483          	lw	s1,20(sp)
    2500:	02010113          	addi	sp,sp,32
    2504:	00008067          	ret
    2508:	fe0786e3          	beqz	a5,24f4 <set_write_enabled+0xbc>
    250c:	000216b7          	lui	a3,0x21
    2510:	9b868693          	addi	a3,a3,-1608 # 209b8 <log_level_colors+0x1d0>
    2514:	38200613          	li	a2,898
    2518:	fc9ff06f          	j	24e0 <set_write_enabled+0xa8>

0000251c <sfud_chip_erase>:
    251c:	fe010113          	addi	sp,sp,-32
    2520:	00112e23          	sw	ra,28(sp)
    2524:	00812c23          	sw	s0,24(sp)
    2528:	00912a23          	sw	s1,20(sp)
    252c:	01212823          	sw	s2,16(sp)
    2530:	02051863          	bnez	a0,2560 <sfud_chip_erase+0x44>
    2534:	0000d7b7          	lui	a5,0xd
    2538:	00021737          	lui	a4,0x21
    253c:	000216b7          	lui	a3,0x21
    2540:	000215b7          	lui	a1,0x21
    2544:	f9478793          	addi	a5,a5,-108 # cf94 <__FUNCTION__.6>
    2548:	8e470713          	addi	a4,a4,-1820 # 208e4 <log_level_colors+0xfc>
    254c:	8ec68693          	addi	a3,a3,-1812 # 208ec <log_level_colors+0x104>
    2550:	1be00613          	li	a2,446
    2554:	90c58593          	addi	a1,a1,-1780 # 2090c <log_level_colors+0x124>
    2558:	379090ef          	jal	c0d0 <log_print>
    255c:	0000006f          	j	255c <sfud_chip_erase+0x40>
    2560:	03454783          	lbu	a5,52(a0)
    2564:	00050493          	mv	s1,a0
    2568:	02079a63          	bnez	a5,259c <sfud_chip_erase+0x80>
    256c:	0000d7b7          	lui	a5,0xd
    2570:	00021737          	lui	a4,0x21
    2574:	000216b7          	lui	a3,0x21
    2578:	000215b7          	lui	a1,0x21
    257c:	f9478793          	addi	a5,a5,-108 # cf94 <__FUNCTION__.6>
    2580:	95c70713          	addi	a4,a4,-1700 # 2095c <log_level_colors+0x174>
    2584:	8ec68693          	addi	a3,a3,-1812 # 208ec <log_level_colors+0x104>
    2588:	1c000613          	li	a2,448
    258c:	90c58593          	addi	a1,a1,-1780 # 2090c <log_level_colors+0x124>
    2590:	00000513          	li	a0,0
    2594:	33d090ef          	jal	c0d0 <log_print>
    2598:	0000006f          	j	2598 <sfud_chip_erase+0x7c>
    259c:	02852783          	lw	a5,40(a0)
    25a0:	00078663          	beqz	a5,25ac <sfud_chip_erase+0x90>
    25a4:	02050513          	addi	a0,a0,32
    25a8:	000780e7          	jalr	a5
    25ac:	00100593          	li	a1,1
    25b0:	00048513          	mv	a0,s1
    25b4:	e85ff0ef          	jal	2438 <set_write_enabled>
    25b8:	00050413          	mv	s0,a0
    25bc:	06051663          	bnez	a0,2628 <sfud_chip_erase+0x10c>
    25c0:	fc700793          	li	a5,-57
    25c4:	00f10623          	sb	a5,12(sp)
    25c8:	0144d783          	lhu	a5,20(s1)
    25cc:	0244a803          	lw	a6,36(s1)
    25d0:	0087f793          	andi	a5,a5,8
    25d4:	08078663          	beqz	a5,2660 <sfud_chip_erase+0x144>
    25d8:	f9400793          	li	a5,-108
    25dc:	00f106a3          	sb	a5,13(sp)
    25e0:	ffffa7b7          	lui	a5,0xffffa
    25e4:	a8078793          	addi	a5,a5,-1408 # ffff9a80 <_stack_point+0xcffd9a80>
    25e8:	00f11723          	sh	a5,14(sp)
    25ec:	00000713          	li	a4,0
    25f0:	00000693          	li	a3,0
    25f4:	00400613          	li	a2,4
    25f8:	00c10593          	addi	a1,sp,12
    25fc:	02048513          	addi	a0,s1,32
    2600:	000800e7          	jalr	a6
    2604:	00050413          	mv	s0,a0
    2608:	06050463          	beqz	a0,2670 <sfud_chip_erase+0x154>
    260c:	000216b7          	lui	a3,0x21
    2610:	000215b7          	lui	a1,0x21
    2614:	9dc68693          	addi	a3,a3,-1572 # 209dc <log_level_colors+0x1f4>
    2618:	1d700613          	li	a2,471
    261c:	90c58593          	addi	a1,a1,-1780 # 2090c <log_level_colors+0x124>
    2620:	00100513          	li	a0,1
    2624:	2ad090ef          	jal	c0d0 <log_print>
    2628:	00000593          	li	a1,0
    262c:	00048513          	mv	a0,s1
    2630:	e09ff0ef          	jal	2438 <set_write_enabled>
    2634:	02c4a783          	lw	a5,44(s1)
    2638:	00078663          	beqz	a5,2644 <sfud_chip_erase+0x128>
    263c:	02048513          	addi	a0,s1,32
    2640:	000780e7          	jalr	a5
    2644:	01c12083          	lw	ra,28(sp)
    2648:	00040513          	mv	a0,s0
    264c:	01812403          	lw	s0,24(sp)
    2650:	01412483          	lw	s1,20(sp)
    2654:	01012903          	lw	s2,16(sp)
    2658:	02010113          	addi	sp,sp,32
    265c:	00008067          	ret
    2660:	00000713          	li	a4,0
    2664:	00000693          	li	a3,0
    2668:	00100613          	li	a2,1
    266c:	f8dff06f          	j	25f8 <sfud_chip_erase+0xdc>
    2670:	00048513          	mv	a0,s1
    2674:	ba1ff0ef          	jal	2214 <wait_busy>
    2678:	00050413          	mv	s0,a0
    267c:	fadff06f          	j	2628 <sfud_chip_erase+0x10c>

00002680 <sfud_erase>:
    2680:	fd010113          	addi	sp,sp,-48
    2684:	02112623          	sw	ra,44(sp)
    2688:	02812423          	sw	s0,40(sp)
    268c:	02912223          	sw	s1,36(sp)
    2690:	03212023          	sw	s2,32(sp)
    2694:	01312e23          	sw	s3,28(sp)
    2698:	01412c23          	sw	s4,24(sp)
    269c:	01512a23          	sw	s5,20(sp)
    26a0:	01612823          	sw	s6,16(sp)
    26a4:	02051863          	bnez	a0,26d4 <sfud_erase+0x54>
    26a8:	0000d7b7          	lui	a5,0xd
    26ac:	00021737          	lui	a4,0x21
    26b0:	000216b7          	lui	a3,0x21
    26b4:	000215b7          	lui	a1,0x21
    26b8:	fa478793          	addi	a5,a5,-92 # cfa4 <__FUNCTION__.5>
    26bc:	8e470713          	addi	a4,a4,-1820 # 208e4 <log_level_colors+0xfc>
    26c0:	8ec68693          	addi	a3,a3,-1812 # 208ec <log_level_colors+0x104>
    26c4:	1fa00613          	li	a2,506
    26c8:	90c58593          	addi	a1,a1,-1780 # 2090c <log_level_colors+0x124>
    26cc:	205090ef          	jal	c0d0 <log_print>
    26d0:	0000006f          	j	26d0 <sfud_erase+0x50>
    26d4:	03454783          	lbu	a5,52(a0)
    26d8:	00050413          	mv	s0,a0
    26dc:	02079a63          	bnez	a5,2710 <sfud_erase+0x90>
    26e0:	0000d7b7          	lui	a5,0xd
    26e4:	00021737          	lui	a4,0x21
    26e8:	000216b7          	lui	a3,0x21
    26ec:	000215b7          	lui	a1,0x21
    26f0:	fa478793          	addi	a5,a5,-92 # cfa4 <__FUNCTION__.5>
    26f4:	95c70713          	addi	a4,a4,-1700 # 2095c <log_level_colors+0x174>
    26f8:	8ec68693          	addi	a3,a3,-1812 # 208ec <log_level_colors+0x104>
    26fc:	1fc00613          	li	a2,508
    2700:	90c58593          	addi	a1,a1,-1780 # 2090c <log_level_colors+0x124>
    2704:	00000513          	li	a0,0
    2708:	1c9090ef          	jal	c0d0 <log_print>
    270c:	0000006f          	j	270c <sfud_erase+0x8c>
    2710:	01052783          	lw	a5,16(a0)
    2714:	00c58733          	add	a4,a1,a2
    2718:	00058993          	mv	s3,a1
    271c:	00060493          	mv	s1,a2
    2720:	04e7f863          	bgeu	a5,a4,2770 <sfud_erase+0xf0>
    2724:	000216b7          	lui	a3,0x21
    2728:	000215b7          	lui	a1,0x21
    272c:	96c68693          	addi	a3,a3,-1684 # 2096c <log_level_colors+0x184>
    2730:	1ff00613          	li	a2,511
    2734:	90c58593          	addi	a1,a1,-1780 # 2090c <log_level_colors+0x124>
    2738:	00100513          	li	a0,1
    273c:	195090ef          	jal	c0d0 <log_print>
    2740:	00500913          	li	s2,5
    2744:	02c12083          	lw	ra,44(sp)
    2748:	02812403          	lw	s0,40(sp)
    274c:	02412483          	lw	s1,36(sp)
    2750:	01c12983          	lw	s3,28(sp)
    2754:	01812a03          	lw	s4,24(sp)
    2758:	01412a83          	lw	s5,20(sp)
    275c:	01012b03          	lw	s6,16(sp)
    2760:	00090513          	mv	a0,s2
    2764:	02012903          	lw	s2,32(sp)
    2768:	03010113          	addi	sp,sp,48
    276c:	00008067          	ret
    2770:	02059863          	bnez	a1,27a0 <sfud_erase+0x120>
    2774:	02c79663          	bne	a5,a2,27a0 <sfud_erase+0x120>
    2778:	02812403          	lw	s0,40(sp)
    277c:	02c12083          	lw	ra,44(sp)
    2780:	02412483          	lw	s1,36(sp)
    2784:	02012903          	lw	s2,32(sp)
    2788:	01c12983          	lw	s3,28(sp)
    278c:	01812a03          	lw	s4,24(sp)
    2790:	01412a83          	lw	s5,20(sp)
    2794:	01012b03          	lw	s6,16(sp)
    2798:	03010113          	addi	sp,sp,48
    279c:	d81ff06f          	j	251c <sfud_chip_erase>
    27a0:	02842783          	lw	a5,40(s0)
    27a4:	00078663          	beqz	a5,27b0 <sfud_erase+0x130>
    27a8:	02040513          	addi	a0,s0,32
    27ac:	000780e7          	jalr	a5
    27b0:	0e048263          	beqz	s1,2894 <sfud_erase+0x214>
    27b4:	04444783          	lbu	a5,68(s0)
    27b8:	0a078a63          	beqz	a5,286c <sfud_erase+0x1ec>
    27bc:	00048613          	mv	a2,s1
    27c0:	00098593          	mv	a1,s3
    27c4:	00040513          	mv	a0,s0
    27c8:	330010ef          	jal	3af8 <sfud_sfdp_get_suitable_eraser>
    27cc:	00351513          	slli	a0,a0,0x3
    27d0:	00a40533          	add	a0,s0,a0
    27d4:	05854a83          	lbu	s5,88(a0)
    27d8:	05452a03          	lw	s4,84(a0)
    27dc:	00100593          	li	a1,1
    27e0:	00040513          	mv	a0,s0
    27e4:	c55ff0ef          	jal	2438 <set_write_enabled>
    27e8:	00050913          	mv	s2,a0
    27ec:	06051063          	bnez	a0,284c <sfud_erase+0x1cc>
    27f0:	03544503          	lbu	a0,53(s0)
    27f4:	00910613          	addi	a2,sp,9
    27f8:	00098593          	mv	a1,s3
    27fc:	01510423          	sb	s5,8(sp)
    2800:	929ff0ef          	jal	2128 <make_adress_byte_array.part.0.isra.0>
    2804:	03544603          	lbu	a2,53(s0)
    2808:	02442783          	lw	a5,36(s0)
    280c:	00000713          	li	a4,0
    2810:	00460613          	addi	a2,a2,4
    2814:	00000693          	li	a3,0
    2818:	0ff67613          	zext.b	a2,a2
    281c:	00810593          	addi	a1,sp,8
    2820:	02040513          	addi	a0,s0,32
    2824:	000780e7          	jalr	a5
    2828:	00050913          	mv	s2,a0
    282c:	04050663          	beqz	a0,2878 <sfud_erase+0x1f8>
    2830:	000216b7          	lui	a3,0x21
    2834:	000215b7          	lui	a1,0x21
    2838:	a0c68693          	addi	a3,a3,-1524 # 20a0c <log_level_colors+0x224>
    283c:	22800613          	li	a2,552
    2840:	90c58593          	addi	a1,a1,-1780 # 2090c <log_level_colors+0x124>
    2844:	00100513          	li	a0,1
    2848:	089090ef          	jal	c0d0 <log_print>
    284c:	00000593          	li	a1,0
    2850:	00040513          	mv	a0,s0
    2854:	be5ff0ef          	jal	2438 <set_write_enabled>
    2858:	02c42783          	lw	a5,44(s0)
    285c:	ee0784e3          	beqz	a5,2744 <sfud_erase+0xc4>
    2860:	02040513          	addi	a0,s0,32
    2864:	000780e7          	jalr	a5
    2868:	eddff06f          	j	2744 <sfud_erase+0xc4>
    286c:	01c44a83          	lbu	s5,28(s0)
    2870:	01842a03          	lw	s4,24(s0)
    2874:	f69ff06f          	j	27dc <sfud_erase+0x15c>
    2878:	00040513          	mv	a0,s0
    287c:	999ff0ef          	jal	2214 <wait_busy>
    2880:	02051e63          	bnez	a0,28bc <sfud_erase+0x23c>
    2884:	0349f7b3          	remu	a5,s3,s4
    2888:	02078263          	beqz	a5,28ac <sfud_erase+0x22c>
    288c:	40fa0733          	sub	a4,s4,a5
    2890:	00976663          	bltu	a4,s1,289c <sfud_erase+0x21c>
    2894:	00000913          	li	s2,0
    2898:	fb5ff06f          	j	284c <sfud_erase+0x1cc>
    289c:	414787b3          	sub	a5,a5,s4
    28a0:	00f484b3          	add	s1,s1,a5
    28a4:	00e989b3          	add	s3,s3,a4
    28a8:	f09ff06f          	j	27b0 <sfud_erase+0x130>
    28ac:	fe9a74e3          	bgeu	s4,s1,2894 <sfud_erase+0x214>
    28b0:	414484b3          	sub	s1,s1,s4
    28b4:	014989b3          	add	s3,s3,s4
    28b8:	ef9ff06f          	j	27b0 <sfud_erase+0x130>
    28bc:	00400913          	li	s2,4
    28c0:	f8dff06f          	j	284c <sfud_erase+0x1cc>

000028c4 <page256_or_1_byte_write>:
    28c4:	fd010113          	addi	sp,sp,-48
    28c8:	02112623          	sw	ra,44(sp)
    28cc:	02812423          	sw	s0,40(sp)
    28d0:	02912223          	sw	s1,36(sp)
    28d4:	03212023          	sw	s2,32(sp)
    28d8:	01312e23          	sw	s3,28(sp)
    28dc:	01412c23          	sw	s4,24(sp)
    28e0:	01512a23          	sw	s5,20(sp)
    28e4:	01612823          	sw	s6,16(sp)
    28e8:	01712623          	sw	s7,12(sp)
    28ec:	01812423          	sw	s8,8(sp)
    28f0:	01912223          	sw	s9,4(sp)
    28f4:	02051863          	bnez	a0,2924 <page256_or_1_byte_write+0x60>
    28f8:	0000d7b7          	lui	a5,0xd
    28fc:	00021737          	lui	a4,0x21
    2900:	000216b7          	lui	a3,0x21
    2904:	000215b7          	lui	a1,0x21
    2908:	fb078793          	addi	a5,a5,-80 # cfb0 <__FUNCTION__.4>
    290c:	8e470713          	addi	a4,a4,-1820 # 208e4 <log_level_colors+0xfc>
    2910:	8ec68693          	addi	a3,a3,-1812 # 208ec <log_level_colors+0x104>
    2914:	25f00613          	li	a2,607
    2918:	90c58593          	addi	a1,a1,-1780 # 2090c <log_level_colors+0x124>
    291c:	7b4090ef          	jal	c0d0 <log_print>
    2920:	0000006f          	j	2920 <page256_or_1_byte_write+0x5c>
    2924:	03454783          	lbu	a5,52(a0)
    2928:	00050413          	mv	s0,a0
    292c:	02079a63          	bnez	a5,2960 <page256_or_1_byte_write+0x9c>
    2930:	0000d7b7          	lui	a5,0xd
    2934:	00021737          	lui	a4,0x21
    2938:	000216b7          	lui	a3,0x21
    293c:	000215b7          	lui	a1,0x21
    2940:	fb078793          	addi	a5,a5,-80 # cfb0 <__FUNCTION__.4>
    2944:	95c70713          	addi	a4,a4,-1700 # 2095c <log_level_colors+0x174>
    2948:	8ec68693          	addi	a3,a3,-1812 # 208ec <log_level_colors+0x104>
    294c:	26300613          	li	a2,611
    2950:	90c58593          	addi	a1,a1,-1780 # 2090c <log_level_colors+0x124>
    2954:	00000513          	li	a0,0
    2958:	778090ef          	jal	c0d0 <log_print>
    295c:	0000006f          	j	295c <page256_or_1_byte_write+0x98>
    2960:	00070a93          	mv	s5,a4
    2964:	01052703          	lw	a4,16(a0)
    2968:	00c587b3          	add	a5,a1,a2
    296c:	00058993          	mv	s3,a1
    2970:	00060913          	mv	s2,a2
    2974:	04f77e63          	bgeu	a4,a5,29d0 <page256_or_1_byte_write+0x10c>
    2978:	000216b7          	lui	a3,0x21
    297c:	000215b7          	lui	a1,0x21
    2980:	96c68693          	addi	a3,a3,-1684 # 2096c <log_level_colors+0x184>
    2984:	26600613          	li	a2,614
    2988:	90c58593          	addi	a1,a1,-1780 # 2090c <log_level_colors+0x124>
    298c:	00100513          	li	a0,1
    2990:	740090ef          	jal	c0d0 <log_print>
    2994:	00500493          	li	s1,5
    2998:	02c12083          	lw	ra,44(sp)
    299c:	02812403          	lw	s0,40(sp)
    29a0:	02012903          	lw	s2,32(sp)
    29a4:	01c12983          	lw	s3,28(sp)
    29a8:	01812a03          	lw	s4,24(sp)
    29ac:	01412a83          	lw	s5,20(sp)
    29b0:	01012b03          	lw	s6,16(sp)
    29b4:	00c12b83          	lw	s7,12(sp)
    29b8:	00812c03          	lw	s8,8(sp)
    29bc:	00412c83          	lw	s9,4(sp)
    29c0:	00048513          	mv	a0,s1
    29c4:	02412483          	lw	s1,36(sp)
    29c8:	03010113          	addi	sp,sp,48
    29cc:	00008067          	ret
    29d0:	02852783          	lw	a5,40(a0)
    29d4:	00068b13          	mv	s6,a3
    29d8:	00078663          	beqz	a5,29e4 <page256_or_1_byte_write+0x120>
    29dc:	02050513          	addi	a0,a0,32
    29e0:	000780e7          	jalr	a5
    29e4:	30000a37          	lui	s4,0x30000
    29e8:	07ca0a13          	addi	s4,s4,124 # 3000007c <cmd_data.3>
    29ec:	00200b93          	li	s7,2
    29f0:	0e80006f          	j	2ad8 <page256_or_1_byte_write+0x214>
    29f4:	00100593          	li	a1,1
    29f8:	00040513          	mv	a0,s0
    29fc:	a3dff0ef          	jal	2438 <set_write_enabled>
    2a00:	00050493          	mv	s1,a0
    2a04:	08051e63          	bnez	a0,2aa0 <page256_or_1_byte_write+0x1dc>
    2a08:	03544503          	lbu	a0,53(s0)
    2a0c:	300007b7          	lui	a5,0x30000
    2a10:	07d78613          	addi	a2,a5,125 # 3000007d <cmd_data.3+0x1>
    2a14:	00098593          	mv	a1,s3
    2a18:	017a0023          	sb	s7,0(s4)
    2a1c:	f0cff0ef          	jal	2128 <make_adress_byte_array.part.0.isra.0>
    2a20:	0369f7b3          	remu	a5,s3,s6
    2a24:	03544483          	lbu	s1,53(s0)
    2a28:	00448493          	addi	s1,s1,4
    2a2c:	0ff4f493          	zext.b	s1,s1
    2a30:	00078c63          	beqz	a5,2a48 <page256_or_1_byte_write+0x184>
    2a34:	10000c13          	li	s8,256
    2a38:	40fc0c33          	sub	s8,s8,a5
    2a3c:	01897a63          	bgeu	s2,s8,2a50 <page256_or_1_byte_write+0x18c>
    2a40:	00090c13          	mv	s8,s2
    2a44:	00c0006f          	j	2a50 <page256_or_1_byte_write+0x18c>
    2a48:	000b0c13          	mv	s8,s6
    2a4c:	ff696ae3          	bltu	s2,s6,2a40 <page256_or_1_byte_write+0x17c>
    2a50:	000c0613          	mv	a2,s8
    2a54:	000a8593          	mv	a1,s5
    2a58:	009a0533          	add	a0,s4,s1
    2a5c:	f54fd0ef          	jal	1b0 <memcpy>
    2a60:	02442783          	lw	a5,36(s0)
    2a64:	01848633          	add	a2,s1,s8
    2a68:	00000713          	li	a4,0
    2a6c:	00000693          	li	a3,0
    2a70:	000a0593          	mv	a1,s4
    2a74:	02040513          	addi	a0,s0,32
    2a78:	000780e7          	jalr	a5
    2a7c:	00050493          	mv	s1,a0
    2a80:	04050063          	beqz	a0,2ac0 <page256_or_1_byte_write+0x1fc>
    2a84:	000216b7          	lui	a3,0x21
    2a88:	000215b7          	lui	a1,0x21
    2a8c:	a3868693          	addi	a3,a3,-1480 # 20a38 <log_level_colors+0x250>
    2a90:	28e00613          	li	a2,654
    2a94:	90c58593          	addi	a1,a1,-1780 # 2090c <log_level_colors+0x124>
    2a98:	00100513          	li	a0,1
    2a9c:	634090ef          	jal	c0d0 <log_print>
    2aa0:	00000593          	li	a1,0
    2aa4:	00040513          	mv	a0,s0
    2aa8:	991ff0ef          	jal	2438 <set_write_enabled>
    2aac:	02c42783          	lw	a5,44(s0)
    2ab0:	ee0784e3          	beqz	a5,2998 <page256_or_1_byte_write+0xd4>
    2ab4:	02040513          	addi	a0,s0,32
    2ab8:	000780e7          	jalr	a5
    2abc:	eddff06f          	j	2998 <page256_or_1_byte_write+0xd4>
    2ac0:	00040513          	mv	a0,s0
    2ac4:	f50ff0ef          	jal	2214 <wait_busy>
    2ac8:	00051e63          	bnez	a0,2ae4 <page256_or_1_byte_write+0x220>
    2acc:	41890933          	sub	s2,s2,s8
    2ad0:	018989b3          	add	s3,s3,s8
    2ad4:	018a8ab3          	add	s5,s5,s8
    2ad8:	f0091ee3          	bnez	s2,29f4 <page256_or_1_byte_write+0x130>
    2adc:	00000493          	li	s1,0
    2ae0:	fc1ff06f          	j	2aa0 <page256_or_1_byte_write+0x1dc>
    2ae4:	00400493          	li	s1,4
    2ae8:	fb9ff06f          	j	2aa0 <page256_or_1_byte_write+0x1dc>

00002aec <sfud_write>:
    2aec:	01455783          	lhu	a5,20(a0)
    2af0:	fc010113          	addi	sp,sp,-64
    2af4:	03212823          	sw	s2,48(sp)
    2af8:	02112e23          	sw	ra,60(sp)
    2afc:	02812c23          	sw	s0,56(sp)
    2b00:	02912a23          	sw	s1,52(sp)
    2b04:	03312623          	sw	s3,44(sp)
    2b08:	03412423          	sw	s4,40(sp)
    2b0c:	03512223          	sw	s5,36(sp)
    2b10:	03612023          	sw	s6,32(sp)
    2b14:	01712e23          	sw	s7,28(sp)
    2b18:	01812c23          	sw	s8,24(sp)
    2b1c:	0017f713          	andi	a4,a5,1
    2b20:	00068913          	mv	s2,a3
    2b24:	02070e63          	beqz	a4,2b60 <sfud_write+0x74>
    2b28:	03812403          	lw	s0,56(sp)
    2b2c:	03c12083          	lw	ra,60(sp)
    2b30:	03412483          	lw	s1,52(sp)
    2b34:	03012903          	lw	s2,48(sp)
    2b38:	02c12983          	lw	s3,44(sp)
    2b3c:	02812a03          	lw	s4,40(sp)
    2b40:	02412a83          	lw	s5,36(sp)
    2b44:	02012b03          	lw	s6,32(sp)
    2b48:	01c12b83          	lw	s7,28(sp)
    2b4c:	01812c03          	lw	s8,24(sp)
    2b50:	00068713          	mv	a4,a3
    2b54:	10000693          	li	a3,256
    2b58:	04010113          	addi	sp,sp,64
    2b5c:	d69ff06f          	j	28c4 <page256_or_1_byte_write>
    2b60:	0047f793          	andi	a5,a5,4
    2b64:	00000413          	li	s0,0
    2b68:	06078a63          	beqz	a5,2bdc <sfud_write+0xf0>
    2b6c:	03454b03          	lbu	s6,52(a0)
    2b70:	00050493          	mv	s1,a0
    2b74:	020b1a63          	bnez	s6,2ba8 <sfud_write+0xbc>
    2b78:	0000d7b7          	lui	a5,0xd
    2b7c:	00021737          	lui	a4,0x21
    2b80:	000216b7          	lui	a3,0x21
    2b84:	000215b7          	lui	a1,0x21
    2b88:	fc878793          	addi	a5,a5,-56 # cfc8 <__FUNCTION__.2>
    2b8c:	95c70713          	addi	a4,a4,-1700 # 2095c <log_level_colors+0x174>
    2b90:	8ec68693          	addi	a3,a3,-1812 # 208ec <log_level_colors+0x104>
    2b94:	2b700613          	li	a2,695
    2b98:	90c58593          	addi	a1,a1,-1780 # 2090c <log_level_colors+0x124>
    2b9c:	00000513          	li	a0,0
    2ba0:	530090ef          	jal	c0d0 <log_print>
    2ba4:	0000006f          	j	2ba4 <sfud_write+0xb8>
    2ba8:	01052703          	lw	a4,16(a0)
    2bac:	00c587b3          	add	a5,a1,a2
    2bb0:	00058a93          	mv	s5,a1
    2bb4:	00060993          	mv	s3,a2
    2bb8:	04f77c63          	bgeu	a4,a5,2c10 <sfud_write+0x124>
    2bbc:	000216b7          	lui	a3,0x21
    2bc0:	000215b7          	lui	a1,0x21
    2bc4:	96c68693          	addi	a3,a3,-1684 # 2096c <log_level_colors+0x184>
    2bc8:	2ba00613          	li	a2,698
    2bcc:	90c58593          	addi	a1,a1,-1780 # 2090c <log_level_colors+0x124>
    2bd0:	00100513          	li	a0,1
    2bd4:	4fc090ef          	jal	c0d0 <log_print>
    2bd8:	00500413          	li	s0,5
    2bdc:	03c12083          	lw	ra,60(sp)
    2be0:	00040513          	mv	a0,s0
    2be4:	03812403          	lw	s0,56(sp)
    2be8:	03412483          	lw	s1,52(sp)
    2bec:	03012903          	lw	s2,48(sp)
    2bf0:	02c12983          	lw	s3,44(sp)
    2bf4:	02812a03          	lw	s4,40(sp)
    2bf8:	02412a83          	lw	s5,36(sp)
    2bfc:	02012b03          	lw	s6,32(sp)
    2c00:	01c12b83          	lw	s7,28(sp)
    2c04:	01812c03          	lw	s8,24(sp)
    2c08:	04010113          	addi	sp,sp,64
    2c0c:	00008067          	ret
    2c10:	02852783          	lw	a5,40(a0)
    2c14:	00078663          	beqz	a5,2c20 <sfud_write+0x134>
    2c18:	02050513          	addi	a0,a0,32
    2c1c:	000780e7          	jalr	a5
    2c20:	001af793          	andi	a5,s5,1
    2c24:	02078863          	beqz	a5,2c54 <sfud_write+0x168>
    2c28:	00100693          	li	a3,1
    2c2c:	00090713          	mv	a4,s2
    2c30:	00068613          	mv	a2,a3
    2c34:	000a8593          	mv	a1,s5
    2c38:	00048513          	mv	a0,s1
    2c3c:	c89ff0ef          	jal	28c4 <page256_or_1_byte_write>
    2c40:	00050413          	mv	s0,a0
    2c44:	0e051a63          	bnez	a0,2d38 <sfud_write+0x24c>
    2c48:	001a8a93          	addi	s5,s5,1
    2c4c:	00190913          	addi	s2,s2,1
    2c50:	fff98993          	addi	s3,s3,-1
    2c54:	00100593          	li	a1,1
    2c58:	00048513          	mv	a0,s1
    2c5c:	fdcff0ef          	jal	2438 <set_write_enabled>
    2c60:	00050413          	mv	s0,a0
    2c64:	0c051a63          	bnez	a0,2d38 <sfud_write+0x24c>
    2c68:	fad00793          	li	a5,-83
    2c6c:	00f10423          	sb	a5,8(sp)
    2c70:	412a8ab3          	sub	s5,s5,s2
    2c74:	00100a13          	li	s4,1
    2c78:	01590c33          	add	s8,s2,s5
    2c7c:	053a6063          	bltu	s4,s3,2cbc <sfud_write+0x1d0>
    2c80:	00000593          	li	a1,0
    2c84:	00048513          	mv	a0,s1
    2c88:	fb0ff0ef          	jal	2438 <set_write_enabled>
    2c8c:	00050413          	mv	s0,a0
    2c90:	0a051463          	bnez	a0,2d38 <sfud_write+0x24c>
    2c94:	0b499863          	bne	s3,s4,2d44 <sfud_write+0x258>
    2c98:	00090713          	mv	a4,s2
    2c9c:	00098693          	mv	a3,s3
    2ca0:	00098613          	mv	a2,s3
    2ca4:	000c0593          	mv	a1,s8
    2ca8:	00048513          	mv	a0,s1
    2cac:	c19ff0ef          	jal	28c4 <page256_or_1_byte_write>
    2cb0:	08050a63          	beqz	a0,2d44 <sfud_write+0x258>
    2cb4:	00050413          	mv	s0,a0
    2cb8:	0800006f          	j	2d38 <sfud_write+0x24c>
    2cbc:	080b0e63          	beqz	s6,2d58 <sfud_write+0x26c>
    2cc0:	0354c503          	lbu	a0,53(s1)
    2cc4:	00910613          	addi	a2,sp,9
    2cc8:	000c0593          	mv	a1,s8
    2ccc:	c5cff0ef          	jal	2128 <make_adress_byte_array.part.0.isra.0>
    2cd0:	0354c603          	lbu	a2,53(s1)
    2cd4:	00094703          	lbu	a4,0(s2)
    2cd8:	00460613          	addi	a2,a2,4
    2cdc:	0ff67613          	zext.b	a2,a2
    2ce0:	01060793          	addi	a5,a2,16
    2ce4:	002787b3          	add	a5,a5,sp
    2ce8:	fee78c23          	sb	a4,-8(a5)
    2cec:	00194703          	lbu	a4,1(s2)
    2cf0:	fee78ca3          	sb	a4,-7(a5)
    2cf4:	0244a783          	lw	a5,36(s1)
    2cf8:	00260613          	addi	a2,a2,2
    2cfc:	00000713          	li	a4,0
    2d00:	00000693          	li	a3,0
    2d04:	0ff67613          	zext.b	a2,a2
    2d08:	00810593          	addi	a1,sp,8
    2d0c:	02048513          	addi	a0,s1,32
    2d10:	000780e7          	jalr	a5
    2d14:	00050413          	mv	s0,a0
    2d18:	04050c63          	beqz	a0,2d70 <sfud_write+0x284>
    2d1c:	000216b7          	lui	a3,0x21
    2d20:	000215b7          	lui	a1,0x21
    2d24:	a3868693          	addi	a3,a3,-1480 # 20a38 <log_level_colors+0x250>
    2d28:	2df00613          	li	a2,735
    2d2c:	90c58593          	addi	a1,a1,-1780 # 2090c <log_level_colors+0x124>
    2d30:	00100513          	li	a0,1
    2d34:	39c090ef          	jal	c0d0 <log_print>
    2d38:	00000593          	li	a1,0
    2d3c:	00048513          	mv	a0,s1
    2d40:	ef8ff0ef          	jal	2438 <set_write_enabled>
    2d44:	02c4a783          	lw	a5,44(s1)
    2d48:	e8078ae3          	beqz	a5,2bdc <sfud_write+0xf0>
    2d4c:	02048513          	addi	a0,s1,32
    2d50:	000780e7          	jalr	a5
    2d54:	e89ff06f          	j	2bdc <sfud_write+0xf0>
    2d58:	00094783          	lbu	a5,0(s2)
    2d5c:	00100613          	li	a2,1
    2d60:	00f104a3          	sb	a5,9(sp)
    2d64:	00194783          	lbu	a5,1(s2)
    2d68:	00f10523          	sb	a5,10(sp)
    2d6c:	f89ff06f          	j	2cf4 <sfud_write+0x208>
    2d70:	00048513          	mv	a0,s1
    2d74:	ca0ff0ef          	jal	2214 <wait_busy>
    2d78:	00051a63          	bnez	a0,2d8c <sfud_write+0x2a0>
    2d7c:	ffe98993          	addi	s3,s3,-2
    2d80:	00290913          	addi	s2,s2,2
    2d84:	00000b13          	li	s6,0
    2d88:	ef1ff06f          	j	2c78 <sfud_write+0x18c>
    2d8c:	00400413          	li	s0,4
    2d90:	fa9ff06f          	j	2d38 <sfud_write+0x24c>

00002d94 <sfud_erase_write>:
    2d94:	fe010113          	addi	sp,sp,-32
    2d98:	00812c23          	sw	s0,24(sp)
    2d9c:	00b12623          	sw	a1,12(sp)
    2da0:	00c12423          	sw	a2,8(sp)
    2da4:	00d12223          	sw	a3,4(sp)
    2da8:	00112e23          	sw	ra,28(sp)
    2dac:	00050413          	mv	s0,a0
    2db0:	8d1ff0ef          	jal	2680 <sfud_erase>
    2db4:	00412683          	lw	a3,4(sp)
    2db8:	00812603          	lw	a2,8(sp)
    2dbc:	00c12583          	lw	a1,12(sp)
    2dc0:	00051c63          	bnez	a0,2dd8 <sfud_erase_write+0x44>
    2dc4:	00040513          	mv	a0,s0
    2dc8:	01812403          	lw	s0,24(sp)
    2dcc:	01c12083          	lw	ra,28(sp)
    2dd0:	02010113          	addi	sp,sp,32
    2dd4:	d19ff06f          	j	2aec <sfud_write>
    2dd8:	01c12083          	lw	ra,28(sp)
    2ddc:	01812403          	lw	s0,24(sp)
    2de0:	02010113          	addi	sp,sp,32
    2de4:	00008067          	ret

00002de8 <sfud_write_status>:
    2de8:	fd010113          	addi	sp,sp,-48
    2dec:	02112623          	sw	ra,44(sp)
    2df0:	02812423          	sw	s0,40(sp)
    2df4:	02912223          	sw	s1,36(sp)
    2df8:	03212023          	sw	s2,32(sp)
    2dfc:	01312e23          	sw	s3,28(sp)
    2e00:	02051863          	bnez	a0,2e30 <sfud_write_status+0x48>
    2e04:	0000d7b7          	lui	a5,0xd
    2e08:	00021737          	lui	a4,0x21
    2e0c:	000216b7          	lui	a3,0x21
    2e10:	000215b7          	lui	a1,0x21
    2e14:	fd478793          	addi	a5,a5,-44 # cfd4 <__FUNCTION__.0>
    2e18:	8e470713          	addi	a4,a4,-1820 # 208e4 <log_level_colors+0xfc>
    2e1c:	8ec68693          	addi	a3,a3,-1812 # 208ec <log_level_colors+0x104>
    2e20:	3f600613          	li	a2,1014
    2e24:	90c58593          	addi	a1,a1,-1780 # 2090c <log_level_colors+0x124>
    2e28:	2a8090ef          	jal	c0d0 <log_print>
    2e2c:	0000006f          	j	2e2c <sfud_write_status+0x44>
    2e30:	00050493          	mv	s1,a0
    2e34:	00060993          	mv	s3,a2
    2e38:	08058e63          	beqz	a1,2ed4 <sfud_write_status+0xec>
    2e3c:	05000793          	li	a5,80
    2e40:	00f10623          	sb	a5,12(sp)
    2e44:	02452783          	lw	a5,36(a0)
    2e48:	00000713          	li	a4,0
    2e4c:	00000693          	li	a3,0
    2e50:	00100613          	li	a2,1
    2e54:	00c10593          	addi	a1,sp,12
    2e58:	02050513          	addi	a0,a0,32
    2e5c:	000780e7          	jalr	a5
    2e60:	00050413          	mv	s0,a0
    2e64:	02051a63          	bnez	a0,2e98 <sfud_write_status+0xb0>
    2e68:	00100793          	li	a5,1
    2e6c:	00f10623          	sb	a5,12(sp)
    2e70:	0244a783          	lw	a5,36(s1)
    2e74:	00000713          	li	a4,0
    2e78:	00000693          	li	a3,0
    2e7c:	00200613          	li	a2,2
    2e80:	00c10593          	addi	a1,sp,12
    2e84:	02048513          	addi	a0,s1,32
    2e88:	013106a3          	sb	s3,13(sp)
    2e8c:	000780e7          	jalr	a5
    2e90:	00050413          	mv	s0,a0
    2e94:	02050063          	beqz	a0,2eb4 <sfud_write_status+0xcc>
    2e98:	000216b7          	lui	a3,0x21
    2e9c:	000215b7          	lui	a1,0x21
    2ea0:	a6468693          	addi	a3,a3,-1436 # 20a64 <log_level_colors+0x27c>
    2ea4:	40600613          	li	a2,1030
    2ea8:	90c58593          	addi	a1,a1,-1780 # 2090c <log_level_colors+0x124>
    2eac:	00100513          	li	a0,1
    2eb0:	220090ef          	jal	c0d0 <log_print>
    2eb4:	02c12083          	lw	ra,44(sp)
    2eb8:	00040513          	mv	a0,s0
    2ebc:	02812403          	lw	s0,40(sp)
    2ec0:	02412483          	lw	s1,36(sp)
    2ec4:	02012903          	lw	s2,32(sp)
    2ec8:	01c12983          	lw	s3,28(sp)
    2ecc:	03010113          	addi	sp,sp,48
    2ed0:	00008067          	ret
    2ed4:	00100593          	li	a1,1
    2ed8:	d60ff0ef          	jal	2438 <set_write_enabled>
    2edc:	f85ff06f          	j	2e60 <sfud_write_status+0x78>

00002ee0 <sfud_device_init>:
    2ee0:	fd010113          	addi	sp,sp,-48
    2ee4:	02112623          	sw	ra,44(sp)
    2ee8:	02812423          	sw	s0,40(sp)
    2eec:	02912223          	sw	s1,36(sp)
    2ef0:	03212023          	sw	s2,32(sp)
    2ef4:	01312e23          	sw	s3,28(sp)
    2ef8:	01412c23          	sw	s4,24(sp)
    2efc:	02051863          	bnez	a0,2f2c <sfud_device_init+0x4c>
    2f00:	0000d7b7          	lui	a5,0xd
    2f04:	00021737          	lui	a4,0x21
    2f08:	000216b7          	lui	a3,0x21
    2f0c:	000215b7          	lui	a1,0x21
    2f10:	fe878793          	addi	a5,a5,-24 # cfe8 <__FUNCTION__.15>
    2f14:	8e470713          	addi	a4,a4,-1820 # 208e4 <log_level_colors+0xfc>
    2f18:	8ec68693          	addi	a3,a3,-1812 # 208ec <log_level_colors+0x104>
    2f1c:	0fb00613          	li	a2,251
    2f20:	90c58593          	addi	a1,a1,-1780 # 2090c <log_level_colors+0x124>
    2f24:	1ac090ef          	jal	c0d0 <log_print>
    2f28:	0000006f          	j	2f28 <sfud_device_init+0x48>
    2f2c:	00050413          	mv	s0,a0
    2f30:	990ff0ef          	jal	20c0 <sfud_spi_port_init>
    2f34:	00050493          	mv	s1,a0
    2f38:	14051263          	bnez	a0,307c <sfud_device_init+0x19c>
    2f3c:	02442783          	lw	a5,36(s0)
    2f40:	02079863          	bnez	a5,2f70 <sfud_device_init+0x90>
    2f44:	0000d7b7          	lui	a5,0xd
    2f48:	00021737          	lui	a4,0x21
    2f4c:	000216b7          	lui	a3,0x21
    2f50:	000215b7          	lui	a1,0x21
    2f54:	fe878793          	addi	a5,a5,-24 # cfe8 <__FUNCTION__.15>
    2f58:	a8c70713          	addi	a4,a4,-1396 # 20a8c <log_level_colors+0x2a4>
    2f5c:	8ec68693          	addi	a3,a3,-1812 # 208ec <log_level_colors+0x104>
    2f60:	10700613          	li	a2,263
    2f64:	90c58593          	addi	a1,a1,-1780 # 2090c <log_level_colors+0x124>
    2f68:	168090ef          	jal	c0d0 <log_print>
    2f6c:	0000006f          	j	2f6c <sfud_device_init+0x8c>
    2f70:	01042703          	lw	a4,16(s0)
    2f74:	00070e63          	beqz	a4,2f90 <sfud_device_init+0xb0>
    2f78:	01445703          	lhu	a4,20(s0)
    2f7c:	00070a63          	beqz	a4,2f90 <sfud_device_init+0xb0>
    2f80:	01842703          	lw	a4,24(s0)
    2f84:	00070663          	beqz	a4,2f90 <sfud_device_init+0xb0>
    2f88:	01c44703          	lbu	a4,28(s0)
    2f8c:	18071c63          	bnez	a4,3124 <sfud_device_init+0x244>
    2f90:	f9f00713          	li	a4,-97
    2f94:	00e10423          	sb	a4,8(sp)
    2f98:	00810593          	addi	a1,sp,8
    2f9c:	00300713          	li	a4,3
    2fa0:	00c10693          	addi	a3,sp,12
    2fa4:	00100613          	li	a2,1
    2fa8:	02040513          	addi	a0,s0,32
    2fac:	000780e7          	jalr	a5
    2fb0:	00050913          	mv	s2,a0
    2fb4:	000215b7          	lui	a1,0x21
    2fb8:	0a051463          	bnez	a0,3060 <sfud_device_init+0x180>
    2fbc:	00c14703          	lbu	a4,12(sp)
    2fc0:	00d14783          	lbu	a5,13(sp)
    2fc4:	00e14803          	lbu	a6,14(sp)
    2fc8:	000216b7          	lui	a3,0x21
    2fcc:	00e40623          	sb	a4,12(s0)
    2fd0:	00f406a3          	sb	a5,13(s0)
    2fd4:	01040723          	sb	a6,14(s0)
    2fd8:	a9c68693          	addi	a3,a3,-1380 # 20a9c <log_level_colors+0x2b4>
    2fdc:	35a00613          	li	a2,858
    2fe0:	90c58593          	addi	a1,a1,-1780 # 2090c <log_level_colors+0x124>
    2fe4:	0ec090ef          	jal	c0d0 <log_print>
    2fe8:	00040513          	mv	a0,s0
    2fec:	528000ef          	jal	3514 <sfud_read_sfdp>
    2ff0:	0c051c63          	bnez	a0,30c8 <sfud_device_init+0x1e8>
    2ff4:	0000d7b7          	lui	a5,0xd
    2ff8:	00c44603          	lbu	a2,12(s0)
    2ffc:	f6078793          	addi	a5,a5,-160 # cf60 <__FUNCTION__.1>
    3000:	09878713          	addi	a4,a5,152
    3004:	01500693          	li	a3,21
    3008:	00474583          	lbu	a1,4(a4)
    300c:	14c59e63          	bne	a1,a2,3168 <sfud_device_init+0x288>
    3010:	00574503          	lbu	a0,5(a4)
    3014:	00d44583          	lbu	a1,13(s0)
    3018:	14b51863          	bne	a0,a1,3168 <sfud_device_init+0x288>
    301c:	00674503          	lbu	a0,6(a4)
    3020:	00e44583          	lbu	a1,14(s0)
    3024:	14b51263          	bne	a0,a1,3168 <sfud_device_init+0x288>
    3028:	01800713          	li	a4,24
    302c:	02e90733          	mul	a4,s2,a4
    3030:	00e78533          	add	a0,a5,a4
    3034:	09852783          	lw	a5,152(a0)
    3038:	00f42423          	sw	a5,8(s0)
    303c:	0a052783          	lw	a5,160(a0)
    3040:	00f42823          	sw	a5,16(s0)
    3044:	0a455783          	lhu	a5,164(a0)
    3048:	00f41a23          	sh	a5,20(s0)
    304c:	0a852783          	lw	a5,168(a0)
    3050:	00f42c23          	sw	a5,24(s0)
    3054:	0ac54783          	lbu	a5,172(a0)
    3058:	00f40e23          	sb	a5,28(s0)
    305c:	0c80006f          	j	3124 <sfud_device_init+0x244>
    3060:	000216b7          	lui	a3,0x21
    3064:	afc68693          	addi	a3,a3,-1284 # 20afc <log_level_colors+0x314>
    3068:	35d00613          	li	a2,861
    306c:	90c58593          	addi	a1,a1,-1780
    3070:	00100513          	li	a0,1
    3074:	05c090ef          	jal	c0d0 <log_print>
    3078:	00090493          	mv	s1,s2
    307c:	00042703          	lw	a4,0(s0)
    3080:	000216b7          	lui	a3,0x21
    3084:	000215b7          	lui	a1,0x21
    3088:	02040a23          	sb	zero,52(s0)
    308c:	c7868693          	addi	a3,a3,-904 # 20c78 <log_level_colors+0x490>
    3090:	06500613          	li	a2,101
    3094:	90c58593          	addi	a1,a1,-1780 # 2090c <log_level_colors+0x124>
    3098:	00100513          	li	a0,1
    309c:	034090ef          	jal	c0d0 <log_print>
    30a0:	00048993          	mv	s3,s1
    30a4:	02c12083          	lw	ra,44(sp)
    30a8:	02812403          	lw	s0,40(sp)
    30ac:	02412483          	lw	s1,36(sp)
    30b0:	02012903          	lw	s2,32(sp)
    30b4:	01812a03          	lw	s4,24(sp)
    30b8:	00098513          	mv	a0,s3
    30bc:	01c12983          	lw	s3,28(sp)
    30c0:	03010113          	addi	sp,sp,48
    30c4:	00008067          	ret
    30c8:	05042783          	lw	a5,80(s0)
    30cc:	00042423          	sw	zero,8(s0)
    30d0:	07440693          	addi	a3,s0,116
    30d4:	00f42823          	sw	a5,16(s0)
    30d8:	04845783          	lhu	a5,72(s0)
    30dc:	fff78793          	addi	a5,a5,-1
    30e0:	0017b793          	seqz	a5,a5
    30e4:	00178793          	addi	a5,a5,1
    30e8:	00f41a23          	sh	a5,20(s0)
    30ec:	05442783          	lw	a5,84(s0)
    30f0:	00f42c23          	sw	a5,24(s0)
    30f4:	05844783          	lbu	a5,88(s0)
    30f8:	00f40e23          	sb	a5,28(s0)
    30fc:	05c40793          	addi	a5,s0,92
    3100:	0007a703          	lw	a4,0(a5)
    3104:	00070c63          	beqz	a4,311c <sfud_device_init+0x23c>
    3108:	01842603          	lw	a2,24(s0)
    310c:	00c77863          	bgeu	a4,a2,311c <sfud_device_init+0x23c>
    3110:	00e42c23          	sw	a4,24(s0)
    3114:	0047c703          	lbu	a4,4(a5)
    3118:	00e40e23          	sb	a4,28(s0)
    311c:	00878793          	addi	a5,a5,8
    3120:	fef690e3          	bne	a3,a5,3100 <sfud_device_init+0x220>
    3124:	01042803          	lw	a6,16(s0)
    3128:	00080e63          	beqz	a6,3144 <sfud_device_init+0x264>
    312c:	01445783          	lhu	a5,20(s0)
    3130:	00078a63          	beqz	a5,3144 <sfud_device_init+0x264>
    3134:	01842783          	lw	a5,24(s0)
    3138:	00078663          	beqz	a5,3144 <sfud_device_init+0x264>
    313c:	01c44783          	lbu	a5,28(s0)
    3140:	02079c63          	bnez	a5,3178 <sfud_device_init+0x298>
    3144:	000216b7          	lui	a3,0x21
    3148:	000215b7          	lui	a1,0x21
    314c:	b2868693          	addi	a3,a3,-1240 # 20b28 <log_level_colors+0x340>
    3150:	14100613          	li	a2,321
    3154:	90c58593          	addi	a1,a1,-1780 # 2090c <log_level_colors+0x124>
    3158:	00100513          	li	a0,1
    315c:	775080ef          	jal	c0d0 <log_print>
    3160:	00100493          	li	s1,1
    3164:	f19ff06f          	j	307c <sfud_device_init+0x19c>
    3168:	00190913          	addi	s2,s2,1
    316c:	01870713          	addi	a4,a4,24
    3170:	e8d91ce3          	bne	s2,a3,3008 <sfud_device_init+0x128>
    3174:	fb1ff06f          	j	3124 <sfud_device_init+0x244>
    3178:	0000d6b7          	lui	a3,0xd
    317c:	00c44603          	lbu	a2,12(s0)
    3180:	f6068693          	addi	a3,a3,-160 # cf60 <__FUNCTION__.1>
    3184:	29068793          	addi	a5,a3,656
    3188:	01000713          	li	a4,16
    318c:	0047c583          	lbu	a1,4(a5)
    3190:	02c59c63          	bne	a1,a2,31c8 <sfud_device_init+0x2e8>
    3194:	00349493          	slli	s1,s1,0x3
    3198:	009686b3          	add	a3,a3,s1
    319c:	2906a703          	lw	a4,656(a3)
    31a0:	02071c63          	bnez	a4,31d8 <sfud_device_init+0x2f8>
    31a4:	000216b7          	lui	a3,0x21
    31a8:	000215b7          	lui	a1,0x21
    31ac:	00080713          	mv	a4,a6
    31b0:	bb868693          	addi	a3,a3,-1096 # 20bb8 <log_level_colors+0x3d0>
    31b4:	15300613          	li	a2,339
    31b8:	90c58593          	addi	a1,a1,-1780 # 2090c <log_level_colors+0x124>
    31bc:	00100513          	li	a0,1
    31c0:	711080ef          	jal	c0d0 <log_print>
    31c4:	0380006f          	j	31fc <sfud_device_init+0x31c>
    31c8:	00148493          	addi	s1,s1,1
    31cc:	00878793          	addi	a5,a5,8
    31d0:	fae49ee3          	bne	s1,a4,318c <sfud_device_init+0x2ac>
    31d4:	fd1ff06f          	j	31a4 <sfud_device_init+0x2c4>
    31d8:	00842783          	lw	a5,8(s0)
    31dc:	000215b7          	lui	a1,0x21
    31e0:	08078863          	beqz	a5,3270 <sfud_device_init+0x390>
    31e4:	000216b7          	lui	a3,0x21
    31e8:	b6068693          	addi	a3,a3,-1184 # 20b60 <log_level_colors+0x378>
    31ec:	14e00613          	li	a2,334
    31f0:	90c58593          	addi	a1,a1,-1780 # 2090c <log_level_colors+0x124>
    31f4:	00100513          	li	a0,1
    31f8:	6d9080ef          	jal	c0d0 <log_print>
    31fc:	06600793          	li	a5,102
    3200:	00f10623          	sb	a5,12(sp)
    3204:	02442783          	lw	a5,36(s0)
    3208:	00000713          	li	a4,0
    320c:	00000693          	li	a3,0
    3210:	00100613          	li	a2,1
    3214:	00c10593          	addi	a1,sp,12
    3218:	02040513          	addi	a0,s0,32
    321c:	000780e7          	jalr	a5
    3220:	00050493          	mv	s1,a0
    3224:	00021937          	lui	s2,0x21
    3228:	06051463          	bnez	a0,3290 <sfud_device_init+0x3b0>
    322c:	00040513          	mv	a0,s0
    3230:	fe5fe0ef          	jal	2214 <wait_busy>
    3234:	f9900793          	li	a5,-103
    3238:	00f106a3          	sb	a5,13(sp)
    323c:	02442783          	lw	a5,36(s0)
    3240:	00000713          	li	a4,0
    3244:	00000693          	li	a3,0
    3248:	00100613          	li	a2,1
    324c:	00d10593          	addi	a1,sp,13
    3250:	02040513          	addi	a0,s0,32
    3254:	000780e7          	jalr	a5
    3258:	00050493          	mv	s1,a0
    325c:	04050863          	beqz	a0,32ac <sfud_device_init+0x3cc>
    3260:	000216b7          	lui	a3,0x21
    3264:	be068693          	addi	a3,a3,-1056 # 20be0 <log_level_colors+0x3f8>
    3268:	34700613          	li	a2,839
    326c:	0300006f          	j	329c <sfud_device_init+0x3bc>
    3270:	000216b7          	lui	a3,0x21
    3274:	00080793          	mv	a5,a6
    3278:	b8c68693          	addi	a3,a3,-1140 # 20b8c <log_level_colors+0x3a4>
    327c:	15100613          	li	a2,337
    3280:	90c58593          	addi	a1,a1,-1780
    3284:	00100513          	li	a0,1
    3288:	649080ef          	jal	c0d0 <log_print>
    328c:	f71ff06f          	j	31fc <sfud_device_init+0x31c>
    3290:	000216b7          	lui	a3,0x21
    3294:	be068693          	addi	a3,a3,-1056 # 20be0 <log_level_colors+0x3f8>
    3298:	33900613          	li	a2,825
    329c:	90c90593          	addi	a1,s2,-1780 # 2090c <log_level_colors+0x124>
    32a0:	00100513          	li	a0,1
    32a4:	62d080ef          	jal	c0d0 <log_print>
    32a8:	dd5ff06f          	j	307c <sfud_device_init+0x19c>
    32ac:	00040513          	mv	a0,s0
    32b0:	f65fe0ef          	jal	2214 <wait_busy>
    32b4:	00050993          	mv	s3,a0
    32b8:	00400493          	li	s1,4
    32bc:	fa0512e3          	bnez	a0,3260 <sfud_device_init+0x380>
    32c0:	000216b7          	lui	a3,0x21
    32c4:	c0468693          	addi	a3,a3,-1020 # 20c04 <log_level_colors+0x41c>
    32c8:	34500613          	li	a2,837
    32cc:	90c90593          	addi	a1,s2,-1780
    32d0:	601080ef          	jal	c0d0 <log_print>
    32d4:	01445783          	lhu	a5,20(s0)
    32d8:	0097f7b3          	and	a5,a5,s1
    32dc:	08079c63          	bnez	a5,3374 <sfud_device_init+0x494>
    32e0:	01042703          	lw	a4,16(s0)
    32e4:	010007b7          	lui	a5,0x1000
    32e8:	0ce7f463          	bgeu	a5,a4,33b0 <sfud_device_init+0x4d0>
    32ec:	00100593          	li	a1,1
    32f0:	00040513          	mv	a0,s0
    32f4:	944ff0ef          	jal	2438 <set_write_enabled>
    32f8:	00050493          	mv	s1,a0
    32fc:	d80510e3          	bnez	a0,307c <sfud_device_init+0x19c>
    3300:	fb700793          	li	a5,-73
    3304:	00f10623          	sb	a5,12(sp)
    3308:	02442783          	lw	a5,36(s0)
    330c:	00000713          	li	a4,0
    3310:	00000693          	li	a3,0
    3314:	00100613          	li	a2,1
    3318:	00c10593          	addi	a1,sp,12
    331c:	02040513          	addi	a0,s0,32
    3320:	000780e7          	jalr	a5 # 1000000 <_etext+0xfddc3c>
    3324:	00050493          	mv	s1,a0
    3328:	00021737          	lui	a4,0x21
    332c:	06051263          	bnez	a0,3390 <sfud_device_init+0x4b0>
    3330:	00100793          	li	a5,1
    3334:	000216b7          	lui	a3,0x21
    3338:	02f40aa3          	sb	a5,53(s0)
    333c:	c2070713          	addi	a4,a4,-992 # 20c20 <log_level_colors+0x438>
    3340:	c2868693          	addi	a3,a3,-984 # 20c28 <log_level_colors+0x440>
    3344:	3aa00613          	li	a2,938
    3348:	90c90593          	addi	a1,s2,-1780
    334c:	585080ef          	jal	c0d0 <log_print>
    3350:	00042703          	lw	a4,0(s0)
    3354:	00100513          	li	a0,1
    3358:	000216b7          	lui	a3,0x21
    335c:	02a40a23          	sb	a0,52(s0)
    3360:	ca468693          	addi	a3,a3,-860 # 20ca4 <log_level_colors+0x4bc>
    3364:	06200613          	li	a2,98
    3368:	90c90593          	addi	a1,s2,-1780
    336c:	565080ef          	jal	c0d0 <log_print>
    3370:	d35ff06f          	j	30a4 <sfud_device_init+0x1c4>
    3374:	00000613          	li	a2,0
    3378:	00100593          	li	a1,1
    337c:	00040513          	mv	a0,s0
    3380:	a69ff0ef          	jal	2de8 <sfud_write_status>
    3384:	00050493          	mv	s1,a0
    3388:	f4050ce3          	beqz	a0,32e0 <sfud_device_init+0x400>
    338c:	cf1ff06f          	j	307c <sfud_device_init+0x19c>
    3390:	000216b7          	lui	a3,0x21
    3394:	c2070713          	addi	a4,a4,-992
    3398:	c4c68693          	addi	a3,a3,-948 # 20c4c <log_level_colors+0x464>
    339c:	3ac00613          	li	a2,940
    33a0:	90c90593          	addi	a1,s2,-1780
    33a4:	00100513          	li	a0,1
    33a8:	529080ef          	jal	c0d0 <log_print>
    33ac:	cd1ff06f          	j	307c <sfud_device_init+0x19c>
    33b0:	02040aa3          	sb	zero,53(s0)
    33b4:	f9dff06f          	j	3350 <sfud_device_init+0x470>

000033b8 <sfud_init>:
    33b8:	ff010113          	addi	sp,sp,-16
    33bc:	00812423          	sw	s0,8(sp)
    33c0:	00021737          	lui	a4,0x21
    33c4:	00021437          	lui	s0,0x21
    33c8:	000216b7          	lui	a3,0x21
    33cc:	90c40593          	addi	a1,s0,-1780 # 2090c <log_level_colors+0x124>
    33d0:	ccc70713          	addi	a4,a4,-820 # 20ccc <log_level_colors+0x4e4>
    33d4:	cd468693          	addi	a3,a3,-812 # 20cd4 <log_level_colors+0x4ec>
    33d8:	07400613          	li	a2,116
    33dc:	00000513          	li	a0,0
    33e0:	00112623          	sw	ra,12(sp)
    33e4:	4ed080ef          	jal	c0d0 <log_print>
    33e8:	000216b7          	lui	a3,0x21
    33ec:	90c40593          	addi	a1,s0,-1780
    33f0:	00000513          	li	a0,0
    33f4:	d1068693          	addi	a3,a3,-752 # 20d10 <log_level_colors+0x528>
    33f8:	07500613          	li	a2,117
    33fc:	4d5080ef          	jal	c0d0 <log_print>
    3400:	30000537          	lui	a0,0x30000
    3404:	00812403          	lw	s0,8(sp)
    3408:	00c12083          	lw	ra,12(sp)
    340c:	00050513          	mv	a0,a0
    3410:	00052223          	sw	zero,4(a0) # 30000004 <flash_table+0x4>
    3414:	01010113          	addi	sp,sp,16
    3418:	ac9ff06f          	j	2ee0 <sfud_device_init>

0000341c <read_sfdp_data>:
    341c:	fe010113          	addi	sp,sp,-32
    3420:	05a00793          	li	a5,90
    3424:	00068713          	mv	a4,a3
    3428:	00f10423          	sb	a5,8(sp)
    342c:	01059693          	slli	a3,a1,0x10
    3430:	0105d793          	srli	a5,a1,0x10
    3434:	00f104a3          	sb	a5,9(sp)
    3438:	0186d793          	srli	a5,a3,0x18
    343c:	00859693          	slli	a3,a1,0x8
    3440:	00d787b3          	add	a5,a5,a3
    3444:	00f11523          	sh	a5,10(sp)
    3448:	fff00793          	li	a5,-1
    344c:	00112e23          	sw	ra,28(sp)
    3450:	00f10623          	sb	a5,12(sp)
    3454:	02051863          	bnez	a0,3484 <read_sfdp_data+0x68>
    3458:	0000d7b7          	lui	a5,0xd
    345c:	00021737          	lui	a4,0x21
    3460:	000216b7          	lui	a3,0x21
    3464:	000215b7          	lui	a1,0x21
    3468:	27078793          	addi	a5,a5,624 # d270 <__FUNCTION__.3>
    346c:	8e470713          	addi	a4,a4,-1820 # 208e4 <log_level_colors+0xfc>
    3470:	8ec68693          	addi	a3,a3,-1812 # 208ec <log_level_colors+0x104>
    3474:	15b00613          	li	a2,347
    3478:	ec458593          	addi	a1,a1,-316 # 20ec4 <log_level_colors+0x6dc>
    347c:	455080ef          	jal	c0d0 <log_print>
    3480:	0000006f          	j	3480 <read_sfdp_data+0x64>
    3484:	010007b7          	lui	a5,0x1000
    3488:	02f5ea63          	bltu	a1,a5,34bc <read_sfdp_data+0xa0>
    348c:	0000d7b7          	lui	a5,0xd
    3490:	00021737          	lui	a4,0x21
    3494:	000216b7          	lui	a3,0x21
    3498:	000215b7          	lui	a1,0x21
    349c:	27078793          	addi	a5,a5,624 # d270 <__FUNCTION__.3>
    34a0:	ee070713          	addi	a4,a4,-288 # 20ee0 <log_level_colors+0x6f8>
    34a4:	8ec68693          	addi	a3,a3,-1812 # 208ec <log_level_colors+0x104>
    34a8:	15c00613          	li	a2,348
    34ac:	ec458593          	addi	a1,a1,-316 # 20ec4 <log_level_colors+0x6dc>
    34b0:	00000513          	li	a0,0
    34b4:	41d080ef          	jal	c0d0 <log_print>
    34b8:	0000006f          	j	34b8 <read_sfdp_data+0x9c>
    34bc:	02452783          	lw	a5,36(a0)
    34c0:	02079a63          	bnez	a5,34f4 <read_sfdp_data+0xd8>
    34c4:	0000d7b7          	lui	a5,0xd
    34c8:	00021737          	lui	a4,0x21
    34cc:	000216b7          	lui	a3,0x21
    34d0:	000215b7          	lui	a1,0x21
    34d4:	27078793          	addi	a5,a5,624 # d270 <__FUNCTION__.3>
    34d8:	a8c70713          	addi	a4,a4,-1396 # 20a8c <log_level_colors+0x2a4>
    34dc:	8ec68693          	addi	a3,a3,-1812 # 208ec <log_level_colors+0x104>
    34e0:	15e00613          	li	a2,350
    34e4:	ec458593          	addi	a1,a1,-316 # 20ec4 <log_level_colors+0x6dc>
    34e8:	00000513          	li	a0,0
    34ec:	3e5080ef          	jal	c0d0 <log_print>
    34f0:	0000006f          	j	34f0 <read_sfdp_data+0xd4>
    34f4:	00060693          	mv	a3,a2
    34f8:	00810593          	addi	a1,sp,8
    34fc:	00500613          	li	a2,5
    3500:	02050513          	addi	a0,a0,32
    3504:	000780e7          	jalr	a5
    3508:	01c12083          	lw	ra,28(sp)
    350c:	02010113          	addi	sp,sp,32
    3510:	00008067          	ret

00003514 <sfud_read_sfdp>:
    3514:	fa010113          	addi	sp,sp,-96
    3518:	04812c23          	sw	s0,88(sp)
    351c:	04112e23          	sw	ra,92(sp)
    3520:	04912a23          	sw	s1,84(sp)
    3524:	05212823          	sw	s2,80(sp)
    3528:	05312623          	sw	s3,76(sp)
    352c:	05412423          	sw	s4,72(sp)
    3530:	05512223          	sw	s5,68(sp)
    3534:	00021437          	lui	s0,0x21
    3538:	02051663          	bnez	a0,3564 <sfud_read_sfdp+0x50>
    353c:	0000d7b7          	lui	a5,0xd
    3540:	00021737          	lui	a4,0x21
    3544:	000216b7          	lui	a3,0x21
    3548:	28078793          	addi	a5,a5,640 # d280 <__FUNCTION__.5>
    354c:	8e470713          	addi	a4,a4,-1820 # 208e4 <log_level_colors+0xfc>
    3550:	8ec68693          	addi	a3,a3,-1812 # 208ec <log_level_colors+0x104>
    3554:	05100613          	li	a2,81
    3558:	ec440593          	addi	a1,s0,-316 # 20ec4 <log_level_colors+0x6dc>
    355c:	375080ef          	jal	c0d0 <log_print>
    3560:	0000006f          	j	3560 <sfud_read_sfdp+0x4c>
    3564:	04050223          	sb	zero,68(a0)
    3568:	00800693          	li	a3,8
    356c:	01c10613          	addi	a2,sp,28
    3570:	00000593          	li	a1,0
    3574:	00050493          	mv	s1,a0
    3578:	00012e23          	sw	zero,28(sp)
    357c:	02012023          	sw	zero,32(sp)
    3580:	e9dff0ef          	jal	341c <read_sfdp_data>
    3584:	02050e63          	beqz	a0,35c0 <sfud_read_sfdp+0xac>
    3588:	000216b7          	lui	a3,0x21
    358c:	ef068693          	addi	a3,a3,-272 # 20ef0 <log_level_colors+0x708>
    3590:	07300613          	li	a2,115
    3594:	ec440593          	addi	a1,s0,-316
    3598:	00100513          	li	a0,1
    359c:	335080ef          	jal	c0d0 <log_print>
    35a0:	0004a703          	lw	a4,0(s1)
    35a4:	000216b7          	lui	a3,0x21
    35a8:	54068693          	addi	a3,a3,1344 # 21540 <log_level_colors+0xd58>
    35ac:	05900613          	li	a2,89
    35b0:	ec440593          	addi	a1,s0,-316
    35b4:	00100513          	li	a0,1
    35b8:	319080ef          	jal	c0d0 <log_print>
    35bc:	19c0006f          	j	3758 <sfud_read_sfdp+0x244>
    35c0:	01c14703          	lbu	a4,28(sp)
    35c4:	05300793          	li	a5,83
    35c8:	02f71463          	bne	a4,a5,35f0 <sfud_read_sfdp+0xdc>
    35cc:	01d14703          	lbu	a4,29(sp)
    35d0:	04600793          	li	a5,70
    35d4:	00f71e63          	bne	a4,a5,35f0 <sfud_read_sfdp+0xdc>
    35d8:	01e14703          	lbu	a4,30(sp)
    35dc:	04400793          	li	a5,68
    35e0:	00f71863          	bne	a4,a5,35f0 <sfud_read_sfdp+0xdc>
    35e4:	01f14703          	lbu	a4,31(sp)
    35e8:	05000793          	li	a5,80
    35ec:	00f70e63          	beq	a4,a5,3608 <sfud_read_sfdp+0xf4>
    35f0:	000216b7          	lui	a3,0x21
    35f4:	f1068693          	addi	a3,a3,-240 # 20f10 <log_level_colors+0x728>
    35f8:	07b00613          	li	a2,123
    35fc:	ec440593          	addi	a1,s0,-316
    3600:	00000513          	li	a0,0
    3604:	f99ff06f          	j	359c <sfud_read_sfdp+0x88>
    3608:	02014783          	lbu	a5,32(sp)
    360c:	02114703          	lbu	a4,33(sp)
    3610:	00100913          	li	s2,1
    3614:	04f48323          	sb	a5,70(s1)
    3618:	04e482a3          	sb	a4,69(s1)
    361c:	02e97063          	bgeu	s2,a4,363c <sfud_read_sfdp+0x128>
    3620:	000216b7          	lui	a3,0x21
    3624:	f5c68693          	addi	a3,a3,-164 # 20f5c <log_level_colors+0x774>
    3628:	08100613          	li	a2,129
    362c:	ec440593          	addi	a1,s0,-316
    3630:	00090513          	mv	a0,s2
    3634:	29d080ef          	jal	c0d0 <log_print>
    3638:	f69ff06f          	j	35a0 <sfud_read_sfdp+0x8c>
    363c:	02214803          	lbu	a6,34(sp)
    3640:	000216b7          	lui	a3,0x21
    3644:	f9468693          	addi	a3,a3,-108 # 20f94 <log_level_colors+0x7ac>
    3648:	08400613          	li	a2,132
    364c:	ec440593          	addi	a1,s0,-316
    3650:	281080ef          	jal	c0d0 <log_print>
    3654:	00800693          	li	a3,8
    3658:	01c10613          	addi	a2,sp,28
    365c:	00068593          	mv	a1,a3
    3660:	00048513          	mv	a0,s1
    3664:	00012e23          	sw	zero,28(sp)
    3668:	02012023          	sw	zero,32(sp)
    366c:	db1ff0ef          	jal	341c <read_sfdp_data>
    3670:	00050e63          	beqz	a0,368c <sfud_read_sfdp+0x178>
    3674:	000216b7          	lui	a3,0x21
    3678:	fd468693          	addi	a3,a3,-44 # 20fd4 <log_level_colors+0x7ec>
    367c:	09c00613          	li	a2,156
    3680:	ec440593          	addi	a1,s0,-316
    3684:	00090513          	mv	a0,s2
    3688:	f15ff06f          	j	359c <sfud_read_sfdp+0x88>
    368c:	01e14703          	lbu	a4,30(sp)
    3690:	01d14783          	lbu	a5,29(sp)
    3694:	00e97a63          	bgeu	s2,a4,36a8 <sfud_read_sfdp+0x194>
    3698:	000216b7          	lui	a3,0x21
    369c:	00c68693          	addi	a3,a3,12 # 2100c <log_level_colors+0x824>
    36a0:	0a600613          	li	a2,166
    36a4:	f89ff06f          	j	362c <sfud_read_sfdp+0x118>
    36a8:	01f14883          	lbu	a7,31(sp)
    36ac:	00800693          	li	a3,8
    36b0:	0316e263          	bltu	a3,a7,36d4 <sfud_read_sfdp+0x1c0>
    36b4:	000216b7          	lui	a3,0x21
    36b8:	00088713          	mv	a4,a7
    36bc:	06068693          	addi	a3,a3,96 # 21060 <log_level_colors+0x878>
    36c0:	0ab00613          	li	a2,171
    36c4:	ec440593          	addi	a1,s0,-316
    36c8:	00100513          	li	a0,1
    36cc:	205080ef          	jal	c0d0 <log_print>
    36d0:	ed1ff06f          	j	35a0 <sfud_read_sfdp+0x8c>
    36d4:	02114903          	lbu	s2,33(sp)
    36d8:	02214683          	lbu	a3,34(sp)
    36dc:	00078813          	mv	a6,a5
    36e0:	00891913          	slli	s2,s2,0x8
    36e4:	01069693          	slli	a3,a3,0x10
    36e8:	00d96933          	or	s2,s2,a3
    36ec:	02014683          	lbu	a3,32(sp)
    36f0:	00070793          	mv	a5,a4
    36f4:	01c14703          	lbu	a4,28(sp)
    36f8:	00d96933          	or	s2,s2,a3
    36fc:	000216b7          	lui	a3,0x21
    3700:	0a868693          	addi	a3,a3,168 # 210a8 <log_level_colors+0x8c0>
    3704:	0ae00613          	li	a2,174
    3708:	ec440593          	addi	a1,s0,-316
    370c:	00000513          	li	a0,0
    3710:	01212023          	sw	s2,0(sp)
    3714:	1bd080ef          	jal	c0d0 <log_print>
    3718:	02400613          	li	a2,36
    371c:	00000593          	li	a1,0
    3720:	01c10513          	addi	a0,sp,28
    3724:	ab1fc0ef          	jal	1d4 <memset>
    3728:	02400693          	li	a3,36
    372c:	01c10613          	addi	a2,sp,28
    3730:	00090593          	mv	a1,s2
    3734:	00048513          	mv	a0,s1
    3738:	ce5ff0ef          	jal	341c <read_sfdp_data>
    373c:	02050263          	beqz	a0,3760 <sfud_read_sfdp+0x24c>
    3740:	000216b7          	lui	a3,0x21
    3744:	13468693          	addi	a3,a3,308 # 21134 <log_level_colors+0x94c>
    3748:	0c800613          	li	a2,200
    374c:	ec440593          	addi	a1,s0,-316
    3750:	00100513          	li	a0,1
    3754:	17d080ef          	jal	c0d0 <log_print>
    3758:	00000513          	li	a0,0
    375c:	22c0006f          	j	3988 <sfud_read_sfdp+0x474>
    3760:	000216b7          	lui	a3,0x21
    3764:	16c68693          	addi	a3,a3,364 # 2116c <log_level_colors+0x984>
    3768:	0cc00613          	li	a2,204
    376c:	ec440593          	addi	a1,s0,-316
    3770:	161080ef          	jal	c0d0 <log_print>
    3774:	000216b7          	lui	a3,0x21
    3778:	19468693          	addi	a3,a3,404 # 21194 <log_level_colors+0x9ac>
    377c:	ec440593          	addi	a1,s0,-316
    3780:	0cd00613          	li	a2,205
    3784:	00000513          	li	a0,0
    3788:	149080ef          	jal	c0d0 <log_print>
    378c:	01c10993          	addi	s3,sp,28
    3790:	000216b7          	lui	a3,0x21
    3794:	00098913          	mv	s2,s3
    3798:	00100a13          	li	s4,1
    379c:	1b068693          	addi	a3,a3,432 # 211b0 <log_level_colors+0x9c8>
    37a0:	ec440593          	addi	a1,s0,-316
    37a4:	00a00a93          	li	s5,10
    37a8:	00094783          	lbu	a5,0(s2)
    37ac:	000a0713          	mv	a4,s4
    37b0:	0cf00613          	li	a2,207
    37b4:	00f12023          	sw	a5,0(sp)
    37b8:	00394783          	lbu	a5,3(s2)
    37bc:	00194883          	lbu	a7,1(s2)
    37c0:	00294803          	lbu	a6,2(s2)
    37c4:	00000513          	li	a0,0
    37c8:	001a0a13          	addi	s4,s4,1
    37cc:	105080ef          	jal	c0d0 <log_print>
    37d0:	000217b7          	lui	a5,0x21
    37d4:	ec478593          	addi	a1,a5,-316 # 20ec4 <log_level_colors+0x6dc>
    37d8:	000217b7          	lui	a5,0x21
    37dc:	00490913          	addi	s2,s2,4
    37e0:	1b078693          	addi	a3,a5,432 # 211b0 <log_level_colors+0x9c8>
    37e4:	fd5a12e3          	bne	s4,s5,37a8 <sfud_read_sfdp+0x294>
    37e8:	01d14703          	lbu	a4,29(sp)
    37ec:	01c14783          	lbu	a5,28(sp)
    37f0:	00100513          	li	a0,1
    37f4:	04e485a3          	sb	a4,75(s1)
    37f8:	0037f793          	andi	a5,a5,3
    37fc:	00a78e63          	beq	a5,a0,3818 <sfud_read_sfdp+0x304>
    3800:	00300713          	li	a4,3
    3804:	1ae78463          	beq	a5,a4,39ac <sfud_read_sfdp+0x498>
    3808:	000216b7          	lui	a3,0x21
    380c:	24c68693          	addi	a3,a3,588 # 2124c <log_level_colors+0xa64>
    3810:	0df00613          	li	a2,223
    3814:	f41ff06f          	j	3754 <sfud_read_sfdp+0x240>
    3818:	000216b7          	lui	a3,0x21
    381c:	04f48523          	sb	a5,74(s1)
    3820:	1d468693          	addi	a3,a3,468 # 211d4 <log_level_colors+0x9ec>
    3824:	0d800613          	li	a2,216
    3828:	00000513          	li	a0,0
    382c:	0a5080ef          	jal	c0d0 <log_print>
    3830:	01c14783          	lbu	a5,28(sp)
    3834:	0047f793          	andi	a5,a5,4
    3838:	18079863          	bnez	a5,39c8 <sfud_read_sfdp+0x4b4>
    383c:	00100793          	li	a5,1
    3840:	000216b7          	lui	a3,0x21
    3844:	04f49423          	sh	a5,72(s1)
    3848:	28468693          	addi	a3,a3,644 # 21284 <log_level_colors+0xa9c>
    384c:	0e700613          	li	a2,231
    3850:	ec440593          	addi	a1,s0,-316
    3854:	00000513          	li	a0,0
    3858:	079080ef          	jal	c0d0 <log_print>
    385c:	01c14783          	lbu	a5,28(sp)
    3860:	0087f793          	andi	a5,a5,8
    3864:	16079e63          	bnez	a5,39e0 <sfud_read_sfdp+0x4cc>
    3868:	00100793          	li	a5,1
    386c:	000216b7          	lui	a3,0x21
    3870:	04f48623          	sb	a5,76(s1)
    3874:	2d068693          	addi	a3,a3,720 # 212d0 <log_level_colors+0xae8>
    3878:	0f600613          	li	a2,246
    387c:	00000513          	li	a0,0
    3880:	ec440593          	addi	a1,s0,-316
    3884:	04d080ef          	jal	c0d0 <log_print>
    3888:	01e14783          	lbu	a5,30(sp)
    388c:	00100513          	li	a0,1
    3890:	4017d793          	srai	a5,a5,0x1
    3894:	0037f793          	andi	a5,a5,3
    3898:	1aa78063          	beq	a5,a0,3a38 <sfud_read_sfdp+0x524>
    389c:	00200713          	li	a4,2
    38a0:	1ae78863          	beq	a5,a4,3a50 <sfud_read_sfdp+0x53c>
    38a4:	1c079263          	bnez	a5,3a68 <sfud_read_sfdp+0x554>
    38a8:	000216b7          	lui	a3,0x21
    38ac:	04a49723          	sh	a0,78(s1)
    38b0:	43468693          	addi	a3,a3,1076 # 21434 <log_level_colors+0xc4c>
    38b4:	11000613          	li	a2,272
    38b8:	00000513          	li	a0,0
    38bc:	ec440593          	addi	a1,s0,-316
    38c0:	011080ef          	jal	c0d0 <log_print>
    38c4:	02314503          	lbu	a0,35(sp)
    38c8:	02012783          	lw	a5,32(sp)
    38cc:	00755513          	srli	a0,a0,0x7
    38d0:	1a051863          	bnez	a0,3a80 <sfud_read_sfdp+0x56c>
    38d4:	0037d793          	srli	a5,a5,0x3
    38d8:	00178713          	addi	a4,a5,1
    38dc:	000216b7          	lui	a3,0x21
    38e0:	4ec68693          	addi	a3,a3,1260 # 214ec <log_level_colors+0xd04>
    38e4:	ec440593          	addi	a1,s0,-316
    38e8:	04e4a823          	sw	a4,80(s1)
    38ec:	13200613          	li	a2,306
    38f0:	00000513          	li	a0,0
    38f4:	7dc080ef          	jal	c0d0 <log_print>
    38f8:	000216b7          	lui	a3,0x21
    38fc:	02410913          	addi	s2,sp,36
    3900:	00000a13          	li	s4,0
    3904:	00100a93          	li	s5,1
    3908:	50468693          	addi	a3,a3,1284 # 21504 <log_level_colors+0xd1c>
    390c:	ec440413          	addi	s0,s0,-316
    3910:	01c9c703          	lbu	a4,28(s3)
    3914:	04070063          	beqz	a4,3954 <sfud_read_sfdp+0x440>
    3918:	01d9c783          	lbu	a5,29(s3)
    391c:	003a1613          	slli	a2,s4,0x3
    3920:	00c48633          	add	a2,s1,a2
    3924:	00ea9733          	sll	a4,s5,a4
    3928:	04e62a23          	sw	a4,84(a2)
    392c:	04f60c23          	sb	a5,88(a2)
    3930:	00a75713          	srli	a4,a4,0xa
    3934:	13800613          	li	a2,312
    3938:	00040593          	mv	a1,s0
    393c:	00000513          	li	a0,0
    3940:	790080ef          	jal	c0d0 <log_print>
    3944:	001a0a13          	addi	s4,s4,1
    3948:	000217b7          	lui	a5,0x21
    394c:	0ffa7a13          	zext.b	s4,s4
    3950:	50478693          	addi	a3,a5,1284 # 21504 <log_level_colors+0xd1c>
    3954:	00298993          	addi	s3,s3,2
    3958:	fb391ce3          	bne	s2,s3,3910 <sfud_read_sfdp+0x3fc>
    395c:	00048793          	mv	a5,s1
    3960:	00000713          	li	a4,0
    3964:	00400513          	li	a0,4
    3968:	0547a683          	lw	a3,84(a5)
    396c:	00170713          	addi	a4,a4,1
    3970:	0ff77713          	zext.b	a4,a4
    3974:	16069c63          	bnez	a3,3aec <sfud_read_sfdp+0x5d8>
    3978:	00878793          	addi	a5,a5,8
    397c:	fea716e3          	bne	a4,a0,3968 <sfud_read_sfdp+0x454>
    3980:	00100513          	li	a0,1
    3984:	04a48223          	sb	a0,68(s1)
    3988:	05c12083          	lw	ra,92(sp)
    398c:	05812403          	lw	s0,88(sp)
    3990:	05412483          	lw	s1,84(sp)
    3994:	05012903          	lw	s2,80(sp)
    3998:	04c12983          	lw	s3,76(sp)
    399c:	04812a03          	lw	s4,72(sp)
    39a0:	04412a83          	lw	s5,68(sp)
    39a4:	06010113          	addi	sp,sp,96
    39a8:	00008067          	ret
    39ac:	000216b7          	lui	a3,0x21
    39b0:	04048523          	sb	zero,74(s1)
    39b4:	21868693          	addi	a3,a3,536 # 21218 <log_level_colors+0xa30>
    39b8:	0dc00613          	li	a2,220
    39bc:	00000513          	li	a0,0
    39c0:	710080ef          	jal	c0d0 <log_print>
    39c4:	e6dff06f          	j	3830 <sfud_read_sfdp+0x31c>
    39c8:	10000793          	li	a5,256
    39cc:	000216b7          	lui	a3,0x21
    39d0:	04f49423          	sh	a5,72(s1)
    39d4:	2a468693          	addi	a3,a3,676 # 212a4 <log_level_colors+0xabc>
    39d8:	0eb00613          	li	a2,235
    39dc:	e75ff06f          	j	3850 <sfud_read_sfdp+0x33c>
    39e0:	000216b7          	lui	a3,0x21
    39e4:	04048623          	sb	zero,76(s1)
    39e8:	30068693          	addi	a3,a3,768 # 21300 <log_level_colors+0xb18>
    39ec:	0fb00613          	li	a2,251
    39f0:	ec440593          	addi	a1,s0,-316
    39f4:	00000513          	li	a0,0
    39f8:	6d8080ef          	jal	c0d0 <log_print>
    39fc:	01c14783          	lbu	a5,28(sp)
    3a00:	0107f793          	andi	a5,a5,16
    3a04:	00079e63          	bnez	a5,3a20 <sfud_read_sfdp+0x50c>
    3a08:	05000793          	li	a5,80
    3a0c:	000216b7          	lui	a3,0x21
    3a10:	04f486a3          	sb	a5,77(s1)
    3a14:	34468693          	addi	a3,a3,836 # 21344 <log_level_colors+0xb5c>
    3a18:	10000613          	li	a2,256
    3a1c:	e61ff06f          	j	387c <sfud_read_sfdp+0x368>
    3a20:	00600793          	li	a5,6
    3a24:	000216b7          	lui	a3,0x21
    3a28:	04f486a3          	sb	a5,77(s1)
    3a2c:	3bc68693          	addi	a3,a3,956 # 213bc <log_level_colors+0xbd4>
    3a30:	10500613          	li	a2,261
    3a34:	e49ff06f          	j	387c <sfud_read_sfdp+0x368>
    3a38:	10100793          	li	a5,257
    3a3c:	000216b7          	lui	a3,0x21
    3a40:	04f49723          	sh	a5,78(s1)
    3a44:	44c68693          	addi	a3,a3,1100 # 2144c <log_level_colors+0xc64>
    3a48:	11500613          	li	a2,277
    3a4c:	e6dff06f          	j	38b8 <sfud_read_sfdp+0x3a4>
    3a50:	10000793          	li	a5,256
    3a54:	000216b7          	lui	a3,0x21
    3a58:	04f49723          	sh	a5,78(s1)
    3a5c:	46868693          	addi	a3,a3,1128 # 21468 <log_level_colors+0xc80>
    3a60:	11a00613          	li	a2,282
    3a64:	e55ff06f          	j	38b8 <sfud_read_sfdp+0x3a4>
    3a68:	000216b7          	lui	a3,0x21
    3a6c:	04049723          	sh	zero,78(s1)
    3a70:	48068693          	addi	a3,a3,1152 # 21480 <log_level_colors+0xc98>
    3a74:	11f00613          	li	a2,287
    3a78:	ec440593          	addi	a1,s0,-316
    3a7c:	cd9ff06f          	j	3754 <sfud_read_sfdp+0x240>
    3a80:	00179793          	slli	a5,a5,0x1
    3a84:	0017d793          	srli	a5,a5,0x1
    3a88:	02300713          	li	a4,35
    3a8c:	00f77c63          	bgeu	a4,a5,3aa4 <sfud_read_sfdp+0x590>
    3a90:	000216b7          	lui	a3,0x21
    3a94:	0404a823          	sw	zero,80(s1)
    3a98:	4a468693          	addi	a3,a3,1188 # 214a4 <log_level_colors+0xcbc>
    3a9c:	12c00613          	li	a2,300
    3aa0:	fd9ff06f          	j	3a78 <sfud_read_sfdp+0x564>
    3aa4:	ffd78793          	addi	a5,a5,-3
    3aa8:	00f51733          	sll	a4,a0,a5
    3aac:	e31ff06f          	j	38dc <sfud_read_sfdp+0x3c8>
    3ab0:	05c6a583          	lw	a1,92(a3)
    3ab4:	02058263          	beqz	a1,3ad8 <sfud_read_sfdp+0x5c4>
    3ab8:	0547a803          	lw	a6,84(a5)
    3abc:	0105fe63          	bgeu	a1,a6,3ad8 <sfud_read_sfdp+0x5c4>
    3ac0:	04b7aa23          	sw	a1,84(a5)
    3ac4:	0606c583          	lbu	a1,96(a3)
    3ac8:	0587c883          	lbu	a7,88(a5)
    3acc:	04b78c23          	sb	a1,88(a5)
    3ad0:	0506ae23          	sw	a6,92(a3)
    3ad4:	07168023          	sb	a7,96(a3)
    3ad8:	00160613          	addi	a2,a2,1
    3adc:	0ff67613          	zext.b	a2,a2
    3ae0:	00868693          	addi	a3,a3,8
    3ae4:	fca616e3          	bne	a2,a0,3ab0 <sfud_read_sfdp+0x59c>
    3ae8:	e91ff06f          	j	3978 <sfud_read_sfdp+0x464>
    3aec:	00078693          	mv	a3,a5
    3af0:	00070613          	mv	a2,a4
    3af4:	ff1ff06f          	j	3ae4 <sfud_read_sfdp+0x5d0>

00003af8 <sfud_sfdp_get_suitable_eraser>:
    3af8:	04454703          	lbu	a4,68(a0)
    3afc:	02071e63          	bnez	a4,3b38 <sfud_sfdp_get_suitable_eraser+0x40>
    3b00:	0000d7b7          	lui	a5,0xd
    3b04:	00021737          	lui	a4,0x21
    3b08:	000216b7          	lui	a3,0x21
    3b0c:	000215b7          	lui	a1,0x21
    3b10:	ff010113          	addi	sp,sp,-16
    3b14:	29078793          	addi	a5,a5,656 # d290 <__FUNCTION__.0>
    3b18:	59c70713          	addi	a4,a4,1436 # 2159c <log_level_colors+0xdb4>
    3b1c:	8ec68693          	addi	a3,a3,-1812 # 208ec <log_level_colors+0x104>
    3b20:	16f00613          	li	a2,367
    3b24:	ec458593          	addi	a1,a1,-316 # 20ec4 <log_level_colors+0x6dc>
    3b28:	00000513          	li	a0,0
    3b2c:	00112623          	sw	ra,12(sp)
    3b30:	5a0080ef          	jal	c0d0 <log_print>
    3b34:	0000006f          	j	3b34 <sfud_sfdp_get_suitable_eraser+0x3c>
    3b38:	05452703          	lw	a4,84(a0)
    3b3c:	00050793          	mv	a5,a0
    3b40:	00000513          	li	a0,0
    3b44:	02e5f733          	remu	a4,a1,a4
    3b48:	02071863          	bnez	a4,3b78 <sfud_sfdp_get_suitable_eraser+0x80>
    3b4c:	06c78793          	addi	a5,a5,108
    3b50:	00300513          	li	a0,3
    3b54:	0007a703          	lw	a4,0(a5)
    3b58:	fff70693          	addi	a3,a4,-1
    3b5c:	00c6f663          	bgeu	a3,a2,3b68 <sfud_sfdp_get_suitable_eraser+0x70>
    3b60:	02e5f733          	remu	a4,a1,a4
    3b64:	00070a63          	beqz	a4,3b78 <sfud_sfdp_get_suitable_eraser+0x80>
    3b68:	00050863          	beqz	a0,3b78 <sfud_sfdp_get_suitable_eraser+0x80>
    3b6c:	ff878793          	addi	a5,a5,-8
    3b70:	fff50513          	addi	a0,a0,-1
    3b74:	fe1ff06f          	j	3b54 <sfud_sfdp_get_suitable_eraser+0x5c>
    3b78:	00008067          	ret

00003b7c <shellExtParseChar>:
    3b7c:	00054783          	lbu	a5,0(a0)
    3b80:	05c00713          	li	a4,92
    3b84:	fd978793          	addi	a5,a5,-39
    3b88:	0017b793          	seqz	a5,a5
    3b8c:	00f507b3          	add	a5,a0,a5
    3b90:	0007c503          	lbu	a0,0(a5)
    3b94:	04e51c63          	bne	a0,a4,3bec <shellExtParseChar+0x70>
    3b98:	0017c503          	lbu	a0,1(a5)
    3b9c:	06e00793          	li	a5,110
    3ba0:	02f50c63          	beq	a0,a5,3bd8 <shellExtParseChar+0x5c>
    3ba4:	00a7ee63          	bltu	a5,a0,3bc0 <shellExtParseChar+0x44>
    3ba8:	03000793          	li	a5,48
    3bac:	02f50a63          	beq	a0,a5,3be0 <shellExtParseChar+0x64>
    3bb0:	06200793          	li	a5,98
    3bb4:	02f51c63          	bne	a0,a5,3bec <shellExtParseChar+0x70>
    3bb8:	00800513          	li	a0,8
    3bbc:	00008067          	ret
    3bc0:	07200793          	li	a5,114
    3bc4:	02f50263          	beq	a0,a5,3be8 <shellExtParseChar+0x6c>
    3bc8:	07400793          	li	a5,116
    3bcc:	02f51063          	bne	a0,a5,3bec <shellExtParseChar+0x70>
    3bd0:	00900513          	li	a0,9
    3bd4:	00008067          	ret
    3bd8:	00a00513          	li	a0,10
    3bdc:	00008067          	ret
    3be0:	00000513          	li	a0,0
    3be4:	00008067          	ret
    3be8:	00d00513          	li	a0,13
    3bec:	00008067          	ret

00003bf0 <shellExtParsePara>:
    3bf0:	fe010113          	addi	sp,sp,-32
    3bf4:	00812c23          	sw	s0,24(sp)
    3bf8:	00912a23          	sw	s1,20(sp)
    3bfc:	01612023          	sw	s6,0(sp)
    3c00:	00112e23          	sw	ra,28(sp)
    3c04:	01212823          	sw	s2,16(sp)
    3c08:	01312623          	sw	s3,12(sp)
    3c0c:	01412423          	sw	s4,8(sp)
    3c10:	01512223          	sw	s5,4(sp)
    3c14:	0005c703          	lbu	a4,0(a1)
    3c18:	00050493          	mv	s1,a0
    3c1c:	00058413          	mv	s0,a1
    3c20:	00068b13          	mv	s6,a3
    3c24:	06060c63          	beqz	a2,3c9c <shellExtParsePara+0xac>
    3c28:	02400793          	li	a5,36
    3c2c:	02f70863          	beq	a4,a5,3c5c <shellExtParsePara+0x6c>
    3c30:	fff00513          	li	a0,-1
    3c34:	01c12083          	lw	ra,28(sp)
    3c38:	01812403          	lw	s0,24(sp)
    3c3c:	01412483          	lw	s1,20(sp)
    3c40:	01012903          	lw	s2,16(sp)
    3c44:	00c12983          	lw	s3,12(sp)
    3c48:	00812a03          	lw	s4,8(sp)
    3c4c:	00412a83          	lw	s5,4(sp)
    3c50:	00012b03          	lw	s6,0(sp)
    3c54:	02010113          	addi	sp,sp,32
    3c58:	00008067          	ret
    3c5c:	0015c783          	lbu	a5,1(a1)
    3c60:	fc0788e3          	beqz	a5,3c30 <shellExtParsePara+0x40>
    3c64:	02400793          	li	a5,36
    3c68:	1cf71863          	bne	a4,a5,3e38 <shellExtParsePara+0x248>
    3c6c:	00144783          	lbu	a5,1(s0)
    3c70:	1c078c63          	beqz	a5,3e48 <shellExtParsePara+0x258>
    3c74:	0584a603          	lw	a2,88(s1)
    3c78:	00140593          	addi	a1,s0,1
    3c7c:	00000693          	li	a3,0
    3c80:	00048513          	mv	a0,s1
    3c84:	275010ef          	jal	56f8 <shellSeekCommand>
    3c88:	00050593          	mv	a1,a0
    3c8c:	fa0502e3          	beqz	a0,3c30 <shellExtParsePara+0x40>
    3c90:	00048513          	mv	a0,s1
    3c94:	371010ef          	jal	5804 <shellGetVarValue>
    3c98:	01c0006f          	j	3cb4 <shellExtParsePara+0xc4>
    3c9c:	02700793          	li	a5,39
    3ca0:	02f71063          	bne	a4,a5,3cc0 <shellExtParsePara+0xd0>
    3ca4:	0015c783          	lbu	a5,1(a1)
    3ca8:	1a078063          	beqz	a5,3e48 <shellExtParsePara+0x258>
    3cac:	00058513          	mv	a0,a1
    3cb0:	ecdff0ef          	jal	3b7c <shellExtParseChar>
    3cb4:	00ab2023          	sw	a0,0(s6)
    3cb8:	00000513          	li	a0,0
    3cbc:	f79ff06f          	j	3c34 <shellExtParsePara+0x44>
    3cc0:	02d00693          	li	a3,45
    3cc4:	fff00593          	li	a1,-1
    3cc8:	00100793          	li	a5,1
    3ccc:	00d70e63          	beq	a4,a3,3ce8 <shellExtParsePara+0xf8>
    3cd0:	fd070693          	addi	a3,a4,-48
    3cd4:	0ff6f693          	zext.b	a3,a3
    3cd8:	00900613          	li	a2,9
    3cdc:	f8d664e3          	bltu	a2,a3,3c64 <shellExtParsePara+0x74>
    3ce0:	00078593          	mv	a1,a5
    3ce4:	00000793          	li	a5,0
    3ce8:	00f407b3          	add	a5,s0,a5
    3cec:	0007c603          	lbu	a2,0(a5)
    3cf0:	03000693          	li	a3,48
    3cf4:	00000713          	li	a4,0
    3cf8:	02d61463          	bne	a2,a3,3d20 <shellExtParsePara+0x130>
    3cfc:	0017c683          	lbu	a3,1(a5)
    3d00:	05800513          	li	a0,88
    3d04:	00300713          	li	a4,3
    3d08:	0df6f693          	andi	a3,a3,223
    3d0c:	00a68a63          	beq	a3,a0,3d20 <shellExtParsePara+0x130>
    3d10:	fbe68693          	addi	a3,a3,-66
    3d14:	0016b693          	seqz	a3,a3
    3d18:	00200713          	li	a4,2
    3d1c:	40d70733          	sub	a4,a4,a3
    3d20:	02e00693          	li	a3,46
    3d24:	00060e63          	beqz	a2,3d40 <shellExtParsePara+0x150>
    3d28:	0017c603          	lbu	a2,1(a5)
    3d2c:	00178793          	addi	a5,a5,1
    3d30:	fed61ae3          	bne	a2,a3,3d24 <shellExtParsePara+0x134>
    3d34:	0017c603          	lbu	a2,1(a5)
    3d38:	fe0608e3          	beqz	a2,3d28 <shellExtParsePara+0x138>
    3d3c:	00400713          	li	a4,4
    3d40:	fff70793          	addi	a5,a4,-1
    3d44:	00200693          	li	a3,2
    3d48:	08f6e263          	bltu	a3,a5,3dcc <shellExtParsePara+0x1dc>
    3d4c:	000226b7          	lui	a3,0x22
    3d50:	3bc68693          	addi	a3,a3,956 # 223bc <CSWTCH.11>
    3d54:	00d786b3          	add	a3,a5,a3
    3d58:	0006c303          	lbu	t1,0(a3)
    3d5c:	000226b7          	lui	a3,0x22
    3d60:	3b868693          	addi	a3,a3,952 # 223b8 <CSWTCH.12>
    3d64:	00d787b3          	add	a5,a5,a3
    3d68:	0007c783          	lbu	a5,0(a5)
    3d6c:	00158693          	addi	a3,a1,1
    3d70:	0016b693          	seqz	a3,a3
    3d74:	00f686b3          	add	a3,a3,a5
    3d78:	00d406b3          	add	a3,s0,a3
    3d7c:	00000813          	li	a6,0
    3d80:	00000513          	li	a0,0
    3d84:	02e00e93          	li	t4,46
    3d88:	00900f13          	li	t5,9
    3d8c:	00a00f93          	li	t6,10
    3d90:	00500e13          	li	t3,5
    3d94:	0006c783          	lbu	a5,0(a3)
    3d98:	04079063          	bnez	a5,3dd8 <shellExtParsePara+0x1e8>
    3d9c:	ffc70713          	addi	a4,a4,-4
    3da0:	08071863          	bnez	a4,3e30 <shellExtParsePara+0x240>
    3da4:	08080663          	beqz	a6,3e30 <shellExtParsePara+0x240>
    3da8:	000216b7          	lui	a3,0x21
    3dac:	000215b7          	lui	a1,0x21
    3db0:	00400513          	li	a0,4
    3db4:	5b468693          	addi	a3,a3,1460 # 215b4 <log_level_colors+0xdcc>
    3db8:	13c00613          	li	a2,316
    3dbc:	5e458593          	addi	a1,a1,1508 # 215e4 <log_level_colors+0xdfc>
    3dc0:	310080ef          	jal	c0d0 <log_print>
    3dc4:	00000513          	li	a0,0
    3dc8:	eedff06f          	j	3cb4 <shellExtParsePara+0xc4>
    3dcc:	00000793          	li	a5,0
    3dd0:	00a00313          	li	t1,10
    3dd4:	f99ff06f          	j	3d6c <shellExtParsePara+0x17c>
    3dd8:	00168693          	addi	a3,a3,1
    3ddc:	05d78663          	beq	a5,t4,3e28 <shellExtParsePara+0x238>
    3de0:	fd078613          	addi	a2,a5,-48
    3de4:	0ff67613          	zext.b	a2,a2
    3de8:	02a30533          	mul	a0,t1,a0
    3dec:	00cf7c63          	bgeu	t5,a2,3e04 <shellExtParsePara+0x214>
    3df0:	f9f78613          	addi	a2,a5,-97
    3df4:	0ff67613          	zext.b	a2,a2
    3df8:	00ce6c63          	bltu	t3,a2,3e10 <shellExtParsePara+0x220>
    3dfc:	fa978793          	addi	a5,a5,-87
    3e00:	0ff7f613          	zext.b	a2,a5
    3e04:	00a60533          	add	a0,a2,a0
    3e08:	03f80833          	mul	a6,a6,t6
    3e0c:	f89ff06f          	j	3d94 <shellExtParsePara+0x1a4>
    3e10:	fbf78893          	addi	a7,a5,-65
    3e14:	0ff8f893          	zext.b	a7,a7
    3e18:	00000613          	li	a2,0
    3e1c:	ff1e64e3          	bltu	t3,a7,3e04 <shellExtParsePara+0x214>
    3e20:	fc978793          	addi	a5,a5,-55
    3e24:	fddff06f          	j	3e00 <shellExtParsePara+0x210>
    3e28:	00100813          	li	a6,1
    3e2c:	f69ff06f          	j	3d94 <shellExtParsePara+0x1a4>
    3e30:	02a58533          	mul	a0,a1,a0
    3e34:	e81ff06f          	j	3cb4 <shellExtParsePara+0xc4>
    3e38:	de070ce3          	beqz	a4,3c30 <shellExtParsePara+0x40>
    3e3c:	fde70713          	addi	a4,a4,-34
    3e40:	00173713          	seqz	a4,a4
    3e44:	00e40433          	add	s0,s0,a4
    3e48:	00040493          	mv	s1,s0
    3e4c:	00000913          	li	s2,0
    3e50:	05c00a13          	li	s4,92
    3e54:	02200a93          	li	s5,34
    3e58:	0280006f          	j	3e80 <shellExtParsePara+0x290>
    3e5c:	03451e63          	bne	a0,s4,3e98 <shellExtParsePara+0x2a8>
    3e60:	00048513          	mv	a0,s1
    3e64:	d19ff0ef          	jal	3b7c <shellExtParseChar>
    3e68:	00148493          	addi	s1,s1,1
    3e6c:	00190913          	addi	s2,s2,1
    3e70:	01091913          	slli	s2,s2,0x10
    3e74:	00a98023          	sb	a0,0(s3)
    3e78:	00148493          	addi	s1,s1,1
    3e7c:	01095913          	srli	s2,s2,0x10
    3e80:	0004c503          	lbu	a0,0(s1)
    3e84:	012409b3          	add	s3,s0,s2
    3e88:	fc051ae3          	bnez	a0,3e5c <shellExtParsePara+0x26c>
    3e8c:	00098023          	sb	zero,0(s3)
    3e90:	00040513          	mv	a0,s0
    3e94:	e21ff06f          	j	3cb4 <shellExtParsePara+0xc4>
    3e98:	fd551ae3          	bne	a0,s5,3e6c <shellExtParsePara+0x27c>
    3e9c:	00000513          	li	a0,0
    3ea0:	fcdff06f          	j	3e6c <shellExtParsePara+0x27c>

00003ea4 <shellExtRun>:
    3ea4:	fb010113          	addi	sp,sp,-80
    3ea8:	05212023          	sw	s2,64(sp)
    3eac:	03312e23          	sw	s3,60(sp)
    3eb0:	03512a23          	sw	s5,52(sp)
    3eb4:	00058993          	mv	s3,a1
    3eb8:	00060913          	mv	s2,a2
    3ebc:	00050a93          	mv	s5,a0
    3ec0:	02000613          	li	a2,32
    3ec4:	00000593          	li	a1,0
    3ec8:	01010513          	addi	a0,sp,16
    3ecc:	04812423          	sw	s0,72(sp)
    3ed0:	04912223          	sw	s1,68(sp)
    3ed4:	03412c23          	sw	s4,56(sp)
    3ed8:	04112623          	sw	ra,76(sp)
    3edc:	00068493          	mv	s1,a3
    3ee0:	af4fc0ef          	jal	1d4 <memset>
    3ee4:	0029d403          	lhu	s0,2(s3)
    3ee8:	fff90a13          	addi	s4,s2,-1
    3eec:	00f47413          	andi	s0,s0,15
    3ef0:	01245463          	bge	s0,s2,3ef8 <shellExtRun+0x54>
    3ef4:	000a0413          	mv	s0,s4
    3ef8:	00448493          	addi	s1,s1,4
    3efc:	01010693          	addi	a3,sp,16
    3f00:	00000913          	li	s2,0
    3f04:	03494463          	blt	s2,s4,3f2c <shellExtRun+0x88>
    3f08:	00700793          	li	a5,7
    3f0c:	1c87ee63          	bltu	a5,s0,40e8 <shellExtRun+0x244>
    3f10:	0000d7b7          	lui	a5,0xd
    3f14:	2b078793          	addi	a5,a5,688 # d2b0 <__FUNCTION__.0+0x20>
    3f18:	00241413          	slli	s0,s0,0x2
    3f1c:	00f40433          	add	s0,s0,a5
    3f20:	00042783          	lw	a5,0(s0)
    3f24:	0089a883          	lw	a7,8(s3)
    3f28:	00078067          	jr	a5
    3f2c:	0004a583          	lw	a1,0(s1)
    3f30:	00000613          	li	a2,0
    3f34:	000a8513          	mv	a0,s5
    3f38:	00d12623          	sw	a3,12(sp)
    3f3c:	cb5ff0ef          	jal	3bf0 <shellExtParsePara>
    3f40:	1a051463          	bnez	a0,40e8 <shellExtRun+0x244>
    3f44:	00c12683          	lw	a3,12(sp)
    3f48:	00448493          	addi	s1,s1,4
    3f4c:	00190913          	addi	s2,s2,1
    3f50:	00468693          	addi	a3,a3,4
    3f54:	fb1ff06f          	j	3f04 <shellExtRun+0x60>
    3f58:	04812403          	lw	s0,72(sp)
    3f5c:	04c12083          	lw	ra,76(sp)
    3f60:	04412483          	lw	s1,68(sp)
    3f64:	04012903          	lw	s2,64(sp)
    3f68:	03c12983          	lw	s3,60(sp)
    3f6c:	03812a03          	lw	s4,56(sp)
    3f70:	03412a83          	lw	s5,52(sp)
    3f74:	05010113          	addi	sp,sp,80
    3f78:	00088067          	jr	a7
    3f7c:	04812403          	lw	s0,72(sp)
    3f80:	01012503          	lw	a0,16(sp)
    3f84:	04c12083          	lw	ra,76(sp)
    3f88:	04412483          	lw	s1,68(sp)
    3f8c:	04012903          	lw	s2,64(sp)
    3f90:	03c12983          	lw	s3,60(sp)
    3f94:	03812a03          	lw	s4,56(sp)
    3f98:	03412a83          	lw	s5,52(sp)
    3f9c:	05010113          	addi	sp,sp,80
    3fa0:	00088067          	jr	a7
    3fa4:	04812403          	lw	s0,72(sp)
    3fa8:	01412583          	lw	a1,20(sp)
    3fac:	01012503          	lw	a0,16(sp)
    3fb0:	04c12083          	lw	ra,76(sp)
    3fb4:	04412483          	lw	s1,68(sp)
    3fb8:	04012903          	lw	s2,64(sp)
    3fbc:	03c12983          	lw	s3,60(sp)
    3fc0:	03812a03          	lw	s4,56(sp)
    3fc4:	03412a83          	lw	s5,52(sp)
    3fc8:	05010113          	addi	sp,sp,80
    3fcc:	00088067          	jr	a7
    3fd0:	04812403          	lw	s0,72(sp)
    3fd4:	01812603          	lw	a2,24(sp)
    3fd8:	01412583          	lw	a1,20(sp)
    3fdc:	01012503          	lw	a0,16(sp)
    3fe0:	04c12083          	lw	ra,76(sp)
    3fe4:	04412483          	lw	s1,68(sp)
    3fe8:	04012903          	lw	s2,64(sp)
    3fec:	03c12983          	lw	s3,60(sp)
    3ff0:	03812a03          	lw	s4,56(sp)
    3ff4:	03412a83          	lw	s5,52(sp)
    3ff8:	05010113          	addi	sp,sp,80
    3ffc:	00088067          	jr	a7
    4000:	04812403          	lw	s0,72(sp)
    4004:	01c12683          	lw	a3,28(sp)
    4008:	01812603          	lw	a2,24(sp)
    400c:	01412583          	lw	a1,20(sp)
    4010:	01012503          	lw	a0,16(sp)
    4014:	04c12083          	lw	ra,76(sp)
    4018:	04412483          	lw	s1,68(sp)
    401c:	04012903          	lw	s2,64(sp)
    4020:	03c12983          	lw	s3,60(sp)
    4024:	03812a03          	lw	s4,56(sp)
    4028:	03412a83          	lw	s5,52(sp)
    402c:	05010113          	addi	sp,sp,80
    4030:	00088067          	jr	a7
    4034:	04812403          	lw	s0,72(sp)
    4038:	02012703          	lw	a4,32(sp)
    403c:	01c12683          	lw	a3,28(sp)
    4040:	01812603          	lw	a2,24(sp)
    4044:	01412583          	lw	a1,20(sp)
    4048:	01012503          	lw	a0,16(sp)
    404c:	04c12083          	lw	ra,76(sp)
    4050:	04412483          	lw	s1,68(sp)
    4054:	04012903          	lw	s2,64(sp)
    4058:	03c12983          	lw	s3,60(sp)
    405c:	03812a03          	lw	s4,56(sp)
    4060:	03412a83          	lw	s5,52(sp)
    4064:	05010113          	addi	sp,sp,80
    4068:	00088067          	jr	a7
    406c:	04812403          	lw	s0,72(sp)
    4070:	02412783          	lw	a5,36(sp)
    4074:	02012703          	lw	a4,32(sp)
    4078:	01c12683          	lw	a3,28(sp)
    407c:	01812603          	lw	a2,24(sp)
    4080:	01412583          	lw	a1,20(sp)
    4084:	01012503          	lw	a0,16(sp)
    4088:	04c12083          	lw	ra,76(sp)
    408c:	04412483          	lw	s1,68(sp)
    4090:	04012903          	lw	s2,64(sp)
    4094:	03c12983          	lw	s3,60(sp)
    4098:	03812a03          	lw	s4,56(sp)
    409c:	03412a83          	lw	s5,52(sp)
    40a0:	05010113          	addi	sp,sp,80
    40a4:	00088067          	jr	a7
    40a8:	04812403          	lw	s0,72(sp)
    40ac:	02812803          	lw	a6,40(sp)
    40b0:	02412783          	lw	a5,36(sp)
    40b4:	02012703          	lw	a4,32(sp)
    40b8:	01c12683          	lw	a3,28(sp)
    40bc:	01812603          	lw	a2,24(sp)
    40c0:	01412583          	lw	a1,20(sp)
    40c4:	01012503          	lw	a0,16(sp)
    40c8:	04c12083          	lw	ra,76(sp)
    40cc:	04412483          	lw	s1,68(sp)
    40d0:	04012903          	lw	s2,64(sp)
    40d4:	03c12983          	lw	s3,60(sp)
    40d8:	03812a03          	lw	s4,56(sp)
    40dc:	03412a83          	lw	s5,52(sp)
    40e0:	05010113          	addi	sp,sp,80
    40e4:	00088067          	jr	a7
    40e8:	04c12083          	lw	ra,76(sp)
    40ec:	04812403          	lw	s0,72(sp)
    40f0:	04412483          	lw	s1,68(sp)
    40f4:	04012903          	lw	s2,64(sp)
    40f8:	03c12983          	lw	s3,60(sp)
    40fc:	03812a03          	lw	s4,56(sp)
    4100:	03412a83          	lw	s5,52(sp)
    4104:	fff00513          	li	a0,-1
    4108:	05010113          	addi	sp,sp,80
    410c:	00008067          	ret

00004110 <exec_func>:
    4110:	fd010113          	addi	sp,sp,-48
    4114:	02112623          	sw	ra,44(sp)
    4118:	02812423          	sw	s0,40(sp)
    411c:	03010413          	addi	s0,sp,48
    4120:	fca42e23          	sw	a0,-36(s0)
    4124:	fcb42c23          	sw	a1,-40(s0)
    4128:	fcc42a23          	sw	a2,-44(s0)
    412c:	0740006f          	j	41a0 <exec_func+0x90>
    4130:	fe042623          	sw	zero,-20(s0)
    4134:	3000f7b7          	lui	a5,0x3000f
    4138:	3687a783          	lw	a5,872(a5) # 3000f368 <fnode>
    413c:	fef42423          	sw	a5,-24(s0)
    4140:	0580006f          	j	4198 <exec_func+0x88>
    4144:	fec42703          	lw	a4,-20(s0)
    4148:	fdc42783          	lw	a5,-36(s0)
    414c:	02f76e63          	bltu	a4,a5,4188 <exec_func+0x78>
    4150:	fec42703          	lw	a4,-20(s0)
    4154:	fdc42783          	lw	a5,-36(s0)
    4158:	00e7f463          	bgeu	a5,a4,4160 <exec_func+0x50>
    415c:	0440006f          	j	41a0 <exec_func+0x90>
    4160:	fe842783          	lw	a5,-24(s0)
    4164:	0007a783          	lw	a5,0(a5)
    4168:	fe842703          	lw	a4,-24(s0)
    416c:	00472703          	lw	a4,4(a4)
    4170:	00070513          	mv	a0,a4
    4174:	000780e7          	jalr	a5
    4178:	fec42783          	lw	a5,-20(s0)
    417c:	00178793          	addi	a5,a5,1
    4180:	fef42623          	sw	a5,-20(s0)
    4184:	0080006f          	j	418c <exec_func+0x7c>
    4188:	00000013          	nop
    418c:	fe842783          	lw	a5,-24(s0)
    4190:	0087a783          	lw	a5,8(a5)
    4194:	fef42423          	sw	a5,-24(s0)
    4198:	fe842783          	lw	a5,-24(s0)
    419c:	fa0794e3          	bnez	a5,4144 <exec_func+0x34>
    41a0:	fd442783          	lw	a5,-44(s0)
    41a4:	fff78713          	addi	a4,a5,-1
    41a8:	fce42a23          	sw	a4,-44(s0)
    41ac:	f80792e3          	bnez	a5,4130 <exec_func+0x20>
    41b0:	00000013          	nop
    41b4:	00000013          	nop
    41b8:	02c12083          	lw	ra,44(sp)
    41bc:	02812403          	lw	s0,40(sp)
    41c0:	03010113          	addi	sp,sp,48
    41c4:	00008067          	ret

000041c8 <set_fnode>:
    41c8:	3000f7b7          	lui	a5,0x3000f
    41cc:	36a7a423          	sw	a0,872(a5) # 3000f368 <fnode>
    41d0:	00008067          	ret

000041d4 <create_shell_env_varible>:
    41d4:	013527b7          	lui	a5,0x1352
    41d8:	3000f737          	lui	a4,0x3000f
    41dc:	6a078793          	addi	a5,a5,1696 # 13526a0 <_etext+0x13302dc>
    41e0:	0000d5b7          	lui	a1,0xd
    41e4:	30000537          	lui	a0,0x30000
    41e8:	ff010113          	addi	sp,sp,-16
    41ec:	2d058593          	addi	a1,a1,720 # d2d0 <__FUNCTION__.0+0x40>
    41f0:	36f72a23          	sw	a5,884(a4) # 3000f374 <envInt>
    41f4:	18450513          	addi	a0,a0,388 # 30000184 <envString>
    41f8:	3000f7b7          	lui	a5,0x3000f
    41fc:	7ea00713          	li	a4,2026
    4200:	00112623          	sw	ra,12(sp)
    4204:	36e79923          	sh	a4,882(a5) # 3000f372 <envShort>
    4208:	8e0fc0ef          	jal	2e8 <strcpy>
    420c:	3000f7b7          	lui	a5,0x3000f
    4210:	05900713          	li	a4,89
    4214:	36e78823          	sb	a4,880(a5) # 3000f370 <envChar>
    4218:	00c12083          	lw	ra,12(sp)
    421c:	000047b7          	lui	a5,0x4
    4220:	3000f737          	lui	a4,0x3000f
    4224:	11078793          	addi	a5,a5,272 # 4110 <exec_func>
    4228:	36f72623          	sw	a5,876(a4) # 3000f36c <envFunc>
    422c:	01010113          	addi	sp,sp,16
    4230:	00008067          	ret

00004234 <shellRead>:
    4234:	fe010113          	addi	sp,sp,-32
    4238:	00912c23          	sw	s1,24(sp)
    423c:	01212a23          	sw	s2,20(sp)
    4240:	00112e23          	sw	ra,28(sp)
    4244:	00050913          	mv	s2,a0
    4248:	00000493          	li	s1,0
    424c:	01049793          	slli	a5,s1,0x10
    4250:	0107d793          	srli	a5,a5,0x10
    4254:	02b7e063          	bltu	a5,a1,4274 <shellRead+0x40>
    4258:	01c12083          	lw	ra,28(sp)
    425c:	01059513          	slli	a0,a1,0x10
    4260:	01812483          	lw	s1,24(sp)
    4264:	01412903          	lw	s2,20(sp)
    4268:	41055513          	srai	a0,a0,0x10
    426c:	02010113          	addi	sp,sp,32
    4270:	00008067          	ret
    4274:	00b12623          	sw	a1,12(sp)
    4278:	db1fc0ef          	jal	1028 <hal_sys_getchar>
    427c:	009907b3          	add	a5,s2,s1
    4280:	00c12583          	lw	a1,12(sp)
    4284:	00a78023          	sb	a0,0(a5)
    4288:	00148493          	addi	s1,s1,1
    428c:	fc1ff06f          	j	424c <shellRead+0x18>

00004290 <shellWrite>:
    4290:	fe010113          	addi	sp,sp,-32
    4294:	00912c23          	sw	s1,24(sp)
    4298:	01212a23          	sw	s2,20(sp)
    429c:	00112e23          	sw	ra,28(sp)
    42a0:	00050913          	mv	s2,a0
    42a4:	00000493          	li	s1,0
    42a8:	02b4c063          	blt	s1,a1,42c8 <shellWrite+0x38>
    42ac:	01c12083          	lw	ra,28(sp)
    42b0:	01059513          	slli	a0,a1,0x10
    42b4:	01812483          	lw	s1,24(sp)
    42b8:	01412903          	lw	s2,20(sp)
    42bc:	41055513          	srai	a0,a0,0x10
    42c0:	02010113          	addi	sp,sp,32
    42c4:	00008067          	ret
    42c8:	009907b3          	add	a5,s2,s1
    42cc:	0007c503          	lbu	a0,0(a5)
    42d0:	00b12623          	sw	a1,12(sp)
    42d4:	00148493          	addi	s1,s1,1
    42d8:	d25fc0ef          	jal	ffc <hal_sys_putchar>
    42dc:	00c12583          	lw	a1,12(sp)
    42e0:	fc9ff06f          	j	42a8 <shellWrite+0x18>

000042e4 <getcwd>:
    42e4:	ee010113          	addi	sp,sp,-288
    42e8:	0000d737          	lui	a4,0xd
    42ec:	0000d637          	lui	a2,0xd
    42f0:	00050693          	mv	a3,a0
    42f4:	11212a23          	sw	s2,276(sp)
    42f8:	2d870713          	addi	a4,a4,728 # d2d8 <__FUNCTION__.0+0x48>
    42fc:	00050913          	mv	s2,a0
    4300:	2dc60613          	addi	a2,a2,732 # d2dc <__FUNCTION__.0+0x4c>
    4304:	10000593          	li	a1,256
    4308:	01010513          	addi	a0,sp,16
    430c:	10112e23          	sw	ra,284(sp)
    4310:	10912c23          	sw	s1,280(sp)
    4314:	c69fc0ef          	jal	f7c <snprintf>
    4318:	0000d4b7          	lui	s1,0xd
    431c:	00090713          	mv	a4,s2
    4320:	2d048493          	addi	s1,s1,720 # d2d0 <__FUNCTION__.0+0x40>
    4324:	0000d937          	lui	s2,0xd
    4328:	01448693          	addi	a3,s1,20
    432c:	03700613          	li	a2,55
    4330:	2f090593          	addi	a1,s2,752 # d2f0 <__FUNCTION__.0+0x60>
    4334:	00100513          	li	a0,1
    4338:	599070ef          	jal	c0d0 <log_print>
    433c:	01010713          	addi	a4,sp,16
    4340:	04848693          	addi	a3,s1,72
    4344:	03800613          	li	a2,56
    4348:	2f090593          	addi	a1,s2,752
    434c:	00100513          	li	a0,1
    4350:	581070ef          	jal	c0d0 <log_print>
    4354:	10000593          	li	a1,256
    4358:	01010513          	addi	a0,sp,16
    435c:	315050ef          	jal	9e70 <f_getcwd>
    4360:	00050713          	mv	a4,a0
    4364:	02050063          	beqz	a0,4384 <getcwd+0xa0>
    4368:	00a12623          	sw	a0,12(sp)
    436c:	05448693          	addi	a3,s1,84
    4370:	03b00613          	li	a2,59
    4374:	2f090593          	addi	a1,s2,752
    4378:	00400513          	li	a0,4
    437c:	555070ef          	jal	c0d0 <log_print>
    4380:	00c12703          	lw	a4,12(sp)
    4384:	11c12083          	lw	ra,284(sp)
    4388:	11812483          	lw	s1,280(sp)
    438c:	11412903          	lw	s2,276(sp)
    4390:	00070513          	mv	a0,a4
    4394:	12010113          	addi	sp,sp,288
    4398:	00008067          	ret

0000439c <chdir>:
    439c:	ee010113          	addi	sp,sp,-288
    43a0:	0000d737          	lui	a4,0xd
    43a4:	0000d637          	lui	a2,0xd
    43a8:	00050693          	mv	a3,a0
    43ac:	10912c23          	sw	s1,280(sp)
    43b0:	11212a23          	sw	s2,276(sp)
    43b4:	2d870713          	addi	a4,a4,728 # d2d8 <__FUNCTION__.0+0x48>
    43b8:	00050913          	mv	s2,a0
    43bc:	2dc60613          	addi	a2,a2,732 # d2dc <__FUNCTION__.0+0x4c>
    43c0:	10000593          	li	a1,256
    43c4:	01010513          	addi	a0,sp,16
    43c8:	0000d4b7          	lui	s1,0xd
    43cc:	10112e23          	sw	ra,284(sp)
    43d0:	2d048493          	addi	s1,s1,720 # d2d0 <__FUNCTION__.0+0x40>
    43d4:	ba9fc0ef          	jal	f7c <snprintf>
    43d8:	00090713          	mv	a4,s2
    43dc:	02048593          	addi	a1,s1,32
    43e0:	01448693          	addi	a3,s1,20
    43e4:	04200613          	li	a2,66
    43e8:	00100513          	li	a0,1
    43ec:	4e5070ef          	jal	c0d0 <log_print>
    43f0:	0000d937          	lui	s2,0xd
    43f4:	01010713          	addi	a4,sp,16
    43f8:	04848693          	addi	a3,s1,72
    43fc:	04300613          	li	a2,67
    4400:	2f090593          	addi	a1,s2,752 # d2f0 <__FUNCTION__.0+0x60>
    4404:	00100513          	li	a0,1
    4408:	4c9070ef          	jal	c0d0 <log_print>
    440c:	01010513          	addi	a0,sp,16
    4410:	1c1050ef          	jal	9dd0 <f_chdir>
    4414:	00050713          	mv	a4,a0
    4418:	02050063          	beqz	a0,4438 <chdir+0x9c>
    441c:	00a12623          	sw	a0,12(sp)
    4420:	2f090593          	addi	a1,s2,752
    4424:	06c48693          	addi	a3,s1,108
    4428:	04600613          	li	a2,70
    442c:	00400513          	li	a0,4
    4430:	4a1070ef          	jal	c0d0 <log_print>
    4434:	00c12703          	lw	a4,12(sp)
    4438:	11c12083          	lw	ra,284(sp)
    443c:	11812483          	lw	s1,280(sp)
    4440:	11412903          	lw	s2,276(sp)
    4444:	00070513          	mv	a0,a4
    4448:	12010113          	addi	sp,sp,288
    444c:	00008067          	ret

00004450 <listdir>:
    4450:	d9010113          	addi	sp,sp,-624
    4454:	26112623          	sw	ra,620(sp)
    4458:	26912423          	sw	s1,616(sp)
    445c:	27212223          	sw	s2,612(sp)
    4460:	27312023          	sw	s3,608(sp)
    4464:	25412e23          	sw	s4,604(sp)
    4468:	14060863          	beqz	a2,45b8 <listdir+0x168>
    446c:	14058663          	beqz	a1,45b8 <listdir+0x168>
    4470:	00060a13          	mv	s4,a2
    4474:	0000d737          	lui	a4,0xd
    4478:	0000d637          	lui	a2,0xd
    447c:	00050493          	mv	s1,a0
    4480:	00050693          	mv	a3,a0
    4484:	00058023          	sb	zero,0(a1)
    4488:	2d870713          	addi	a4,a4,728 # d2d8 <__FUNCTION__.0+0x48>
    448c:	2dc60613          	addi	a2,a2,732 # d2dc <__FUNCTION__.0+0x4c>
    4490:	00058913          	mv	s2,a1
    4494:	03810513          	addi	a0,sp,56
    4498:	10000593          	li	a1,256
    449c:	ae1fc0ef          	jal	f7c <snprintf>
    44a0:	0000d9b7          	lui	s3,0xd
    44a4:	00048713          	mv	a4,s1
    44a8:	2d098993          	addi	s3,s3,720 # d2d0 <__FUNCTION__.0+0x40>
    44ac:	0000d4b7          	lui	s1,0xd
    44b0:	2f048593          	addi	a1,s1,752 # d2f0 <__FUNCTION__.0+0x60>
    44b4:	01498693          	addi	a3,s3,20
    44b8:	05d00613          	li	a2,93
    44bc:	00100513          	li	a0,1
    44c0:	411070ef          	jal	c0d0 <log_print>
    44c4:	2f048593          	addi	a1,s1,752
    44c8:	03810713          	addi	a4,sp,56
    44cc:	04898693          	addi	a3,s3,72
    44d0:	05e00613          	li	a2,94
    44d4:	00100513          	li	a0,1
    44d8:	3f9070ef          	jal	c0d0 <log_print>
    44dc:	03810593          	addi	a1,sp,56
    44e0:	00810513          	addi	a0,sp,8
    44e4:	5e5050ef          	jal	a2c8 <f_opendir>
    44e8:	00050493          	mv	s1,a0
    44ec:	06050863          	beqz	a0,455c <listdir+0x10c>
    44f0:	0000d7b7          	lui	a5,0xd
    44f4:	00050713          	mv	a4,a0
    44f8:	08498693          	addi	a3,s3,132
    44fc:	06200613          	li	a2,98
    4500:	2f078593          	addi	a1,a5,752 # d2f0 <__FUNCTION__.0+0x60>
    4504:	00400513          	li	a0,4
    4508:	3c9070ef          	jal	c0d0 <log_print>
    450c:	00090513          	mv	a0,s2
    4510:	ce1fb0ef          	jal	1f0 <strlen>
    4514:	00050493          	mv	s1,a0
    4518:	26c12083          	lw	ra,620(sp)
    451c:	26412903          	lw	s2,612(sp)
    4520:	26012983          	lw	s3,608(sp)
    4524:	25c12a03          	lw	s4,604(sp)
    4528:	00048513          	mv	a0,s1
    452c:	26812483          	lw	s1,616(sp)
    4530:	27010113          	addi	sp,sp,624
    4534:	00008067          	ret
    4538:	14014783          	lbu	a5,320(sp)
    453c:	0107f793          	andi	a5,a5,16
    4540:	06078063          	beqz	a5,45a0 <listdir+0x150>
    4544:	0000d7b7          	lui	a5,0xd
    4548:	14e10693          	addi	a3,sp,334
    454c:	38478613          	addi	a2,a5,900 # d384 <__FUNCTION__.0+0xf4>
    4550:	a2dfc0ef          	jal	f7c <snprintf>
    4554:	00a05463          	blez	a0,455c <listdir+0x10c>
    4558:	00a484b3          	add	s1,s1,a0
    455c:	13810593          	addi	a1,sp,312
    4560:	00810513          	addi	a0,sp,8
    4564:	649050ef          	jal	a3ac <f_readdir>
    4568:	02051263          	bnez	a0,458c <listdir+0x13c>
    456c:	14e14783          	lbu	a5,334(sp)
    4570:	00078e63          	beqz	a5,458c <listdir+0x13c>
    4574:	05048793          	addi	a5,s1,80
    4578:	00990533          	add	a0,s2,s1
    457c:	409a05b3          	sub	a1,s4,s1
    4580:	fb47ece3          	bltu	a5,s4,4538 <listdir+0xe8>
    4584:	09c98613          	addi	a2,s3,156
    4588:	9f5fc0ef          	jal	f7c <snprintf>
    458c:	00810513          	addi	a0,sp,8
    4590:	01490933          	add	s2,s2,s4
    4594:	5e9050ef          	jal	a37c <f_closedir>
    4598:	fe090fa3          	sb	zero,-1(s2)
    459c:	f7dff06f          	j	4518 <listdir+0xc8>
    45a0:	13812703          	lw	a4,312(sp)
    45a4:	0000d7b7          	lui	a5,0xd
    45a8:	14e10693          	addi	a3,sp,334
    45ac:	39078613          	addi	a2,a5,912 # d390 <__FUNCTION__.0+0x100>
    45b0:	9cdfc0ef          	jal	f7c <snprintf>
    45b4:	fa1ff06f          	j	4554 <listdir+0x104>
    45b8:	00000493          	li	s1,0
    45bc:	f5dff06f          	j	4518 <listdir+0xc8>

000045c0 <createfile>:
    45c0:	0c058e63          	beqz	a1,469c <createfile+0xdc>
    45c4:	0005c783          	lbu	a5,0(a1)
    45c8:	0c078a63          	beqz	a5,469c <createfile+0xdc>
    45cc:	eb010113          	addi	sp,sp,-336
    45d0:	14112623          	sw	ra,332(sp)
    45d4:	14912423          	sw	s1,328(sp)
    45d8:	15212223          	sw	s2,324(sp)
    45dc:	80010113          	addi	sp,sp,-2048
    45e0:	80010113          	addi	sp,sp,-2048
    45e4:	0000d637          	lui	a2,0xd
    45e8:	00058713          	mv	a4,a1
    45ec:	00050693          	mv	a3,a0
    45f0:	00a12623          	sw	a0,12(sp)
    45f4:	2dc60613          	addi	a2,a2,732 # d2dc <__FUNCTION__.0+0x4c>
    45f8:	10000593          	li	a1,256
    45fc:	01810513          	addi	a0,sp,24
    4600:	97dfc0ef          	jal	f7c <snprintf>
    4604:	00c12703          	lw	a4,12(sp)
    4608:	0000d4b7          	lui	s1,0xd
    460c:	2d048493          	addi	s1,s1,720 # d2d0 <__FUNCTION__.0+0x40>
    4610:	0000d937          	lui	s2,0xd
    4614:	01448693          	addi	a3,s1,20
    4618:	09b00613          	li	a2,155
    461c:	2f090593          	addi	a1,s2,752 # d2f0 <__FUNCTION__.0+0x60>
    4620:	00100513          	li	a0,1
    4624:	2ad070ef          	jal	c0d0 <log_print>
    4628:	01810713          	addi	a4,sp,24
    462c:	04848693          	addi	a3,s1,72
    4630:	09c00613          	li	a2,156
    4634:	2f090593          	addi	a1,s2,752
    4638:	00100513          	li	a0,1
    463c:	295070ef          	jal	c0d0 <log_print>
    4640:	00800613          	li	a2,8
    4644:	01810593          	addi	a1,sp,24
    4648:	11810513          	addi	a0,sp,280
    464c:	555040ef          	jal	93a0 <f_open>
    4650:	00050713          	mv	a4,a0
    4654:	02051663          	bnez	a0,4680 <createfile+0xc0>
    4658:	11810513          	addi	a0,sp,280
    465c:	6f4050ef          	jal	9d50 <f_close>
    4660:	000012b7          	lui	t0,0x1
    4664:	00510133          	add	sp,sp,t0
    4668:	14c12083          	lw	ra,332(sp)
    466c:	14812483          	lw	s1,328(sp)
    4670:	14412903          	lw	s2,324(sp)
    4674:	00000513          	li	a0,0
    4678:	15010113          	addi	sp,sp,336
    467c:	00008067          	ret
    4680:	0000d7b7          	lui	a5,0xd
    4684:	0dc48693          	addi	a3,s1,220
    4688:	0a100613          	li	a2,161
    468c:	2f078593          	addi	a1,a5,752 # d2f0 <__FUNCTION__.0+0x60>
    4690:	00400513          	li	a0,4
    4694:	23d070ef          	jal	c0d0 <log_print>
    4698:	fc9ff06f          	j	4660 <createfile+0xa0>
    469c:	00000513          	li	a0,0
    46a0:	00008067          	ret

000046a4 <load_shell>:
    46a4:	81010113          	addi	sp,sp,-2032
    46a8:	7e112623          	sw	ra,2028(sp)
    46ac:	7e812423          	sw	s0,2024(sp)
    46b0:	7e912223          	sw	s1,2020(sp)
    46b4:	f5010113          	addi	sp,sp,-176
    46b8:	02f00793          	li	a5,47
    46bc:	3fc00613          	li	a2,1020
    46c0:	00000593          	li	a1,0
    46c4:	49410513          	addi	a0,sp,1172
    46c8:	48f12823          	sw	a5,1168(sp)
    46cc:	b09fb0ef          	jal	1d4 <memset>
    46d0:	00022537          	lui	a0,0x22
    46d4:	f1050513          	addi	a0,a0,-240 # 21f10 <log_level_colors+0x1728>
    46d8:	8d9fc0ef          	jal	fb0 <printf>
    46dc:	00021537          	lui	a0,0x21
    46e0:	60850513          	addi	a0,a0,1544 # 21608 <log_level_colors+0xe20>
    46e4:	8cdfc0ef          	jal	fb0 <printf>
    46e8:	480070ef          	jal	bb68 <load_filesystem>
    46ec:	00021537          	lui	a0,0x21
    46f0:	62c50513          	addi	a0,a0,1580 # 2162c <log_level_colors+0xe44>
    46f4:	8bdfc0ef          	jal	fb0 <printf>
    46f8:	000047b7          	lui	a5,0x4
    46fc:	39c78793          	addi	a5,a5,924 # 439c <chdir>
    4700:	00f12823          	sw	a5,16(sp)
    4704:	000047b7          	lui	a5,0x4
    4708:	2e478793          	addi	a5,a5,740 # 42e4 <getcwd>
    470c:	00f12623          	sw	a5,12(sp)
    4710:	000047b7          	lui	a5,0x4
    4714:	45078793          	addi	a5,a5,1104 # 4450 <listdir>
    4718:	00f12a23          	sw	a5,20(sp)
    471c:	000047b7          	lui	a5,0x4
    4720:	5c078793          	addi	a5,a5,1472 # 45c0 <createfile>
    4724:	49010593          	addi	a1,sp,1168
    4728:	40000613          	li	a2,1024
    472c:	00c10513          	addi	a0,sp,12
    4730:	00f12c23          	sw	a5,24(sp)
    4734:	1c8000ef          	jal	48fc <shellFsInit>
    4738:	00021537          	lui	a0,0x21
    473c:	65050513          	addi	a0,a0,1616 # 21650 <log_level_colors+0xe68>
    4740:	871fc0ef          	jal	fb0 <printf>
    4744:	000047b7          	lui	a5,0x4
    4748:	23478793          	addi	a5,a5,564 # 4234 <shellRead>
    474c:	08f12423          	sw	a5,136(sp)
    4750:	49010593          	addi	a1,sp,1168
    4754:	02410413          	addi	s0,sp,36
    4758:	000047b7          	lui	a5,0x4
    475c:	29078793          	addi	a5,a5,656 # 4290 <shellWrite>
    4760:	02b12623          	sw	a1,44(sp)
    4764:	40000613          	li	a2,1024
    4768:	09010593          	addi	a1,sp,144
    476c:	00040513          	mv	a0,s0
    4770:	08f12623          	sw	a5,140(sp)
    4774:	484010ef          	jal	5bf8 <shellInit>
    4778:	00c10613          	addi	a2,sp,12
    477c:	00100593          	li	a1,1
    4780:	00040513          	mv	a0,s0
    4784:	1c4020ef          	jal	6948 <shellCompanionAdd>
    4788:	00040513          	mv	a0,s0
    478c:	761010ef          	jal	66ec <shellTask>
    4790:	ff9ff06f          	j	4788 <load_shell+0xe4>

00004794 <shellCD>:
    4794:	ff010113          	addi	sp,sp,-16
    4798:	00912223          	sw	s1,4(sp)
    479c:	01212023          	sw	s2,0(sp)
    47a0:	00112623          	sw	ra,12(sp)
    47a4:	00812423          	sw	s0,8(sp)
    47a8:	00050913          	mv	s2,a0
    47ac:	224000ef          	jal	49d0 <shellGetCurrent>
    47b0:	00100593          	li	a1,1
    47b4:	00050493          	mv	s1,a0
    47b8:	1fc020ef          	jal	69b4 <shellCompanionGet>
    47bc:	06050463          	beqz	a0,4824 <shellCD+0x90>
    47c0:	00452783          	lw	a5,4(a0)
    47c4:	00050413          	mv	s0,a0
    47c8:	00090513          	mv	a0,s2
    47cc:	000780e7          	jalr	a5
    47d0:	02050863          	beqz	a0,4800 <shellCD+0x6c>
    47d4:	000215b7          	lui	a1,0x21
    47d8:	67058593          	addi	a1,a1,1648 # 21670 <log_level_colors+0xe88>
    47dc:	00048513          	mv	a0,s1
    47e0:	220000ef          	jal	4a00 <shellWriteString>
    47e4:	00090593          	mv	a1,s2
    47e8:	00048513          	mv	a0,s1
    47ec:	214000ef          	jal	4a00 <shellWriteString>
    47f0:	000215b7          	lui	a1,0x21
    47f4:	67858593          	addi	a1,a1,1656 # 21678 <log_level_colors+0xe90>
    47f8:	00048513          	mv	a0,s1
    47fc:	204000ef          	jal	4a00 <shellWriteString>
    4800:	00042783          	lw	a5,0(s0)
    4804:	01442583          	lw	a1,20(s0)
    4808:	01042503          	lw	a0,16(s0)
    480c:	00812403          	lw	s0,8(sp)
    4810:	00c12083          	lw	ra,12(sp)
    4814:	00412483          	lw	s1,4(sp)
    4818:	00012903          	lw	s2,0(sp)
    481c:	01010113          	addi	sp,sp,16
    4820:	00078067          	jr	a5
    4824:	00c12083          	lw	ra,12(sp)
    4828:	00812403          	lw	s0,8(sp)
    482c:	00412483          	lw	s1,4(sp)
    4830:	00012903          	lw	s2,0(sp)
    4834:	01010113          	addi	sp,sp,16
    4838:	00008067          	ret

0000483c <shellLS>:
    483c:	fe010113          	addi	sp,sp,-32
    4840:	00812c23          	sw	s0,24(sp)
    4844:	00112e23          	sw	ra,28(sp)
    4848:	80010113          	addi	sp,sp,-2048
    484c:	80010113          	addi	sp,sp,-2048
    4850:	180000ef          	jal	49d0 <shellGetCurrent>
    4854:	00100593          	li	a1,1
    4858:	00050413          	mv	s0,a0
    485c:	158020ef          	jal	69b4 <shellCompanionGet>
    4860:	02050463          	beqz	a0,4888 <shellLS+0x4c>
    4864:	00852783          	lw	a5,8(a0)
    4868:	00842503          	lw	a0,8(s0)
    486c:	01010593          	addi	a1,sp,16
    4870:	00001637          	lui	a2,0x1
    4874:	00b12623          	sw	a1,12(sp)
    4878:	000780e7          	jalr	a5
    487c:	00c12583          	lw	a1,12(sp)
    4880:	00040513          	mv	a0,s0
    4884:	17c000ef          	jal	4a00 <shellWriteString>
    4888:	000012b7          	lui	t0,0x1
    488c:	00510133          	add	sp,sp,t0
    4890:	01c12083          	lw	ra,28(sp)
    4894:	01812403          	lw	s0,24(sp)
    4898:	02010113          	addi	sp,sp,32
    489c:	00008067          	ret

000048a0 <shellTOUCH>:
    48a0:	ff010113          	addi	sp,sp,-16
    48a4:	00812423          	sw	s0,8(sp)
    48a8:	00912223          	sw	s1,4(sp)
    48ac:	00112623          	sw	ra,12(sp)
    48b0:	00050413          	mv	s0,a0
    48b4:	11c000ef          	jal	49d0 <shellGetCurrent>
    48b8:	00100593          	li	a1,1
    48bc:	00050493          	mv	s1,a0
    48c0:	0f4020ef          	jal	69b4 <shellCompanionGet>
    48c4:	02050263          	beqz	a0,48e8 <shellTOUCH+0x48>
    48c8:	00040593          	mv	a1,s0
    48cc:	00812403          	lw	s0,8(sp)
    48d0:	00c52783          	lw	a5,12(a0)
    48d4:	00c12083          	lw	ra,12(sp)
    48d8:	0084a503          	lw	a0,8(s1)
    48dc:	00412483          	lw	s1,4(sp)
    48e0:	01010113          	addi	sp,sp,16
    48e4:	00078067          	jr	a5
    48e8:	00c12083          	lw	ra,12(sp)
    48ec:	00812403          	lw	s0,8(sp)
    48f0:	00412483          	lw	s1,4(sp)
    48f4:	01010113          	addi	sp,sp,16
    48f8:	00008067          	ret

000048fc <shellFsInit>:
    48fc:	00050793          	mv	a5,a0
    4900:	00b7a823          	sw	a1,16(a5)
    4904:	00c7aa23          	sw	a2,20(a5)
    4908:	0007a783          	lw	a5,0(a5)
    490c:	00058513          	mv	a0,a1
    4910:	00060593          	mv	a1,a2
    4914:	00078067          	jr	a5

00004918 <agencyshellRun>:
    4918:	fe010113          	addi	sp,sp,-32
    491c:	00112e23          	sw	ra,28(sp)
    4920:	00a12623          	sw	a0,12(sp)
    4924:	0ac000ef          	jal	49d0 <shellGetCurrent>
    4928:	00c12583          	lw	a1,12(sp)
    492c:	01c12083          	lw	ra,28(sp)
    4930:	02010113          	addi	sp,sp,32
    4934:	6cd0106f          	j	6800 <shellRun>

00004938 <shellStringCopy>:
    4938:	00050693          	mv	a3,a0
    493c:	00000513          	li	a0,0
    4940:	00a587b3          	add	a5,a1,a0
    4944:	0007c703          	lbu	a4,0(a5)
    4948:	00a687b3          	add	a5,a3,a0
    494c:	00071663          	bnez	a4,4958 <shellStringCopy+0x20>
    4950:	00078023          	sb	zero,0(a5)
    4954:	00008067          	ret
    4958:	00e78023          	sb	a4,0(a5)
    495c:	00150793          	addi	a5,a0,1
    4960:	01079513          	slli	a0,a5,0x10
    4964:	01055513          	srli	a0,a0,0x10
    4968:	fd9ff06f          	j	4940 <shellStringCopy+0x8>

0000496c <shellWriteByte.isra.0>:
    496c:	fe010113          	addi	sp,sp,-32
    4970:	00b107a3          	sb	a1,15(sp)
    4974:	00050793          	mv	a5,a0
    4978:	00100593          	li	a1,1
    497c:	00f10513          	addi	a0,sp,15
    4980:	00112e23          	sw	ra,28(sp)
    4984:	000780e7          	jalr	a5
    4988:	01c12083          	lw	ra,28(sp)
    498c:	02010113          	addi	sp,sp,32
    4990:	00008067          	ret

00004994 <shellRemove>:
    4994:	30000737          	lui	a4,0x30000
    4998:	20470713          	addi	a4,a4,516 # 30000204 <shellList>
    499c:	00000793          	li	a5,0
    49a0:	00070693          	mv	a3,a4
    49a4:	00500613          	li	a2,5
    49a8:	00072583          	lw	a1,0(a4)
    49ac:	00a59a63          	bne	a1,a0,49c0 <shellRemove+0x2c>
    49b0:	00279793          	slli	a5,a5,0x2
    49b4:	00f686b3          	add	a3,a3,a5
    49b8:	0006a023          	sw	zero,0(a3)
    49bc:	00008067          	ret
    49c0:	00178793          	addi	a5,a5,1
    49c4:	00470713          	addi	a4,a4,4
    49c8:	fec790e3          	bne	a5,a2,49a8 <shellRemove+0x14>
    49cc:	00008067          	ret

000049d0 <shellGetCurrent>:
    49d0:	300007b7          	lui	a5,0x30000
    49d4:	20478793          	addi	a5,a5,516 # 30000204 <shellList>
    49d8:	01478693          	addi	a3,a5,20
    49dc:	0007a503          	lw	a0,0(a5)
    49e0:	00050863          	beqz	a0,49f0 <shellGetCurrent+0x20>
    49e4:	06054703          	lbu	a4,96(a0)
    49e8:	00277713          	andi	a4,a4,2
    49ec:	00071863          	bnez	a4,49fc <shellGetCurrent+0x2c>
    49f0:	00478793          	addi	a5,a5,4
    49f4:	fed794e3          	bne	a5,a3,49dc <shellGetCurrent+0xc>
    49f8:	00000513          	li	a0,0
    49fc:	00008067          	ret

00004a00 <shellWriteString>:
    4a00:	06852703          	lw	a4,104(a0)
    4a04:	04070463          	beqz	a4,4a4c <shellWriteString+0x4c>
    4a08:	ff010113          	addi	sp,sp,-16
    4a0c:	00112623          	sw	ra,12(sp)
    4a10:	00000793          	li	a5,0
    4a14:	00078693          	mv	a3,a5
    4a18:	00178793          	addi	a5,a5,1
    4a1c:	00f58633          	add	a2,a1,a5
    4a20:	fff64603          	lbu	a2,-1(a2) # fff <hal_sys_putchar+0x3>
    4a24:	fe0618e3          	bnez	a2,4a14 <shellWriteString+0x14>
    4a28:	00058513          	mv	a0,a1
    4a2c:	01069593          	slli	a1,a3,0x10
    4a30:	0105d593          	srli	a1,a1,0x10
    4a34:	000700e7          	jalr	a4
    4a38:	00c12083          	lw	ra,12(sp)
    4a3c:	01051513          	slli	a0,a0,0x10
    4a40:	01055513          	srli	a0,a0,0x10
    4a44:	01010113          	addi	sp,sp,16
    4a48:	00008067          	ret
    4a4c:	00000513          	li	a0,0
    4a50:	00008067          	ret

00004a54 <shellWritePrompt.constprop.0>:
    4a54:	06054783          	lbu	a5,96(a0)
    4a58:	0017f793          	andi	a5,a5,1
    4a5c:	06078a63          	beqz	a5,4ad0 <shellWritePrompt.constprop.0+0x7c>
    4a60:	000225b7          	lui	a1,0x22
    4a64:	ff010113          	addi	sp,sp,-16
    4a68:	f1058593          	addi	a1,a1,-240 # 21f10 <log_level_colors+0x1728>
    4a6c:	00112623          	sw	ra,12(sp)
    4a70:	00812423          	sw	s0,8(sp)
    4a74:	00050413          	mv	s0,a0
    4a78:	f89ff0ef          	jal	4a00 <shellWriteString>
    4a7c:	00042783          	lw	a5,0(s0)
    4a80:	00040513          	mv	a0,s0
    4a84:	0047a583          	lw	a1,4(a5)
    4a88:	f79ff0ef          	jal	4a00 <shellWriteString>
    4a8c:	000225b7          	lui	a1,0x22
    4a90:	8b058593          	addi	a1,a1,-1872 # 218b0 <log_level_colors+0x10c8>
    4a94:	00040513          	mv	a0,s0
    4a98:	f69ff0ef          	jal	4a00 <shellWriteString>
    4a9c:	00842583          	lw	a1,8(s0)
    4aa0:	00059663          	bnez	a1,4aac <shellWritePrompt.constprop.0+0x58>
    4aa4:	000225b7          	lui	a1,0x22
    4aa8:	8ac58593          	addi	a1,a1,-1876 # 218ac <log_level_colors+0x10c4>
    4aac:	00040513          	mv	a0,s0
    4ab0:	f51ff0ef          	jal	4a00 <shellWriteString>
    4ab4:	00040513          	mv	a0,s0
    4ab8:	00812403          	lw	s0,8(sp)
    4abc:	000225b7          	lui	a1,0x22
    4ac0:	00c12083          	lw	ra,12(sp)
    4ac4:	8b458593          	addi	a1,a1,-1868 # 218b4 <log_level_colors+0x10cc>
    4ac8:	01010113          	addi	sp,sp,16
    4acc:	f35ff06f          	j	4a00 <shellWriteString>
    4ad0:	000225b7          	lui	a1,0x22
    4ad4:	8b858593          	addi	a1,a1,-1864 # 218b8 <log_level_colors+0x10d0>
    4ad8:	ff5ff06f          	j	4acc <shellWritePrompt.constprop.0+0x78>

00004adc <shellPrint>:
    4adc:	f4010113          	addi	sp,sp,-192
    4ae0:	08112e23          	sw	ra,156(sp)
    4ae4:	08812c23          	sw	s0,152(sp)
    4ae8:	0ac12423          	sw	a2,168(sp)
    4aec:	0ad12623          	sw	a3,172(sp)
    4af0:	0ae12823          	sw	a4,176(sp)
    4af4:	0af12a23          	sw	a5,180(sp)
    4af8:	0b012c23          	sw	a6,184(sp)
    4afc:	0b112e23          	sw	a7,188(sp)
    4b00:	04050063          	beqz	a0,4b40 <shellPrint+0x64>
    4b04:	00058613          	mv	a2,a1
    4b08:	0a810693          	addi	a3,sp,168
    4b0c:	00050413          	mv	s0,a0
    4b10:	08000593          	li	a1,128
    4b14:	01010513          	addi	a0,sp,16
    4b18:	00d12623          	sw	a3,12(sp)
    4b1c:	83cfc0ef          	jal	b58 <vsnprintf>
    4b20:	08000793          	li	a5,128
    4b24:	00a7d463          	bge	a5,a0,4b2c <shellPrint+0x50>
    4b28:	00078513          	mv	a0,a5
    4b2c:	06842783          	lw	a5,104(s0)
    4b30:	01051593          	slli	a1,a0,0x10
    4b34:	0105d593          	srli	a1,a1,0x10
    4b38:	01010513          	addi	a0,sp,16
    4b3c:	000780e7          	jalr	a5
    4b40:	09c12083          	lw	ra,156(sp)
    4b44:	09812403          	lw	s0,152(sp)
    4b48:	0c010113          	addi	sp,sp,192
    4b4c:	00008067          	ret

00004b50 <shellCheckPermission>:
    4b50:	0005c703          	lbu	a4,0(a1)
    4b54:	02070a63          	beqz	a4,4b88 <shellCheckPermission+0x38>
    4b58:	0005a783          	lw	a5,0(a1)
    4b5c:	00800613          	li	a2,8
    4b60:	4087d693          	srai	a3,a5,0x8
    4b64:	00f6f693          	andi	a3,a3,15
    4b68:	02c68063          	beq	a3,a2,4b88 <shellCheckPermission+0x38>
    4b6c:	00052683          	lw	a3,0(a0)
    4b70:	fff00793          	li	a5,-1
    4b74:	02068e63          	beqz	a3,4bb0 <shellCheckPermission+0x60>
    4b78:	0006c783          	lbu	a5,0(a3)
    4b7c:	00f77733          	and	a4,a4,a5
    4b80:	fff00793          	li	a5,-1
    4b84:	02070663          	beqz	a4,4bb0 <shellCheckPermission+0x60>
    4b88:	06054703          	lbu	a4,96(a0)
    4b8c:	00000793          	li	a5,0
    4b90:	00177713          	andi	a4,a4,1
    4b94:	00071e63          	bnez	a4,4bb0 <shellCheckPermission+0x60>
    4b98:	0005a783          	lw	a5,0(a1)
    4b9c:	00c7d793          	srli	a5,a5,0xc
    4ba0:	0017f793          	andi	a5,a5,1
    4ba4:	fff78793          	addi	a5,a5,-1
    4ba8:	01879793          	slli	a5,a5,0x18
    4bac:	4187d793          	srai	a5,a5,0x18
    4bb0:	00078513          	mv	a0,a5
    4bb4:	00008067          	ret

00004bb8 <shellToHex>:
    4bb8:	00058423          	sb	zero,8(a1)
    4bbc:	00800793          	li	a5,8
    4bc0:	00900613          	li	a2,9
    4bc4:	00051c63          	bnez	a0,4bdc <shellToHex+0x24>
    4bc8:	00800513          	li	a0,8
    4bcc:	40f50533          	sub	a0,a0,a5
    4bd0:	01851513          	slli	a0,a0,0x18
    4bd4:	41855513          	srai	a0,a0,0x18
    4bd8:	00008067          	ret
    4bdc:	00f57713          	andi	a4,a0,15
    4be0:	03070693          	addi	a3,a4,48
    4be4:	00e67463          	bgeu	a2,a4,4bec <shellToHex+0x34>
    4be8:	05770693          	addi	a3,a4,87
    4bec:	fff78793          	addi	a5,a5,-1
    4bf0:	0ff7f793          	zext.b	a5,a5
    4bf4:	00f58733          	add	a4,a1,a5
    4bf8:	00d70023          	sb	a3,0(a4)
    4bfc:	00455513          	srli	a0,a0,0x4
    4c00:	fc5ff06f          	j	4bc4 <shellToHex+0xc>

00004c04 <shellGetCommandName>:
    4c04:	300005b7          	lui	a1,0x30000
    4c08:	00000793          	li	a5,0
    4c0c:	21858593          	addi	a1,a1,536 # 30000218 <buffer.0>
    4c10:	03000613          	li	a2,48
    4c14:	00900713          	li	a4,9
    4c18:	00f586b3          	add	a3,a1,a5
    4c1c:	00c68023          	sb	a2,0(a3)
    4c20:	00178793          	addi	a5,a5,1
    4c24:	fee79ae3          	bne	a5,a4,4c18 <shellGetCommandName+0x14>
    4c28:	00052783          	lw	a5,0(a0)
    4c2c:	00100713          	li	a4,1
    4c30:	0087d793          	srli	a5,a5,0x8
    4c34:	00f7f793          	andi	a5,a5,15
    4c38:	00f76663          	bltu	a4,a5,4c44 <shellGetCommandName+0x40>
    4c3c:	00452503          	lw	a0,4(a0)
    4c40:	00008067          	ret
    4c44:	00700713          	li	a4,7
    4c48:	fef77ae3          	bgeu	a4,a5,4c3c <shellGetCommandName+0x38>
    4c4c:	00800713          	li	a4,8
    4c50:	fee786e3          	beq	a5,a4,4c3c <shellGetCommandName+0x38>
    4c54:	00452503          	lw	a0,4(a0)
    4c58:	ff010113          	addi	sp,sp,-16
    4c5c:	00112623          	sw	ra,12(sp)
    4c60:	f59ff0ef          	jal	4bb8 <shellToHex>
    4c64:	00c12083          	lw	ra,12(sp)
    4c68:	300007b7          	lui	a5,0x30000
    4c6c:	21878513          	addi	a0,a5,536 # 30000218 <buffer.0>
    4c70:	01010113          	addi	sp,sp,16
    4c74:	00008067          	ret

00004c78 <shellToDec>:
    4c78:	41f55793          	srai	a5,a0,0x1f
    4c7c:	00a7c733          	xor	a4,a5,a0
    4c80:	40f70733          	sub	a4,a4,a5
    4c84:	000585a3          	sb	zero,11(a1)
    4c88:	00b00793          	li	a5,11
    4c8c:	00a00613          	li	a2,10
    4c90:	02071863          	bnez	a4,4cc0 <shellToDec+0x48>
    4c94:	04055663          	bgez	a0,4ce0 <shellToDec+0x68>
    4c98:	fff78793          	addi	a5,a5,-1
    4c9c:	0ff7f793          	zext.b	a5,a5
    4ca0:	00f585b3          	add	a1,a1,a5
    4ca4:	02d00713          	li	a4,45
    4ca8:	00e58023          	sb	a4,0(a1)
    4cac:	00b00513          	li	a0,11
    4cb0:	40f50533          	sub	a0,a0,a5
    4cb4:	01851513          	slli	a0,a0,0x18
    4cb8:	41855513          	srai	a0,a0,0x18
    4cbc:	00008067          	ret
    4cc0:	02c766b3          	rem	a3,a4,a2
    4cc4:	fff78793          	addi	a5,a5,-1
    4cc8:	0ff7f793          	zext.b	a5,a5
    4ccc:	00f58833          	add	a6,a1,a5
    4cd0:	03068693          	addi	a3,a3,48
    4cd4:	02c74733          	div	a4,a4,a2
    4cd8:	00d80023          	sb	a3,0(a6)
    4cdc:	fb5ff06f          	j	4c90 <shellToDec+0x18>
    4ce0:	fc0516e3          	bnez	a0,4cac <shellToDec+0x34>
    4ce4:	fff78793          	addi	a5,a5,-1
    4ce8:	0ff7f793          	zext.b	a5,a5
    4cec:	00f585b3          	add	a1,a1,a5
    4cf0:	03000713          	li	a4,48
    4cf4:	fb5ff06f          	j	4ca8 <shellToDec+0x30>

00004cf8 <shellWriteReturnValue>:
    4cf8:	fd010113          	addi	sp,sp,-48
    4cfc:	02812423          	sw	s0,40(sp)
    4d00:	01312e23          	sw	s3,28(sp)
    4d04:	00410413          	addi	s0,sp,4
    4d08:	00058993          	mv	s3,a1
    4d0c:	000225b7          	lui	a1,0x22
    4d10:	00c00613          	li	a2,12
    4d14:	03212023          	sw	s2,32(sp)
    4d18:	8e458593          	addi	a1,a1,-1820 # 218e4 <log_level_colors+0x10fc>
    4d1c:	00050913          	mv	s2,a0
    4d20:	00040513          	mv	a0,s0
    4d24:	02112623          	sw	ra,44(sp)
    4d28:	02912223          	sw	s1,36(sp)
    4d2c:	c84fb0ef          	jal	1b0 <memcpy>
    4d30:	000225b7          	lui	a1,0x22
    4d34:	8d058593          	addi	a1,a1,-1840 # 218d0 <log_level_colors+0x10e8>
    4d38:	00090513          	mv	a0,s2
    4d3c:	cc5ff0ef          	jal	4a00 <shellWriteString>
    4d40:	00040593          	mv	a1,s0
    4d44:	00098513          	mv	a0,s3
    4d48:	f31ff0ef          	jal	4c78 <shellToDec>
    4d4c:	00b00493          	li	s1,11
    4d50:	40a485b3          	sub	a1,s1,a0
    4d54:	00b405b3          	add	a1,s0,a1
    4d58:	00090513          	mv	a0,s2
    4d5c:	ca5ff0ef          	jal	4a00 <shellWriteString>
    4d60:	000225b7          	lui	a1,0x22
    4d64:	8dc58593          	addi	a1,a1,-1828 # 218dc <log_level_colors+0x10f4>
    4d68:	00090513          	mv	a0,s2
    4d6c:	c95ff0ef          	jal	4a00 <shellWriteString>
    4d70:	00000793          	li	a5,0
    4d74:	03000693          	li	a3,48
    4d78:	00f40733          	add	a4,s0,a5
    4d7c:	00d70023          	sb	a3,0(a4)
    4d80:	00178793          	addi	a5,a5,1
    4d84:	fe979ae3          	bne	a5,s1,4d78 <shellWriteReturnValue+0x80>
    4d88:	00040593          	mv	a1,s0
    4d8c:	00098513          	mv	a0,s3
    4d90:	e29ff0ef          	jal	4bb8 <shellToHex>
    4d94:	00040593          	mv	a1,s0
    4d98:	00090513          	mv	a0,s2
    4d9c:	c65ff0ef          	jal	4a00 <shellWriteString>
    4da0:	000225b7          	lui	a1,0x22
    4da4:	00090513          	mv	a0,s2
    4da8:	f1058593          	addi	a1,a1,-240 # 21f10 <log_level_colors+0x1728>
    4dac:	c55ff0ef          	jal	4a00 <shellWriteString>
    4db0:	02c12083          	lw	ra,44(sp)
    4db4:	02812403          	lw	s0,40(sp)
    4db8:	02412483          	lw	s1,36(sp)
    4dbc:	02012903          	lw	s2,32(sp)
    4dc0:	01c12983          	lw	s3,28(sp)
    4dc4:	03010113          	addi	sp,sp,48
    4dc8:	00008067          	ret

00004dcc <shellListItem>:
    4dcc:	fe010113          	addi	sp,sp,-32
    4dd0:	00812c23          	sw	s0,24(sp)
    4dd4:	00050413          	mv	s0,a0
    4dd8:	00058513          	mv	a0,a1
    4ddc:	00112e23          	sw	ra,28(sp)
    4de0:	00912a23          	sw	s1,20(sp)
    4de4:	01212823          	sw	s2,16(sp)
    4de8:	01312623          	sw	s3,12(sp)
    4dec:	00058913          	mv	s2,a1
    4df0:	01412423          	sw	s4,8(sp)
    4df4:	e11ff0ef          	jal	4c04 <shellGetCommandName>
    4df8:	00050593          	mv	a1,a0
    4dfc:	00040513          	mv	a0,s0
    4e00:	c01ff0ef          	jal	4a00 <shellWriteString>
    4e04:	01600493          	li	s1,22
    4e08:	40a484b3          	sub	s1,s1,a0
    4e0c:	01049493          	slli	s1,s1,0x10
    4e10:	4104d493          	srai	s1,s1,0x10
    4e14:	00904463          	bgtz	s1,4e1c <shellListItem+0x50>
    4e18:	00400493          	li	s1,4
    4e1c:	06842503          	lw	a0,104(s0)
    4e20:	fff48493          	addi	s1,s1,-1
    4e24:	01049493          	slli	s1,s1,0x10
    4e28:	02000593          	li	a1,32
    4e2c:	4104d493          	srai	s1,s1,0x10
    4e30:	b3dff0ef          	jal	496c <shellWriteByte.isra.0>
    4e34:	fe0494e3          	bnez	s1,4e1c <shellListItem+0x50>
    4e38:	00092783          	lw	a5,0(s2)
    4e3c:	00100713          	li	a4,1
    4e40:	0087d793          	srli	a5,a5,0x8
    4e44:	00f7f793          	andi	a5,a5,15
    4e48:	08f76863          	bltu	a4,a5,4ed8 <shellListItem+0x10c>
    4e4c:	000225b7          	lui	a1,0x22
    4e50:	8f058593          	addi	a1,a1,-1808 # 218f0 <log_level_colors+0x1108>
    4e54:	00040513          	mv	a0,s0
    4e58:	ba9ff0ef          	jal	4a00 <shellWriteString>
    4e5c:	000229b7          	lui	s3,0x22
    4e60:	91898593          	addi	a1,s3,-1768 # 21918 <log_level_colors+0x1130>
    4e64:	00040513          	mv	a0,s0
    4e68:	b99ff0ef          	jal	4a00 <shellWriteString>
    4e6c:	00700493          	li	s1,7
    4e70:	fff00a13          	li	s4,-1
    4e74:	00094583          	lbu	a1,0(s2)
    4e78:	06842503          	lw	a0,104(s0)
    4e7c:	4095d5b3          	sra	a1,a1,s1
    4e80:	0015f593          	andi	a1,a1,1
    4e84:	fff58593          	addi	a1,a1,-1
    4e88:	fb55f593          	andi	a1,a1,-75
    4e8c:	07858593          	addi	a1,a1,120
    4e90:	fff48493          	addi	s1,s1,-1
    4e94:	ad9ff0ef          	jal	496c <shellWriteByte.isra.0>
    4e98:	fd449ee3          	bne	s1,s4,4e74 <shellListItem+0xa8>
    4e9c:	91898593          	addi	a1,s3,-1768
    4ea0:	00040513          	mv	a0,s0
    4ea4:	b5dff0ef          	jal	4a00 <shellWriteString>
    4ea8:	06842703          	lw	a4,104(s0)
    4eac:	0a070663          	beqz	a4,4f58 <shellListItem+0x18c>
    4eb0:	00c92503          	lw	a0,12(s2)
    4eb4:	ffffe6b7          	lui	a3,0xffffe
    4eb8:	00000593          	li	a1,0
    4ebc:	00d00613          	li	a2,13
    4ec0:	bfe68693          	addi	a3,a3,-1026 # ffffdbfe <_stack_point+0xcffddbfe>
    4ec4:	00b507b3          	add	a5,a0,a1
    4ec8:	0007c783          	lbu	a5,0(a5)
    4ecc:	04f67a63          	bgeu	a2,a5,4f20 <shellListItem+0x154>
    4ed0:	00158593          	addi	a1,a1,1
    4ed4:	ff1ff06f          	j	4ec4 <shellListItem+0xf8>
    4ed8:	00700713          	li	a4,7
    4edc:	00f76863          	bltu	a4,a5,4eec <shellListItem+0x120>
    4ee0:	000225b7          	lui	a1,0x22
    4ee4:	8f858593          	addi	a1,a1,-1800 # 218f8 <log_level_colors+0x1110>
    4ee8:	f6dff06f          	j	4e54 <shellListItem+0x88>
    4eec:	00800713          	li	a4,8
    4ef0:	00e79863          	bne	a5,a4,4f00 <shellListItem+0x134>
    4ef4:	000225b7          	lui	a1,0x22
    4ef8:	90058593          	addi	a1,a1,-1792 # 21900 <log_level_colors+0x1118>
    4efc:	f59ff06f          	j	4e54 <shellListItem+0x88>
    4f00:	00900713          	li	a4,9
    4f04:	00e79863          	bne	a5,a4,4f14 <shellListItem+0x148>
    4f08:	000225b7          	lui	a1,0x22
    4f0c:	90858593          	addi	a1,a1,-1784 # 21908 <log_level_colors+0x1120>
    4f10:	f45ff06f          	j	4e54 <shellListItem+0x88>
    4f14:	000225b7          	lui	a1,0x22
    4f18:	91058593          	addi	a1,a1,-1776 # 21910 <log_level_colors+0x1128>
    4f1c:	f39ff06f          	j	4e54 <shellListItem+0x88>
    4f20:	40f6d7b3          	sra	a5,a3,a5
    4f24:	0017f793          	andi	a5,a5,1
    4f28:	fa0794e3          	bnez	a5,4ed0 <shellListItem+0x104>
    4f2c:	01059593          	slli	a1,a1,0x10
    4f30:	0105d593          	srli	a1,a1,0x10
    4f34:	02400793          	li	a5,36
    4f38:	04b7f663          	bgeu	a5,a1,4f84 <shellListItem+0x1b8>
    4f3c:	00078593          	mv	a1,a5
    4f40:	000700e7          	jalr	a4
    4f44:	06842783          	lw	a5,104(s0)
    4f48:	00022537          	lui	a0,0x22
    4f4c:	00300593          	li	a1,3
    4f50:	91c50513          	addi	a0,a0,-1764 # 2191c <log_level_colors+0x1134>
    4f54:	000780e7          	jalr	a5
    4f58:	00040513          	mv	a0,s0
    4f5c:	01812403          	lw	s0,24(sp)
    4f60:	01c12083          	lw	ra,28(sp)
    4f64:	01412483          	lw	s1,20(sp)
    4f68:	01012903          	lw	s2,16(sp)
    4f6c:	00c12983          	lw	s3,12(sp)
    4f70:	00812a03          	lw	s4,8(sp)
    4f74:	000225b7          	lui	a1,0x22
    4f78:	f1058593          	addi	a1,a1,-240 # 21f10 <log_level_colors+0x1728>
    4f7c:	02010113          	addi	sp,sp,32
    4f80:	a81ff06f          	j	4a00 <shellWriteString>
    4f84:	000700e7          	jalr	a4
    4f88:	fd1ff06f          	j	4f58 <shellListItem+0x18c>

00004f8c <shellListCommand>:
    4f8c:	000225b7          	lui	a1,0x22
    4f90:	fd010113          	addi	sp,sp,-48
    4f94:	92058593          	addi	a1,a1,-1760 # 21920 <log_level_colors+0x1138>
    4f98:	02812423          	sw	s0,40(sp)
    4f9c:	02912223          	sw	s1,36(sp)
    4fa0:	03212023          	sw	s2,32(sp)
    4fa4:	01312e23          	sw	s3,28(sp)
    4fa8:	05852903          	lw	s2,88(a0)
    4fac:	02112623          	sw	ra,44(sp)
    4fb0:	00050493          	mv	s1,a0
    4fb4:	00000413          	li	s0,0
    4fb8:	a49ff0ef          	jal	4a00 <shellWriteString>
    4fbc:	00100993          	li	s3,1
    4fc0:	05c4d783          	lhu	a5,92(s1)
    4fc4:	02f44063          	blt	s0,a5,4fe4 <shellListCommand+0x58>
    4fc8:	02c12083          	lw	ra,44(sp)
    4fcc:	02812403          	lw	s0,40(sp)
    4fd0:	02412483          	lw	s1,36(sp)
    4fd4:	02012903          	lw	s2,32(sp)
    4fd8:	01c12983          	lw	s3,28(sp)
    4fdc:	03010113          	addi	sp,sp,48
    4fe0:	00008067          	ret
    4fe4:	00441593          	slli	a1,s0,0x4
    4fe8:	00b905b3          	add	a1,s2,a1
    4fec:	0005a783          	lw	a5,0(a1)
    4ff0:	0087d793          	srli	a5,a5,0x8
    4ff4:	00f7f793          	andi	a5,a5,15
    4ff8:	02f9e063          	bltu	s3,a5,5018 <shellListCommand+0x8c>
    4ffc:	00048513          	mv	a0,s1
    5000:	00b12623          	sw	a1,12(sp)
    5004:	b4dff0ef          	jal	4b50 <shellCheckPermission>
    5008:	00c12583          	lw	a1,12(sp)
    500c:	00051663          	bnez	a0,5018 <shellListCommand+0x8c>
    5010:	00048513          	mv	a0,s1
    5014:	db9ff0ef          	jal	4dcc <shellListItem>
    5018:	00140413          	addi	s0,s0,1
    501c:	01041413          	slli	s0,s0,0x10
    5020:	41045413          	srai	s0,s0,0x10
    5024:	f9dff06f          	j	4fc0 <shellListCommand+0x34>

00005028 <shellListVar>:
    5028:	000225b7          	lui	a1,0x22
    502c:	fd010113          	addi	sp,sp,-48
    5030:	93458593          	addi	a1,a1,-1740 # 21934 <log_level_colors+0x114c>
    5034:	02812423          	sw	s0,40(sp)
    5038:	02912223          	sw	s1,36(sp)
    503c:	03212023          	sw	s2,32(sp)
    5040:	01312e23          	sw	s3,28(sp)
    5044:	05852903          	lw	s2,88(a0)
    5048:	02112623          	sw	ra,44(sp)
    504c:	00050493          	mv	s1,a0
    5050:	00000413          	li	s0,0
    5054:	9adff0ef          	jal	4a00 <shellWriteString>
    5058:	00500993          	li	s3,5
    505c:	05c4d783          	lhu	a5,92(s1)
    5060:	02f44063          	blt	s0,a5,5080 <shellListVar+0x58>
    5064:	02c12083          	lw	ra,44(sp)
    5068:	02812403          	lw	s0,40(sp)
    506c:	02412483          	lw	s1,36(sp)
    5070:	02012903          	lw	s2,32(sp)
    5074:	01c12983          	lw	s3,28(sp)
    5078:	03010113          	addi	sp,sp,48
    507c:	00008067          	ret
    5080:	00441593          	slli	a1,s0,0x4
    5084:	00b905b3          	add	a1,s2,a1
    5088:	0005a783          	lw	a5,0(a1)
    508c:	0087d793          	srli	a5,a5,0x8
    5090:	00e78793          	addi	a5,a5,14
    5094:	00f7f793          	andi	a5,a5,15
    5098:	02f9e063          	bltu	s3,a5,50b8 <shellListVar+0x90>
    509c:	00048513          	mv	a0,s1
    50a0:	00b12623          	sw	a1,12(sp)
    50a4:	aadff0ef          	jal	4b50 <shellCheckPermission>
    50a8:	00c12583          	lw	a1,12(sp)
    50ac:	00051663          	bnez	a0,50b8 <shellListVar+0x90>
    50b0:	00048513          	mv	a0,s1
    50b4:	d19ff0ef          	jal	4dcc <shellListItem>
    50b8:	00140413          	addi	s0,s0,1
    50bc:	01041413          	slli	s0,s0,0x10
    50c0:	41045413          	srai	s0,s0,0x10
    50c4:	f99ff06f          	j	505c <shellListVar+0x34>

000050c8 <shellListUser>:
    50c8:	fd010113          	addi	sp,sp,-48
    50cc:	000225b7          	lui	a1,0x22
    50d0:	03212023          	sw	s2,32(sp)
    50d4:	94458593          	addi	a1,a1,-1724 # 21944 <log_level_colors+0x115c>
    50d8:	00001937          	lui	s2,0x1
    50dc:	02812423          	sw	s0,40(sp)
    50e0:	02912223          	sw	s1,36(sp)
    50e4:	01312e23          	sw	s3,28(sp)
    50e8:	02112623          	sw	ra,44(sp)
    50ec:	05852983          	lw	s3,88(a0)
    50f0:	00050493          	mv	s1,a0
    50f4:	00000413          	li	s0,0
    50f8:	909ff0ef          	jal	4a00 <shellWriteString>
    50fc:	f0090913          	addi	s2,s2,-256 # f00 <vsnprintf+0x3a8>
    5100:	05c4d783          	lhu	a5,92(s1)
    5104:	02f44063          	blt	s0,a5,5124 <shellListUser+0x5c>
    5108:	02c12083          	lw	ra,44(sp)
    510c:	02812403          	lw	s0,40(sp)
    5110:	02412483          	lw	s1,36(sp)
    5114:	02012903          	lw	s2,32(sp)
    5118:	01c12983          	lw	s3,28(sp)
    511c:	03010113          	addi	sp,sp,48
    5120:	00008067          	ret
    5124:	00441593          	slli	a1,s0,0x4
    5128:	00b985b3          	add	a1,s3,a1
    512c:	0005a783          	lw	a5,0(a1)
    5130:	0127f7b3          	and	a5,a5,s2
    5134:	80078793          	addi	a5,a5,-2048
    5138:	02079063          	bnez	a5,5158 <shellListUser+0x90>
    513c:	00048513          	mv	a0,s1
    5140:	00b12623          	sw	a1,12(sp)
    5144:	a0dff0ef          	jal	4b50 <shellCheckPermission>
    5148:	00c12583          	lw	a1,12(sp)
    514c:	00051663          	bnez	a0,5158 <shellListUser+0x90>
    5150:	00048513          	mv	a0,s1
    5154:	c79ff0ef          	jal	4dcc <shellListItem>
    5158:	00140413          	addi	s0,s0,1
    515c:	01041413          	slli	s0,s0,0x10
    5160:	41045413          	srai	s0,s0,0x10
    5164:	f9dff06f          	j	5100 <shellListUser+0x38>

00005168 <shellListKey>:
    5168:	fd010113          	addi	sp,sp,-48
    516c:	000225b7          	lui	a1,0x22
    5170:	03212023          	sw	s2,32(sp)
    5174:	01312e23          	sw	s3,28(sp)
    5178:	95458593          	addi	a1,a1,-1708 # 21954 <log_level_colors+0x116c>
    517c:	00001937          	lui	s2,0x1
    5180:	000019b7          	lui	s3,0x1
    5184:	02812423          	sw	s0,40(sp)
    5188:	02912223          	sw	s1,36(sp)
    518c:	01412c23          	sw	s4,24(sp)
    5190:	02112623          	sw	ra,44(sp)
    5194:	05852a03          	lw	s4,88(a0)
    5198:	00050493          	mv	s1,a0
    519c:	00000413          	li	s0,0
    51a0:	861ff0ef          	jal	4a00 <shellWriteString>
    51a4:	f0090913          	addi	s2,s2,-256 # f00 <vsnprintf+0x3a8>
    51a8:	90098993          	addi	s3,s3,-1792 # 900 <puts_helper+0x40>
    51ac:	05c4d783          	lhu	a5,92(s1)
    51b0:	02f44263          	blt	s0,a5,51d4 <shellListKey+0x6c>
    51b4:	02c12083          	lw	ra,44(sp)
    51b8:	02812403          	lw	s0,40(sp)
    51bc:	02412483          	lw	s1,36(sp)
    51c0:	02012903          	lw	s2,32(sp)
    51c4:	01c12983          	lw	s3,28(sp)
    51c8:	01812a03          	lw	s4,24(sp)
    51cc:	03010113          	addi	sp,sp,48
    51d0:	00008067          	ret
    51d4:	00441593          	slli	a1,s0,0x4
    51d8:	00ba05b3          	add	a1,s4,a1
    51dc:	0005a783          	lw	a5,0(a1)
    51e0:	0127f7b3          	and	a5,a5,s2
    51e4:	03379063          	bne	a5,s3,5204 <shellListKey+0x9c>
    51e8:	00048513          	mv	a0,s1
    51ec:	00b12623          	sw	a1,12(sp)
    51f0:	961ff0ef          	jal	4b50 <shellCheckPermission>
    51f4:	00c12583          	lw	a1,12(sp)
    51f8:	00051663          	bnez	a0,5204 <shellListKey+0x9c>
    51fc:	00048513          	mv	a0,s1
    5200:	bcdff0ef          	jal	4dcc <shellListItem>
    5204:	00140413          	addi	s0,s0,1
    5208:	01041413          	slli	s0,s0,0x10
    520c:	41045413          	srai	s0,s0,0x10
    5210:	f9dff06f          	j	51ac <shellListKey+0x44>

00005214 <shellListAll>:
    5214:	d79ff06f          	j	4f8c <shellListCommand>

00005218 <shellDeleteCommandLine>:
    5218:	ff010113          	addi	sp,sp,-16
    521c:	00812423          	sw	s0,8(sp)
    5220:	00058413          	mv	s0,a1
    5224:	000225b7          	lui	a1,0x22
    5228:	00912223          	sw	s1,4(sp)
    522c:	00112623          	sw	ra,12(sp)
    5230:	00050493          	mv	s1,a0
    5234:	96458593          	addi	a1,a1,-1692 # 21964 <log_level_colors+0x117c>
    5238:	00041c63          	bnez	s0,5250 <shellDeleteCommandLine+0x38>
    523c:	00c12083          	lw	ra,12(sp)
    5240:	00812403          	lw	s0,8(sp)
    5244:	00412483          	lw	s1,4(sp)
    5248:	01010113          	addi	sp,sp,16
    524c:	00008067          	ret
    5250:	00048513          	mv	a0,s1
    5254:	facff0ef          	jal	4a00 <shellWriteString>
    5258:	fff40413          	addi	s0,s0,-1
    525c:	000227b7          	lui	a5,0x22
    5260:	0ff47413          	zext.b	s0,s0
    5264:	96478593          	addi	a1,a5,-1692 # 21964 <log_level_colors+0x117c>
    5268:	fd1ff06f          	j	5238 <shellDeleteCommandLine+0x20>

0000526c <shellClearCommandLine>:
    526c:	ff010113          	addi	sp,sp,-16
    5270:	00e55783          	lhu	a5,14(a0)
    5274:	00812423          	sw	s0,8(sp)
    5278:	00c55403          	lhu	s0,12(a0)
    527c:	00912223          	sw	s1,4(sp)
    5280:	00112623          	sw	ra,12(sp)
    5284:	00050493          	mv	s1,a0
    5288:	40f40433          	sub	s0,s0,a5
    528c:	01041413          	slli	s0,s0,0x10
    5290:	41045413          	srai	s0,s0,0x10
    5294:	02804063          	bgtz	s0,52b4 <shellClearCommandLine+0x48>
    5298:	00812403          	lw	s0,8(sp)
    529c:	00c4c583          	lbu	a1,12(s1)
    52a0:	00c12083          	lw	ra,12(sp)
    52a4:	00048513          	mv	a0,s1
    52a8:	00412483          	lw	s1,4(sp)
    52ac:	01010113          	addi	sp,sp,16
    52b0:	f69ff06f          	j	5218 <shellDeleteCommandLine>
    52b4:	0684a503          	lw	a0,104(s1)
    52b8:	02000593          	li	a1,32
    52bc:	fff40413          	addi	s0,s0,-1
    52c0:	eacff0ef          	jal	496c <shellWriteByte.isra.0>
    52c4:	fc9ff06f          	j	528c <shellClearCommandLine+0x20>

000052c8 <shellInsertByte>:
    52c8:	03455703          	lhu	a4,52(a0)
    52cc:	00c55783          	lhu	a5,12(a0)
    52d0:	ff010113          	addi	sp,sp,-16
    52d4:	00812423          	sw	s0,8(sp)
    52d8:	00112623          	sw	ra,12(sp)
    52dc:	00912223          	sw	s1,4(sp)
    52e0:	01212023          	sw	s2,0(sp)
    52e4:	fff70713          	addi	a4,a4,-1
    52e8:	00050413          	mv	s0,a0
    52ec:	02e7cc63          	blt	a5,a4,5324 <shellInsertByte+0x5c>
    52f0:	000225b7          	lui	a1,0x22
    52f4:	96858593          	addi	a1,a1,-1688 # 21968 <log_level_colors+0x1180>
    52f8:	f08ff0ef          	jal	4a00 <shellWriteString>
    52fc:	00040513          	mv	a0,s0
    5300:	f54ff0ef          	jal	4a54 <shellWritePrompt.constprop.0>
    5304:	01042583          	lw	a1,16(s0)
    5308:	00040513          	mv	a0,s0
    530c:	00812403          	lw	s0,8(sp)
    5310:	00c12083          	lw	ra,12(sp)
    5314:	00412483          	lw	s1,4(sp)
    5318:	00012903          	lw	s2,0(sp)
    531c:	01010113          	addi	sp,sp,16
    5320:	ee0ff06f          	j	4a00 <shellWriteString>
    5324:	00e55703          	lhu	a4,14(a0)
    5328:	06e79063          	bne	a5,a4,5388 <shellInsertByte+0xc0>
    532c:	01052703          	lw	a4,16(a0)
    5330:	00178693          	addi	a3,a5,1
    5334:	00d51623          	sh	a3,12(a0)
    5338:	00f707b3          	add	a5,a4,a5
    533c:	00b78023          	sb	a1,0(a5)
    5340:	00c55703          	lhu	a4,12(a0)
    5344:	01052783          	lw	a5,16(a0)
    5348:	00e787b3          	add	a5,a5,a4
    534c:	00078023          	sb	zero,0(a5)
    5350:	00e55783          	lhu	a5,14(a0)
    5354:	00178793          	addi	a5,a5,1
    5358:	00f51723          	sh	a5,14(a0)
    535c:	06054783          	lbu	a5,96(a0)
    5360:	0017f793          	andi	a5,a5,1
    5364:	00079463          	bnez	a5,536c <shellInsertByte+0xa4>
    5368:	02a00593          	li	a1,42
    536c:	06842503          	lw	a0,104(s0)
    5370:	00812403          	lw	s0,8(sp)
    5374:	00c12083          	lw	ra,12(sp)
    5378:	00412483          	lw	s1,4(sp)
    537c:	00012903          	lw	s2,0(sp)
    5380:	01010113          	addi	sp,sp,16
    5384:	de8ff06f          	j	496c <shellWriteByte.isra.0>
    5388:	08f77063          	bgeu	a4,a5,5408 <shellInsertByte+0x140>
    538c:	40e787b3          	sub	a5,a5,a4
    5390:	01079793          	slli	a5,a5,0x10
    5394:	4107d793          	srai	a5,a5,0x10
    5398:	01079613          	slli	a2,a5,0x10
    539c:	41065613          	srai	a2,a2,0x10
    53a0:	01042703          	lw	a4,16(s0)
    53a4:	00e45683          	lhu	a3,14(s0)
    53a8:	06c04c63          	bgtz	a2,5420 <shellInsertByte+0x158>
    53ac:	00168793          	addi	a5,a3,1
    53b0:	00f41723          	sh	a5,14(s0)
    53b4:	00d70733          	add	a4,a4,a3
    53b8:	00b70023          	sb	a1,0(a4)
    53bc:	00c45783          	lhu	a5,12(s0)
    53c0:	01042703          	lw	a4,16(s0)
    53c4:	00178793          	addi	a5,a5,1
    53c8:	01079793          	slli	a5,a5,0x10
    53cc:	0107d793          	srli	a5,a5,0x10
    53d0:	00f41623          	sh	a5,12(s0)
    53d4:	00f707b3          	add	a5,a4,a5
    53d8:	00078023          	sb	zero,0(a5)
    53dc:	00e45903          	lhu	s2,14(s0)
    53e0:	fff90913          	addi	s2,s2,-1
    53e4:	00c45483          	lhu	s1,12(s0)
    53e8:	01091913          	slli	s2,s2,0x10
    53ec:	41095913          	srai	s2,s2,0x10
    53f0:	04994463          	blt	s2,s1,5438 <shellInsertByte+0x170>
    53f4:	00e45783          	lhu	a5,14(s0)
    53f8:	40f484b3          	sub	s1,s1,a5
    53fc:	01049493          	slli	s1,s1,0x10
    5400:	4104d493          	srai	s1,s1,0x10
    5404:	06904063          	bgtz	s1,5464 <shellInsertByte+0x19c>
    5408:	00c12083          	lw	ra,12(sp)
    540c:	00812403          	lw	s0,8(sp)
    5410:	00412483          	lw	s1,4(sp)
    5414:	00012903          	lw	s2,0(sp)
    5418:	01010113          	addi	sp,sp,16
    541c:	00008067          	ret
    5420:	00f686b3          	add	a3,a3,a5
    5424:	00d70733          	add	a4,a4,a3
    5428:	fff74683          	lbu	a3,-1(a4)
    542c:	fff78793          	addi	a5,a5,-1
    5430:	00d70023          	sb	a3,0(a4)
    5434:	f65ff06f          	j	5398 <shellInsertByte+0xd0>
    5438:	06044783          	lbu	a5,96(s0)
    543c:	02a00593          	li	a1,42
    5440:	0017f793          	andi	a5,a5,1
    5444:	00078863          	beqz	a5,5454 <shellInsertByte+0x18c>
    5448:	01042783          	lw	a5,16(s0)
    544c:	012787b3          	add	a5,a5,s2
    5450:	0007c583          	lbu	a1,0(a5)
    5454:	06842503          	lw	a0,104(s0)
    5458:	00190913          	addi	s2,s2,1
    545c:	d10ff0ef          	jal	496c <shellWriteByte.isra.0>
    5460:	f85ff06f          	j	53e4 <shellInsertByte+0x11c>
    5464:	06842503          	lw	a0,104(s0)
    5468:	00800593          	li	a1,8
    546c:	fff48493          	addi	s1,s1,-1
    5470:	cfcff0ef          	jal	496c <shellWriteByte.isra.0>
    5474:	f89ff06f          	j	53fc <shellInsertByte+0x134>

00005478 <shellDeleteByte>:
    5478:	00e55783          	lhu	a5,14(a0)
    547c:	00079663          	bnez	a5,5488 <shellDeleteByte+0x10>
    5480:	fff58713          	addi	a4,a1,-1
    5484:	14070063          	beqz	a4,55c4 <shellDeleteByte+0x14c>
    5488:	00c55703          	lhu	a4,12(a0)
    548c:	02e79c63          	bne	a5,a4,54c4 <shellDeleteByte+0x4c>
    5490:	fff00713          	li	a4,-1
    5494:	12e58863          	beq	a1,a4,55c4 <shellDeleteByte+0x14c>
    5498:	00100713          	li	a4,1
    549c:	02e59463          	bne	a1,a4,54c4 <shellDeleteByte+0x4c>
    54a0:	01052703          	lw	a4,16(a0)
    54a4:	fff78793          	addi	a5,a5,-1
    54a8:	00f51723          	sh	a5,14(a0)
    54ac:	01079793          	slli	a5,a5,0x10
    54b0:	0107d793          	srli	a5,a5,0x10
    54b4:	00f51623          	sh	a5,12(a0)
    54b8:	00f707b3          	add	a5,a4,a5
    54bc:	00078023          	sb	zero,0(a5)
    54c0:	d59ff06f          	j	5218 <shellDeleteCommandLine>
    54c4:	ff010113          	addi	sp,sp,-16
    54c8:	00158793          	addi	a5,a1,1
    54cc:	00112623          	sw	ra,12(sp)
    54d0:	00812423          	sw	s0,8(sp)
    54d4:	00912223          	sw	s1,4(sp)
    54d8:	0017b793          	seqz	a5,a5
    54dc:	00c55683          	lhu	a3,12(a0)
    54e0:	00e55703          	lhu	a4,14(a0)
    54e4:	40e68633          	sub	a2,a3,a4
    54e8:	08c7c263          	blt	a5,a2,556c <shellDeleteByte+0xf4>
    54ec:	fff68693          	addi	a3,a3,-1
    54f0:	00d51623          	sh	a3,12(a0)
    54f4:	fff00793          	li	a5,-1
    54f8:	00050413          	mv	s0,a0
    54fc:	00f58c63          	beq	a1,a5,5514 <shellDeleteByte+0x9c>
    5500:	00f70733          	add	a4,a4,a5
    5504:	00e51723          	sh	a4,14(a0)
    5508:	06852503          	lw	a0,104(a0)
    550c:	00800593          	li	a1,8
    5510:	c5cff0ef          	jal	496c <shellWriteByte.isra.0>
    5514:	00c45703          	lhu	a4,12(s0)
    5518:	01042783          	lw	a5,16(s0)
    551c:	00e787b3          	add	a5,a5,a4
    5520:	00078023          	sb	zero,0(a5)
    5524:	00e41483          	lh	s1,14(s0)
    5528:	00c45783          	lhu	a5,12(s0)
    552c:	06842503          	lw	a0,104(s0)
    5530:	06f4c063          	blt	s1,a5,5590 <shellDeleteByte+0x118>
    5534:	02000593          	li	a1,32
    5538:	c34ff0ef          	jal	496c <shellWriteByte.isra.0>
    553c:	00c45483          	lhu	s1,12(s0)
    5540:	00e45783          	lhu	a5,14(s0)
    5544:	00148493          	addi	s1,s1,1
    5548:	40f484b3          	sub	s1,s1,a5
    554c:	01049493          	slli	s1,s1,0x10
    5550:	4104d493          	srai	s1,s1,0x10
    5554:	04904e63          	bgtz	s1,55b0 <shellDeleteByte+0x138>
    5558:	00c12083          	lw	ra,12(sp)
    555c:	00812403          	lw	s0,8(sp)
    5560:	00412483          	lw	s1,4(sp)
    5564:	01010113          	addi	sp,sp,16
    5568:	00008067          	ret
    556c:	01052683          	lw	a3,16(a0)
    5570:	00e78733          	add	a4,a5,a4
    5574:	00178793          	addi	a5,a5,1
    5578:	00e68733          	add	a4,a3,a4
    557c:	00074683          	lbu	a3,0(a4)
    5580:	01079793          	slli	a5,a5,0x10
    5584:	4107d793          	srai	a5,a5,0x10
    5588:	fed70fa3          	sb	a3,-1(a4)
    558c:	f51ff06f          	j	54dc <shellDeleteByte+0x64>
    5590:	01042783          	lw	a5,16(s0)
    5594:	009787b3          	add	a5,a5,s1
    5598:	0007c583          	lbu	a1,0(a5)
    559c:	00148493          	addi	s1,s1,1
    55a0:	01049493          	slli	s1,s1,0x10
    55a4:	bc8ff0ef          	jal	496c <shellWriteByte.isra.0>
    55a8:	4104d493          	srai	s1,s1,0x10
    55ac:	f7dff06f          	j	5528 <shellDeleteByte+0xb0>
    55b0:	06842503          	lw	a0,104(s0)
    55b4:	00800593          	li	a1,8
    55b8:	fff48493          	addi	s1,s1,-1
    55bc:	bb0ff0ef          	jal	496c <shellWriteByte.isra.0>
    55c0:	f8dff06f          	j	554c <shellDeleteByte+0xd4>
    55c4:	00008067          	ret

000055c8 <shellSplit>:
    55c8:	fe010113          	addi	sp,sp,-32
    55cc:	00812e23          	sw	s0,28(sp)
    55d0:	00912c23          	sw	s1,24(sp)
    55d4:	00050f93          	mv	t6,a0
    55d8:	00012023          	sw	zero,0(sp)
    55dc:	00012223          	sw	zero,4(sp)
    55e0:	00012423          	sw	zero,8(sp)
    55e4:	00012623          	sw	zero,12(sp)
    55e8:	00000793          	li	a5,0
    55ec:	01079513          	slli	a0,a5,0x10
    55f0:	41055513          	srai	a0,a0,0x10
    55f4:	02e54c63          	blt	a0,a4,562c <shellSplit+0x64>
    55f8:	30000f37          	lui	t5,0x30000
    55fc:	00000e93          	li	t4,0
    5600:	00000513          	li	a0,0
    5604:	00000793          	li	a5,0
    5608:	00100893          	li	a7,1
    560c:	05c00293          	li	t0,92
    5610:	074f0393          	addi	t2,t5,116 # 30000074 <pairedChars>
    5614:	02000413          	li	s0,32
    5618:	02bee463          	bltu	t4,a1,5640 <shellSplit+0x78>
    561c:	01c12403          	lw	s0,28(sp)
    5620:	01812483          	lw	s1,24(sp)
    5624:	02010113          	addi	sp,sp,32
    5628:	00008067          	ret
    562c:	00279813          	slli	a6,a5,0x2
    5630:	01060833          	add	a6,a2,a6
    5634:	00082023          	sw	zero,0(a6)
    5638:	00178793          	addi	a5,a5,1
    563c:	fb1ff06f          	j	55ec <shellSplit+0x24>
    5640:	01df8333          	add	t1,t6,t4
    5644:	00034803          	lbu	a6,0(t1) # 4000000 <_etext+0x3fddc3c>
    5648:	06079863          	bnez	a5,56b8 <shellSplit+0xf0>
    564c:	04d80263          	beq	a6,a3,5690 <shellSplit+0xc8>
    5650:	02e55e63          	bge	a0,a4,568c <shellSplit+0xc4>
    5654:	02088c63          	beqz	a7,568c <shellSplit+0xc4>
    5658:	00251813          	slli	a6,a0,0x2
    565c:	01060833          	add	a6,a2,a6
    5660:	00682023          	sw	t1,0(a6)
    5664:	00150513          	addi	a0,a0,1
    5668:	00000893          	li	a7,0
    566c:	00034803          	lbu	a6,0(t1)
    5670:	074f4e03          	lbu	t3,116(t5)
    5674:	07c80663          	beq	a6,t3,56e0 <shellSplit+0x118>
    5678:	02581863          	bne	a6,t0,56a8 <shellSplit+0xe0>
    567c:	00134803          	lbu	a6,1(t1)
    5680:	01003833          	snez	a6,a6
    5684:	010e8eb3          	add	t4,t4,a6
    5688:	0200006f          	j	56a8 <shellSplit+0xe0>
    568c:	fe8810e3          	bne	a6,s0,566c <shellSplit+0xa4>
    5690:	fc089ee3          	bnez	a7,566c <shellSplit+0xa4>
    5694:	00134883          	lbu	a7,1(t1)
    5698:	00030023          	sb	zero,0(t1)
    569c:	00000793          	li	a5,0
    56a0:	fe088893          	addi	a7,a7,-32
    56a4:	011038b3          	snez	a7,a7
    56a8:	001e8813          	addi	a6,t4,1
    56ac:	01081e93          	slli	t4,a6,0x10
    56b0:	010ede93          	srli	t4,t4,0x10
    56b4:	f65ff06f          	j	5618 <shellSplit+0x50>
    56b8:	0013ce03          	lbu	t3,1(t2)
    56bc:	fb0e18e3          	bne	t3,a6,566c <shellSplit+0xa4>
    56c0:	01078e13          	addi	t3,a5,16
    56c4:	002e0e33          	add	t3,t3,sp
    56c8:	074f4483          	lbu	s1,116(t5)
    56cc:	fefe4e03          	lbu	t3,-17(t3)
    56d0:	f9c49ee3          	bne	s1,t3,566c <shellSplit+0xa4>
    56d4:	fff78793          	addi	a5,a5,-1
    56d8:	0ff7f793          	zext.b	a5,a5
    56dc:	f9dff06f          	j	5678 <shellSplit+0xb0>
    56e0:	00178e13          	addi	t3,a5,1
    56e4:	01078793          	addi	a5,a5,16
    56e8:	002787b3          	add	a5,a5,sp
    56ec:	ff078823          	sb	a6,-16(a5)
    56f0:	00fe7793          	andi	a5,t3,15
    56f4:	f85ff06f          	j	5678 <shellSplit+0xb0>

000056f8 <shellSeekCommand>:
    56f8:	05852783          	lw	a5,88(a0)
    56fc:	fd010113          	addi	sp,sp,-48
    5700:	02912223          	sw	s1,36(sp)
    5704:	05c55483          	lhu	s1,92(a0)
    5708:	40f607b3          	sub	a5,a2,a5
    570c:	0047d793          	srli	a5,a5,0x4
    5710:	40f484b3          	sub	s1,s1,a5
    5714:	03212023          	sw	s2,32(sp)
    5718:	01312e23          	sw	s3,28(sp)
    571c:	01049493          	slli	s1,s1,0x10
    5720:	00001937          	lui	s2,0x1
    5724:	000019b7          	lui	s3,0x1
    5728:	01412c23          	sw	s4,24(sp)
    572c:	01512a23          	sw	s5,20(sp)
    5730:	01612823          	sw	s6,16(sp)
    5734:	01712623          	sw	s7,12(sp)
    5738:	01812423          	sw	s8,8(sp)
    573c:	02112623          	sw	ra,44(sp)
    5740:	02812423          	sw	s0,40(sp)
    5744:	00050a13          	mv	s4,a0
    5748:	00058b93          	mv	s7,a1
    574c:	00060a93          	mv	s5,a2
    5750:	00068c13          	mv	s8,a3
    5754:	0104d493          	srli	s1,s1,0x10
    5758:	00000b13          	li	s6,0
    575c:	f0090913          	addi	s2,s2,-256 # f00 <vsnprintf+0x3a8>
    5760:	90098993          	addi	s3,s3,-1792 # 900 <puts_helper+0x40>
    5764:	010b1793          	slli	a5,s6,0x10
    5768:	0107d793          	srli	a5,a5,0x10
    576c:	0097e663          	bltu	a5,s1,5778 <shellSeekCommand+0x80>
    5770:	00000413          	li	s0,0
    5774:	04c0006f          	j	57c0 <shellSeekCommand+0xc8>
    5778:	004b1413          	slli	s0,s6,0x4
    577c:	008a8433          	add	s0,s5,s0
    5780:	00042783          	lw	a5,0(s0)
    5784:	0127f7b3          	and	a5,a5,s2
    5788:	01379663          	bne	a5,s3,5794 <shellSeekCommand+0x9c>
    578c:	001b0b13          	addi	s6,s6,1
    5790:	fd5ff06f          	j	5764 <shellSeekCommand+0x6c>
    5794:	00040593          	mv	a1,s0
    5798:	000a0513          	mv	a0,s4
    579c:	bb4ff0ef          	jal	4b50 <shellCheckPermission>
    57a0:	fe0516e3          	bnez	a0,578c <shellSeekCommand+0x94>
    57a4:	00040513          	mv	a0,s0
    57a8:	c5cff0ef          	jal	4c04 <shellGetCommandName>
    57ac:	00050593          	mv	a1,a0
    57b0:	040c1263          	bnez	s8,57f4 <shellSeekCommand+0xfc>
    57b4:	000b8513          	mv	a0,s7
    57b8:	aa5fa0ef          	jal	25c <strcmp>
    57bc:	fc0518e3          	bnez	a0,578c <shellSeekCommand+0x94>
    57c0:	02c12083          	lw	ra,44(sp)
    57c4:	00040513          	mv	a0,s0
    57c8:	02812403          	lw	s0,40(sp)
    57cc:	02412483          	lw	s1,36(sp)
    57d0:	02012903          	lw	s2,32(sp)
    57d4:	01c12983          	lw	s3,28(sp)
    57d8:	01812a03          	lw	s4,24(sp)
    57dc:	01412a83          	lw	s5,20(sp)
    57e0:	01012b03          	lw	s6,16(sp)
    57e4:	00c12b83          	lw	s7,12(sp)
    57e8:	00812c03          	lw	s8,8(sp)
    57ec:	03010113          	addi	sp,sp,48
    57f0:	00008067          	ret
    57f4:	000c0613          	mv	a2,s8
    57f8:	000b8513          	mv	a0,s7
    57fc:	b09fa0ef          	jal	304 <strncmp>
    5800:	fbdff06f          	j	57bc <shellSeekCommand+0xc4>

00005804 <shellGetVarValue>:
    5804:	0005a783          	lw	a5,0(a1)
    5808:	00500713          	li	a4,5
    580c:	0087d793          	srli	a5,a5,0x8
    5810:	00e78793          	addi	a5,a5,14
    5814:	00f7f793          	andi	a5,a5,15
    5818:	04f76e63          	bltu	a4,a5,5874 <shellGetVarValue+0x70>
    581c:	0000d737          	lui	a4,0xd
    5820:	00279793          	slli	a5,a5,0x2
    5824:	5b070713          	addi	a4,a4,1456 # d5b0 <shellCommandList+0x1f0>
    5828:	00e787b3          	add	a5,a5,a4
    582c:	0007a783          	lw	a5,0(a5)
    5830:	00078067          	jr	a5
    5834:	0085a783          	lw	a5,8(a1)
    5838:	0007a503          	lw	a0,0(a5)
    583c:	00008067          	ret
    5840:	0085a783          	lw	a5,8(a1)
    5844:	00079503          	lh	a0,0(a5)
    5848:	00008067          	ret
    584c:	0085a783          	lw	a5,8(a1)
    5850:	0007c503          	lbu	a0,0(a5)
    5854:	00008067          	ret
    5858:	0085a503          	lw	a0,8(a1)
    585c:	00008067          	ret
    5860:	0085a703          	lw	a4,8(a1)
    5864:	00472783          	lw	a5,4(a4)
    5868:	00078663          	beqz	a5,5874 <shellGetVarValue+0x70>
    586c:	00072503          	lw	a0,0(a4)
    5870:	00078067          	jr	a5
    5874:	00000513          	li	a0,0
    5878:	00008067          	ret

0000587c <shellShowVar>:
    587c:	fd010113          	addi	sp,sp,-48
    5880:	02812423          	sw	s0,40(sp)
    5884:	02912223          	sw	s1,36(sp)
    5888:	00410413          	addi	s0,sp,4
    588c:	00058493          	mv	s1,a1
    5890:	000225b7          	lui	a1,0x22
    5894:	00c00613          	li	a2,12
    5898:	03212023          	sw	s2,32(sp)
    589c:	8e458593          	addi	a1,a1,-1820 # 218e4 <log_level_colors+0x10fc>
    58a0:	00050913          	mv	s2,a0
    58a4:	00040513          	mv	a0,s0
    58a8:	02112623          	sw	ra,44(sp)
    58ac:	01312e23          	sw	s3,28(sp)
    58b0:	901fa0ef          	jal	1b0 <memcpy>
    58b4:	00048593          	mv	a1,s1
    58b8:	00090513          	mv	a0,s2
    58bc:	f49ff0ef          	jal	5804 <shellGetVarValue>
    58c0:	0044a583          	lw	a1,4(s1)
    58c4:	00050993          	mv	s3,a0
    58c8:	00090513          	mv	a0,s2
    58cc:	934ff0ef          	jal	4a00 <shellWriteString>
    58d0:	000225b7          	lui	a1,0x22
    58d4:	98c58593          	addi	a1,a1,-1652 # 2198c <log_level_colors+0x11a4>
    58d8:	00090513          	mv	a0,s2
    58dc:	924ff0ef          	jal	4a00 <shellWriteString>
    58e0:	0004a783          	lw	a5,0(s1)
    58e4:	00500713          	li	a4,5
    58e8:	0087d793          	srli	a5,a5,0x8
    58ec:	00f7f793          	andi	a5,a5,15
    58f0:	04e79e63          	bne	a5,a4,594c <shellShowVar+0xd0>
    58f4:	00022437          	lui	s0,0x22
    58f8:	99040593          	addi	a1,s0,-1648 # 21990 <log_level_colors+0x11a8>
    58fc:	00090513          	mv	a0,s2
    5900:	900ff0ef          	jal	4a00 <shellWriteString>
    5904:	00098593          	mv	a1,s3
    5908:	00090513          	mv	a0,s2
    590c:	8f4ff0ef          	jal	4a00 <shellWriteString>
    5910:	99040593          	addi	a1,s0,-1648
    5914:	00090513          	mv	a0,s2
    5918:	8e8ff0ef          	jal	4a00 <shellWriteString>
    591c:	000225b7          	lui	a1,0x22
    5920:	00090513          	mv	a0,s2
    5924:	f1058593          	addi	a1,a1,-240 # 21f10 <log_level_colors+0x1728>
    5928:	8d8ff0ef          	jal	4a00 <shellWriteString>
    592c:	02c12083          	lw	ra,44(sp)
    5930:	02812403          	lw	s0,40(sp)
    5934:	02412483          	lw	s1,36(sp)
    5938:	02012903          	lw	s2,32(sp)
    593c:	00098513          	mv	a0,s3
    5940:	01c12983          	lw	s3,28(sp)
    5944:	03010113          	addi	sp,sp,48
    5948:	00008067          	ret
    594c:	00040593          	mv	a1,s0
    5950:	00098513          	mv	a0,s3
    5954:	b24ff0ef          	jal	4c78 <shellToDec>
    5958:	00b00493          	li	s1,11
    595c:	40a485b3          	sub	a1,s1,a0
    5960:	00b405b3          	add	a1,s0,a1
    5964:	00090513          	mv	a0,s2
    5968:	898ff0ef          	jal	4a00 <shellWriteString>
    596c:	000225b7          	lui	a1,0x22
    5970:	8dc58593          	addi	a1,a1,-1828 # 218dc <log_level_colors+0x10f4>
    5974:	00090513          	mv	a0,s2
    5978:	888ff0ef          	jal	4a00 <shellWriteString>
    597c:	00000793          	li	a5,0
    5980:	03000693          	li	a3,48
    5984:	00f40733          	add	a4,s0,a5
    5988:	00d70023          	sb	a3,0(a4)
    598c:	00178793          	addi	a5,a5,1
    5990:	fe979ae3          	bne	a5,s1,5984 <shellShowVar+0x108>
    5994:	00040593          	mv	a1,s0
    5998:	00098513          	mv	a0,s3
    599c:	a1cff0ef          	jal	4bb8 <shellToHex>
    59a0:	00040593          	mv	a1,s0
    59a4:	f71ff06f          	j	5914 <shellShowVar+0x98>

000059a8 <shellSetVarValue>:
    59a8:	0005a783          	lw	a5,0(a1)
    59ac:	ff010113          	addi	sp,sp,-16
    59b0:	00812423          	sw	s0,8(sp)
    59b4:	00912223          	sw	s1,4(sp)
    59b8:	00112623          	sw	ra,12(sp)
    59bc:	01179713          	slli	a4,a5,0x11
    59c0:	00050493          	mv	s1,a0
    59c4:	00058413          	mv	s0,a1
    59c8:	00075a63          	bgez	a4,59dc <shellSetVarValue+0x34>
    59cc:	000225b7          	lui	a1,0x22
    59d0:	99458593          	addi	a1,a1,-1644 # 21994 <log_level_colors+0x11ac>
    59d4:	82cff0ef          	jal	4a00 <shellWriteString>
    59d8:	03c0006f          	j	5a14 <shellSetVarValue+0x6c>
    59dc:	0087d793          	srli	a5,a5,0x8
    59e0:	00e78793          	addi	a5,a5,14
    59e4:	00f7f793          	andi	a5,a5,15
    59e8:	00500713          	li	a4,5
    59ec:	02f76463          	bltu	a4,a5,5a14 <shellSetVarValue+0x6c>
    59f0:	0000d737          	lui	a4,0xd
    59f4:	00279793          	slli	a5,a5,0x2
    59f8:	5c870713          	addi	a4,a4,1480 # d5c8 <shellCommandList+0x208>
    59fc:	00e787b3          	add	a5,a5,a4
    5a00:	0007a783          	lw	a5,0(a5)
    5a04:	00060593          	mv	a1,a2
    5a08:	00078067          	jr	a5
    5a0c:	00842783          	lw	a5,8(s0)
    5a10:	00c7a023          	sw	a2,0(a5)
    5a14:	00040593          	mv	a1,s0
    5a18:	00812403          	lw	s0,8(sp)
    5a1c:	00c12083          	lw	ra,12(sp)
    5a20:	00048513          	mv	a0,s1
    5a24:	00412483          	lw	s1,4(sp)
    5a28:	01010113          	addi	sp,sp,16
    5a2c:	e51ff06f          	j	587c <shellShowVar>
    5a30:	00842783          	lw	a5,8(s0)
    5a34:	00c79023          	sh	a2,0(a5)
    5a38:	fddff06f          	j	5a14 <shellSetVarValue+0x6c>
    5a3c:	00842783          	lw	a5,8(s0)
    5a40:	00c78023          	sb	a2,0(a5)
    5a44:	fd1ff06f          	j	5a14 <shellSetVarValue+0x6c>
    5a48:	00842503          	lw	a0,8(s0)
    5a4c:	eedfe0ef          	jal	4938 <shellStringCopy>
    5a50:	fc5ff06f          	j	5a14 <shellSetVarValue+0x6c>
    5a54:	000225b7          	lui	a1,0x22
    5a58:	9b058593          	addi	a1,a1,-1616 # 219b0 <log_level_colors+0x11c8>
    5a5c:	f79ff06f          	j	59d4 <shellSetVarValue+0x2c>
    5a60:	00842703          	lw	a4,8(s0)
    5a64:	00872783          	lw	a5,8(a4)
    5a68:	fa0786e3          	beqz	a5,5a14 <shellSetVarValue+0x6c>
    5a6c:	00072503          	lw	a0,0(a4)
    5a70:	00050663          	beqz	a0,5a7c <shellSetVarValue+0xd4>
    5a74:	000780e7          	jalr	a5
    5a78:	f9dff06f          	j	5a14 <shellSetVarValue+0x6c>
    5a7c:	00060513          	mv	a0,a2
    5a80:	000780e7          	jalr	a5
    5a84:	f91ff06f          	j	5a14 <shellSetVarValue+0x6c>

00005a88 <shellSetVar>:
    5a88:	ff010113          	addi	sp,sp,-16
    5a8c:	00912223          	sw	s1,4(sp)
    5a90:	01212023          	sw	s2,0(sp)
    5a94:	00112623          	sw	ra,12(sp)
    5a98:	00812423          	sw	s0,8(sp)
    5a9c:	00050493          	mv	s1,a0
    5aa0:	00058913          	mv	s2,a1
    5aa4:	f2dfe0ef          	jal	49d0 <shellGetCurrent>
    5aa8:	02050863          	beqz	a0,5ad8 <shellSetVar+0x50>
    5aac:	05852603          	lw	a2,88(a0)
    5ab0:	00048593          	mv	a1,s1
    5ab4:	00000693          	li	a3,0
    5ab8:	00050413          	mv	s0,a0
    5abc:	c3dff0ef          	jal	56f8 <shellSeekCommand>
    5ac0:	00050593          	mv	a1,a0
    5ac4:	02051863          	bnez	a0,5af4 <shellSetVar+0x6c>
    5ac8:	000225b7          	lui	a1,0x22
    5acc:	9c458593          	addi	a1,a1,-1596 # 219c4 <log_level_colors+0x11dc>
    5ad0:	00040513          	mv	a0,s0
    5ad4:	f2dfe0ef          	jal	4a00 <shellWriteString>
    5ad8:	00c12083          	lw	ra,12(sp)
    5adc:	00812403          	lw	s0,8(sp)
    5ae0:	00412483          	lw	s1,4(sp)
    5ae4:	00012903          	lw	s2,0(sp)
    5ae8:	00000513          	li	a0,0
    5aec:	01010113          	addi	sp,sp,16
    5af0:	00008067          	ret
    5af4:	00052783          	lw	a5,0(a0)
    5af8:	00500713          	li	a4,5
    5afc:	0087d793          	srli	a5,a5,0x8
    5b00:	00e78793          	addi	a5,a5,14
    5b04:	00f7f793          	andi	a5,a5,15
    5b08:	00f77e63          	bgeu	a4,a5,5b24 <shellSetVar+0x9c>
    5b0c:	00048593          	mv	a1,s1
    5b10:	00040513          	mv	a0,s0
    5b14:	eedfe0ef          	jal	4a00 <shellWriteString>
    5b18:	000225b7          	lui	a1,0x22
    5b1c:	9d458593          	addi	a1,a1,-1580 # 219d4 <log_level_colors+0x11ec>
    5b20:	fb1ff06f          	j	5ad0 <shellSetVar+0x48>
    5b24:	00040513          	mv	a0,s0
    5b28:	00812403          	lw	s0,8(sp)
    5b2c:	00c12083          	lw	ra,12(sp)
    5b30:	00412483          	lw	s1,4(sp)
    5b34:	00090613          	mv	a2,s2
    5b38:	00012903          	lw	s2,0(sp)
    5b3c:	01010113          	addi	sp,sp,16
    5b40:	e69ff06f          	j	59a8 <shellSetVarValue>

00005b44 <shellSetUser>:
    5b44:	ff010113          	addi	sp,sp,-16
    5b48:	00812423          	sw	s0,8(sp)
    5b4c:	00112623          	sw	ra,12(sp)
    5b50:	00912223          	sw	s1,4(sp)
    5b54:	00050413          	mv	s0,a0
    5b58:	00b52023          	sw	a1,0(a0)
    5b5c:	0085a503          	lw	a0,8(a1)
    5b60:	04051a63          	bnez	a0,5bb4 <shellSetUser+0x70>
    5b64:	00100513          	li	a0,1
    5b68:	06044783          	lbu	a5,96(s0)
    5b6c:	000225b7          	lui	a1,0x22
    5b70:	9e458593          	addi	a1,a1,-1564 # 219e4 <log_level_colors+0x11fc>
    5b74:	ffe7f793          	andi	a5,a5,-2
    5b78:	00a7e7b3          	or	a5,a5,a0
    5b7c:	06f40023          	sb	a5,96(s0)
    5b80:	00040513          	mv	a0,s0
    5b84:	e7dfe0ef          	jal	4a00 <shellWriteString>
    5b88:	06044783          	lbu	a5,96(s0)
    5b8c:	0017f793          	andi	a5,a5,1
    5b90:	04078a63          	beqz	a5,5be4 <shellSetUser+0xa0>
    5b94:	00040513          	mv	a0,s0
    5b98:	00812403          	lw	s0,8(sp)
    5b9c:	00c12083          	lw	ra,12(sp)
    5ba0:	00412483          	lw	s1,4(sp)
    5ba4:	000225b7          	lui	a1,0x22
    5ba8:	9f058593          	addi	a1,a1,-1552 # 219f0 <log_level_colors+0x1208>
    5bac:	01010113          	addi	sp,sp,16
    5bb0:	e51fe06f          	j	4a00 <shellWriteString>
    5bb4:	00058493          	mv	s1,a1
    5bb8:	e38fa0ef          	jal	1f0 <strlen>
    5bbc:	fa0504e3          	beqz	a0,5b64 <shellSetUser+0x20>
    5bc0:	03645703          	lhu	a4,54(s0)
    5bc4:	00100793          	li	a5,1
    5bc8:	00000513          	li	a0,0
    5bcc:	f8e7fee3          	bgeu	a5,a4,5b68 <shellSetUser+0x24>
    5bd0:	01842583          	lw	a1,24(s0)
    5bd4:	0084a503          	lw	a0,8(s1)
    5bd8:	e84fa0ef          	jal	25c <strcmp>
    5bdc:	00153513          	seqz	a0,a0
    5be0:	f89ff06f          	j	5b68 <shellSetUser+0x24>
    5be4:	00c12083          	lw	ra,12(sp)
    5be8:	00812403          	lw	s0,8(sp)
    5bec:	00412483          	lw	s1,4(sp)
    5bf0:	01010113          	addi	sp,sp,16
    5bf4:	00008067          	ret

00005bf8 <shellInit>:
    5bf8:	06054783          	lbu	a5,96(a0)
    5bfc:	ff010113          	addi	sp,sp,-16
    5c00:	00812423          	sw	s0,8(sp)
    5c04:	00112623          	sw	ra,12(sp)
    5c08:	0017e793          	ori	a5,a5,1
    5c0c:	06f50023          	sb	a5,96(a0)
    5c10:	00600793          	li	a5,6
    5c14:	02f65633          	divu	a2,a2,a5
    5c18:	00b52823          	sw	a1,16(a0)
    5c1c:	00050413          	mv	s0,a0
    5c20:	00052623          	sw	zero,12(a0)
    5c24:	00052023          	sw	zero,0(a0)
    5c28:	04052823          	sw	zero,80(a0)
    5c2c:	04051a23          	sh	zero,84(a0)
    5c30:	03c50793          	addi	a5,a0,60
    5c34:	05050713          	addi	a4,a0,80
    5c38:	02c51a23          	sh	a2,52(a0)
    5c3c:	00c585b3          	add	a1,a1,a2
    5c40:	00b7a023          	sw	a1,0(a5)
    5c44:	00478793          	addi	a5,a5,4
    5c48:	00c585b3          	add	a1,a1,a2
    5c4c:	fee79ae3          	bne	a5,a4,5c40 <shellInit+0x48>
    5c50:	0000d637          	lui	a2,0xd
    5c54:	3c060793          	addi	a5,a2,960 # d3c0 <shellCommandList>
    5c58:	04f42c23          	sw	a5,88(s0)
    5c5c:	000227b7          	lui	a5,0x22
    5c60:	3c07d783          	lhu	a5,960(a5) # 223c0 <shellCommandCount>
    5c64:	30000737          	lui	a4,0x30000
    5c68:	20470713          	addi	a4,a4,516 # 30000204 <shellList>
    5c6c:	04f41e23          	sh	a5,92(s0)
    5c70:	00070693          	mv	a3,a4
    5c74:	00000793          	li	a5,0
    5c78:	00500593          	li	a1,5
    5c7c:	00072503          	lw	a0,0(a4)
    5c80:	04051463          	bnez	a0,5cc8 <shellInit+0xd0>
    5c84:	00279793          	slli	a5,a5,0x2
    5c88:	00f686b3          	add	a3,a3,a5
    5c8c:	0086a023          	sw	s0,0(a3)
    5c90:	000215b7          	lui	a1,0x21
    5c94:	00000693          	li	a3,0
    5c98:	3c060613          	addi	a2,a2,960
    5c9c:	69058593          	addi	a1,a1,1680 # 21690 <log_level_colors+0xea8>
    5ca0:	00040513          	mv	a0,s0
    5ca4:	a55ff0ef          	jal	56f8 <shellSeekCommand>
    5ca8:	00050593          	mv	a1,a0
    5cac:	00040513          	mv	a0,s0
    5cb0:	e95ff0ef          	jal	5b44 <shellSetUser>
    5cb4:	00040513          	mv	a0,s0
    5cb8:	00812403          	lw	s0,8(sp)
    5cbc:	00c12083          	lw	ra,12(sp)
    5cc0:	01010113          	addi	sp,sp,16
    5cc4:	d91fe06f          	j	4a54 <shellWritePrompt.constprop.0>
    5cc8:	00178793          	addi	a5,a5,1
    5ccc:	00470713          	addi	a4,a4,4
    5cd0:	fab796e3          	bne	a5,a1,5c7c <shellInit+0x84>
    5cd4:	fbdff06f          	j	5c90 <shellInit+0x98>

00005cd8 <shellRunCommand>:
    5cd8:	06054783          	lbu	a5,96(a0)
    5cdc:	fe010113          	addi	sp,sp,-32
    5ce0:	00812c23          	sw	s0,24(sp)
    5ce4:	01212823          	sw	s2,16(sp)
    5ce8:	0027e793          	ori	a5,a5,2
    5cec:	0005a703          	lw	a4,0(a1)
    5cf0:	00112e23          	sw	ra,28(sp)
    5cf4:	00912a23          	sw	s1,20(sp)
    5cf8:	01312623          	sw	s3,12(sp)
    5cfc:	01412423          	sw	s4,8(sp)
    5d00:	06f50023          	sb	a5,96(a0)
    5d04:	000017b7          	lui	a5,0x1
    5d08:	f0078793          	addi	a5,a5,-256 # f00 <vsnprintf+0x3a8>
    5d0c:	00f777b3          	and	a5,a4,a5
    5d10:	00050413          	mv	s0,a0
    5d14:	00058913          	mv	s2,a1
    5d18:	0c079263          	bnez	a5,5ddc <shellRunCommand+0x104>
    5d1c:	00000493          	li	s1,0
    5d20:	02200a13          	li	s4,34
    5d24:	0580006f          	j	5d7c <shellRunCommand+0xa4>
    5d28:	00249993          	slli	s3,s1,0x2
    5d2c:	013409b3          	add	s3,s0,s3
    5d30:	0149a503          	lw	a0,20(s3)
    5d34:	00054783          	lbu	a5,0(a0)
    5d38:	01479a63          	bne	a5,s4,5d4c <shellRunCommand+0x74>
    5d3c:	00050023          	sb	zero,0(a0)
    5d40:	0149a503          	lw	a0,20(s3)
    5d44:	00150513          	addi	a0,a0,1
    5d48:	00a9aa23          	sw	a0,20(s3)
    5d4c:	ca4fa0ef          	jal	1f0 <strlen>
    5d50:	0149a783          	lw	a5,20(s3)
    5d54:	01051513          	slli	a0,a0,0x10
    5d58:	01055513          	srli	a0,a0,0x10
    5d5c:	fff50513          	addi	a0,a0,-1
    5d60:	00a787b3          	add	a5,a5,a0
    5d64:	0007c703          	lbu	a4,0(a5)
    5d68:	01471463          	bne	a4,s4,5d70 <shellRunCommand+0x98>
    5d6c:	00078023          	sb	zero,0(a5)
    5d70:	00148493          	addi	s1,s1,1
    5d74:	01049493          	slli	s1,s1,0x10
    5d78:	0104d493          	srli	s1,s1,0x10
    5d7c:	03645503          	lhu	a0,54(s0)
    5d80:	faa4e4e3          	bltu	s1,a0,5d28 <shellRunCommand+0x50>
    5d84:	00892783          	lw	a5,8(s2)
    5d88:	01440593          	addi	a1,s0,20
    5d8c:	000780e7          	jalr	a5
    5d90:	00092783          	lw	a5,0(s2)
    5d94:	00050493          	mv	s1,a0
    5d98:	01279713          	slli	a4,a5,0x12
    5d9c:	00074863          	bltz	a4,5dac <shellRunCommand+0xd4>
    5da0:	00050593          	mv	a1,a0
    5da4:	00040513          	mv	a0,s0
    5da8:	f51fe0ef          	jal	4cf8 <shellWriteReturnValue>
    5dac:	06044783          	lbu	a5,96(s0)
    5db0:	01c12083          	lw	ra,28(sp)
    5db4:	01012903          	lw	s2,16(sp)
    5db8:	ffd7f793          	andi	a5,a5,-3
    5dbc:	06f40023          	sb	a5,96(s0)
    5dc0:	01812403          	lw	s0,24(sp)
    5dc4:	00c12983          	lw	s3,12(sp)
    5dc8:	00812a03          	lw	s4,8(sp)
    5dcc:	00048513          	mv	a0,s1
    5dd0:	01412483          	lw	s1,20(sp)
    5dd4:	02010113          	addi	sp,sp,32
    5dd8:	00008067          	ret
    5ddc:	10000693          	li	a3,256
    5de0:	00d79a63          	bne	a5,a3,5df4 <shellRunCommand+0x11c>
    5de4:	03655603          	lhu	a2,54(a0)
    5de8:	01450693          	addi	a3,a0,20
    5dec:	8b8fe0ef          	jal	3ea4 <shellExtRun>
    5df0:	fa1ff06f          	j	5d90 <shellRunCommand+0xb8>
    5df4:	00875713          	srli	a4,a4,0x8
    5df8:	00e70713          	addi	a4,a4,14
    5dfc:	00f77713          	andi	a4,a4,15
    5e00:	00500693          	li	a3,5
    5e04:	00e6e863          	bltu	a3,a4,5e14 <shellRunCommand+0x13c>
    5e08:	a75ff0ef          	jal	587c <shellShowVar>
    5e0c:	00000493          	li	s1,0
    5e10:	f9dff06f          	j	5dac <shellRunCommand+0xd4>
    5e14:	80078793          	addi	a5,a5,-2048
    5e18:	fe079ae3          	bnez	a5,5e0c <shellRunCommand+0x134>
    5e1c:	d29ff0ef          	jal	5b44 <shellSetUser>
    5e20:	fedff06f          	j	5e0c <shellRunCommand+0x134>

00005e24 <shellNormalInput>:
    5e24:	06054783          	lbu	a5,96(a0)
    5e28:	ffb7f793          	andi	a5,a5,-5
    5e2c:	06f50023          	sb	a5,96(a0)
    5e30:	c98ff06f          	j	52c8 <shellInsertByte>

00005e34 <shellExec>:
    5e34:	00c55703          	lhu	a4,12(a0)
    5e38:	1a070263          	beqz	a4,5fdc <shellExec+0x1a8>
    5e3c:	01052783          	lw	a5,16(a0)
    5e40:	ff010113          	addi	sp,sp,-16
    5e44:	00812423          	sw	s0,8(sp)
    5e48:	00e787b3          	add	a5,a5,a4
    5e4c:	00112623          	sw	ra,12(sp)
    5e50:	00050413          	mv	s0,a0
    5e54:	00078023          	sb	zero,0(a5)
    5e58:	06044783          	lbu	a5,96(s0)
    5e5c:	01052503          	lw	a0,16(a0)
    5e60:	0017f793          	andi	a5,a5,1
    5e64:	12078663          	beqz	a5,5f90 <shellExec+0x15c>
    5e68:	05045783          	lhu	a5,80(s0)
    5e6c:	04041a23          	sh	zero,84(s0)
    5e70:	04079e63          	bnez	a5,5ecc <shellExec+0x98>
    5e74:	05245783          	lhu	a5,82(s0)
    5e78:	01042583          	lw	a1,16(s0)
    5e7c:	00c78793          	addi	a5,a5,12
    5e80:	00279793          	slli	a5,a5,0x2
    5e84:	00f407b3          	add	a5,s0,a5
    5e88:	00c7a503          	lw	a0,12(a5)
    5e8c:	aadfe0ef          	jal	4938 <shellStringCopy>
    5e90:	0c051a63          	bnez	a0,5f64 <shellExec+0x130>
    5e94:	05045783          	lhu	a5,80(s0)
    5e98:	00500693          	li	a3,5
    5e9c:	00178793          	addi	a5,a5,1
    5ea0:	00078713          	mv	a4,a5
    5ea4:	01079793          	slli	a5,a5,0x10
    5ea8:	0107d793          	srli	a5,a5,0x10
    5eac:	00f6f463          	bgeu	a3,a5,5eb4 <shellExec+0x80>
    5eb0:	00068713          	mv	a4,a3
    5eb4:	04e41823          	sh	a4,80(s0)
    5eb8:	05245703          	lhu	a4,82(s0)
    5ebc:	00400793          	li	a5,4
    5ec0:	02e7fc63          	bgeu	a5,a4,5ef8 <shellExec+0xc4>
    5ec4:	04041923          	sh	zero,82(s0)
    5ec8:	0300006f          	j	5ef8 <shellExec+0xc4>
    5ecc:	05245703          	lhu	a4,82(s0)
    5ed0:	00400793          	li	a5,4
    5ed4:	00070463          	beqz	a4,5edc <shellExec+0xa8>
    5ed8:	fff70793          	addi	a5,a4,-1
    5edc:	00c78793          	addi	a5,a5,12
    5ee0:	00279793          	slli	a5,a5,0x2
    5ee4:	00f407b3          	add	a5,s0,a5
    5ee8:	00050593          	mv	a1,a0
    5eec:	00c7a503          	lw	a0,12(a5)
    5ef0:	b6cfa0ef          	jal	25c <strcmp>
    5ef4:	f80510e3          	bnez	a0,5e74 <shellExec+0x40>
    5ef8:	00c45583          	lhu	a1,12(s0)
    5efc:	01042503          	lw	a0,16(s0)
    5f00:	00800713          	li	a4,8
    5f04:	02000693          	li	a3,32
    5f08:	01440613          	addi	a2,s0,20
    5f0c:	ebcff0ef          	jal	55c8 <shellSplit>
    5f10:	01051513          	slli	a0,a0,0x10
    5f14:	01055513          	srli	a0,a0,0x10
    5f18:	02a41b23          	sh	a0,54(s0)
    5f1c:	00042623          	sw	zero,12(s0)
    5f20:	0a050063          	beqz	a0,5fc0 <shellExec+0x18c>
    5f24:	000225b7          	lui	a1,0x22
    5f28:	f1058593          	addi	a1,a1,-240 # 21f10 <log_level_colors+0x1728>
    5f2c:	00040513          	mv	a0,s0
    5f30:	ad1fe0ef          	jal	4a00 <shellWriteString>
    5f34:	01442583          	lw	a1,20(s0)
    5f38:	05842603          	lw	a2,88(s0)
    5f3c:	00000693          	li	a3,0
    5f40:	00040513          	mv	a0,s0
    5f44:	fb4ff0ef          	jal	56f8 <shellSeekCommand>
    5f48:	00050593          	mv	a1,a0
    5f4c:	02050463          	beqz	a0,5f74 <shellExec+0x140>
    5f50:	00040513          	mv	a0,s0
    5f54:	00812403          	lw	s0,8(sp)
    5f58:	00c12083          	lw	ra,12(sp)
    5f5c:	01010113          	addi	sp,sp,16
    5f60:	d79ff06f          	j	5cd8 <shellRunCommand>
    5f64:	05245783          	lhu	a5,82(s0)
    5f68:	00178793          	addi	a5,a5,1
    5f6c:	04f41923          	sh	a5,82(s0)
    5f70:	f25ff06f          	j	5e94 <shellExec+0x60>
    5f74:	00040513          	mv	a0,s0
    5f78:	00812403          	lw	s0,8(sp)
    5f7c:	00c12083          	lw	ra,12(sp)
    5f80:	000225b7          	lui	a1,0x22
    5f84:	e0458593          	addi	a1,a1,-508 # 21e04 <log_level_colors+0x161c>
    5f88:	01010113          	addi	sp,sp,16
    5f8c:	a75fe06f          	j	4a00 <shellWriteString>
    5f90:	00042783          	lw	a5,0(s0)
    5f94:	0087a583          	lw	a1,8(a5)
    5f98:	ac4fa0ef          	jal	25c <strcmp>
    5f9c:	02051a63          	bnez	a0,5fd0 <shellExec+0x19c>
    5fa0:	06044783          	lbu	a5,96(s0)
    5fa4:	000225b7          	lui	a1,0x22
    5fa8:	9f058593          	addi	a1,a1,-1552 # 219f0 <log_level_colors+0x1208>
    5fac:	0017e793          	ori	a5,a5,1
    5fb0:	06f40023          	sb	a5,96(s0)
    5fb4:	00040513          	mv	a0,s0
    5fb8:	a49fe0ef          	jal	4a00 <shellWriteString>
    5fbc:	00042623          	sw	zero,12(s0)
    5fc0:	00c12083          	lw	ra,12(sp)
    5fc4:	00812403          	lw	s0,8(sp)
    5fc8:	01010113          	addi	sp,sp,16
    5fcc:	00008067          	ret
    5fd0:	000225b7          	lui	a1,0x22
    5fd4:	e1858593          	addi	a1,a1,-488 # 21e18 <log_level_colors+0x1630>
    5fd8:	fddff06f          	j	5fb4 <shellExec+0x180>
    5fdc:	00008067          	ret

00005fe0 <shellUp>:
    5fe0:	05451683          	lh	a3,84(a0)
    5fe4:	ff010113          	addi	sp,sp,-16
    5fe8:	05055703          	lhu	a4,80(a0)
    5fec:	05255603          	lhu	a2,82(a0)
    5ff0:	00812423          	sw	s0,8(sp)
    5ff4:	fff68793          	addi	a5,a3,-1
    5ff8:	00112623          	sw	ra,12(sp)
    5ffc:	04f51a23          	sh	a5,84(a0)
    6000:	00050413          	mv	s0,a0
    6004:	00070793          	mv	a5,a4
    6008:	00e66463          	bltu	a2,a4,6010 <shellUp+0x30>
    600c:	00060793          	mv	a5,a2
    6010:	01079713          	slli	a4,a5,0x10
    6014:	01075713          	srli	a4,a4,0x10
    6018:	40e00733          	neg	a4,a4
    601c:	00d74663          	blt	a4,a3,6028 <shellUp+0x48>
    6020:	40f007b3          	neg	a5,a5
    6024:	04f41a23          	sh	a5,84(s0)
    6028:	00040513          	mv	a0,s0
    602c:	a40ff0ef          	jal	526c <shellClearCommandLine>
    6030:	05441703          	lh	a4,84(s0)
    6034:	00071c63          	bnez	a4,604c <shellUp+0x6c>
    6038:	00042623          	sw	zero,12(s0)
    603c:	00c12083          	lw	ra,12(sp)
    6040:	00812403          	lw	s0,8(sp)
    6044:	01010113          	addi	sp,sp,16
    6048:	00008067          	ret
    604c:	05245783          	lhu	a5,82(s0)
    6050:	01042503          	lw	a0,16(s0)
    6054:	00578793          	addi	a5,a5,5
    6058:	00e787b3          	add	a5,a5,a4
    605c:	00500713          	li	a4,5
    6060:	02e7e7b3          	rem	a5,a5,a4
    6064:	00c78793          	addi	a5,a5,12
    6068:	00279793          	slli	a5,a5,0x2
    606c:	00f407b3          	add	a5,s0,a5
    6070:	00c7a583          	lw	a1,12(a5)
    6074:	8c5fe0ef          	jal	4938 <shellStringCopy>
    6078:	00a41623          	sh	a0,12(s0)
    607c:	fc0500e3          	beqz	a0,603c <shellUp+0x5c>
    6080:	00a41723          	sh	a0,14(s0)
    6084:	01042583          	lw	a1,16(s0)
    6088:	00040513          	mv	a0,s0
    608c:	00812403          	lw	s0,8(sp)
    6090:	00c12083          	lw	ra,12(sp)
    6094:	01010113          	addi	sp,sp,16
    6098:	969fe06f          	j	4a00 <shellWriteString>

0000609c <shellDown>:
    609c:	05455783          	lhu	a5,84(a0)
    60a0:	ff010113          	addi	sp,sp,-16
    60a4:	00812423          	sw	s0,8(sp)
    60a8:	00178793          	addi	a5,a5,1
    60ac:	01079793          	slli	a5,a5,0x10
    60b0:	00112623          	sw	ra,12(sp)
    60b4:	4107d793          	srai	a5,a5,0x10
    60b8:	04f51a23          	sh	a5,84(a0)
    60bc:	00050413          	mv	s0,a0
    60c0:	00f05c63          	blez	a5,60d8 <shellDown+0x3c>
    60c4:	04051a23          	sh	zero,84(a0)
    60c8:	00c12083          	lw	ra,12(sp)
    60cc:	00812403          	lw	s0,8(sp)
    60d0:	01010113          	addi	sp,sp,16
    60d4:	00008067          	ret
    60d8:	994ff0ef          	jal	526c <shellClearCommandLine>
    60dc:	05441703          	lh	a4,84(s0)
    60e0:	00071663          	bnez	a4,60ec <shellDown+0x50>
    60e4:	00042623          	sw	zero,12(s0)
    60e8:	fe1ff06f          	j	60c8 <shellDown+0x2c>
    60ec:	05245783          	lhu	a5,82(s0)
    60f0:	01042503          	lw	a0,16(s0)
    60f4:	00578793          	addi	a5,a5,5
    60f8:	00e787b3          	add	a5,a5,a4
    60fc:	00500713          	li	a4,5
    6100:	02e7e7b3          	rem	a5,a5,a4
    6104:	00c78793          	addi	a5,a5,12
    6108:	00279793          	slli	a5,a5,0x2
    610c:	00f407b3          	add	a5,s0,a5
    6110:	00c7a583          	lw	a1,12(a5)
    6114:	825fe0ef          	jal	4938 <shellStringCopy>
    6118:	00a41623          	sh	a0,12(s0)
    611c:	fa0506e3          	beqz	a0,60c8 <shellDown+0x2c>
    6120:	00a41723          	sh	a0,14(s0)
    6124:	01042583          	lw	a1,16(s0)
    6128:	00040513          	mv	a0,s0
    612c:	00812403          	lw	s0,8(sp)
    6130:	00c12083          	lw	ra,12(sp)
    6134:	01010113          	addi	sp,sp,16
    6138:	8c9fe06f          	j	4a00 <shellWriteString>

0000613c <shellRight>:
    613c:	00e55703          	lhu	a4,14(a0)
    6140:	00c55783          	lhu	a5,12(a0)
    6144:	02f77063          	bgeu	a4,a5,6164 <shellRight+0x28>
    6148:	01052783          	lw	a5,16(a0)
    614c:	00170693          	addi	a3,a4,1
    6150:	00d51723          	sh	a3,14(a0)
    6154:	00e787b3          	add	a5,a5,a4
    6158:	0007c583          	lbu	a1,0(a5)
    615c:	06852503          	lw	a0,104(a0)
    6160:	80dfe06f          	j	496c <shellWriteByte.isra.0>
    6164:	00008067          	ret

00006168 <shellLeft>:
    6168:	00e55783          	lhu	a5,14(a0)
    616c:	02078e63          	beqz	a5,61a8 <shellLeft+0x40>
    6170:	ff010113          	addi	sp,sp,-16
    6174:	00812423          	sw	s0,8(sp)
    6178:	00050413          	mv	s0,a0
    617c:	06852503          	lw	a0,104(a0)
    6180:	00800593          	li	a1,8
    6184:	00112623          	sw	ra,12(sp)
    6188:	fe4fe0ef          	jal	496c <shellWriteByte.isra.0>
    618c:	00e45783          	lhu	a5,14(s0)
    6190:	00c12083          	lw	ra,12(sp)
    6194:	fff78793          	addi	a5,a5,-1
    6198:	00f41723          	sh	a5,14(s0)
    619c:	00812403          	lw	s0,8(sp)
    61a0:	01010113          	addi	sp,sp,16
    61a4:	00008067          	ret
    61a8:	00008067          	ret

000061ac <shellTab>:
    61ac:	00c55703          	lhu	a4,12(a0)
    61b0:	fd010113          	addi	sp,sp,-48
    61b4:	02812423          	sw	s0,40(sp)
    61b8:	02112623          	sw	ra,44(sp)
    61bc:	02912223          	sw	s1,36(sp)
    61c0:	03212023          	sw	s2,32(sp)
    61c4:	01312e23          	sw	s3,28(sp)
    61c8:	01412c23          	sw	s4,24(sp)
    61cc:	01512a23          	sw	s5,20(sp)
    61d0:	01612823          	sw	s6,16(sp)
    61d4:	01712623          	sw	s7,12(sp)
    61d8:	00050413          	mv	s0,a0
    61dc:	02071c63          	bnez	a4,6214 <shellTab+0x68>
    61e0:	dadfe0ef          	jal	4f8c <shellListCommand>
    61e4:	00040513          	mv	a0,s0
    61e8:	02812403          	lw	s0,40(sp)
    61ec:	02c12083          	lw	ra,44(sp)
    61f0:	02412483          	lw	s1,36(sp)
    61f4:	02012903          	lw	s2,32(sp)
    61f8:	01c12983          	lw	s3,28(sp)
    61fc:	01812a03          	lw	s4,24(sp)
    6200:	01412a83          	lw	s5,20(sp)
    6204:	01012b03          	lw	s6,16(sp)
    6208:	00c12b83          	lw	s7,12(sp)
    620c:	03010113          	addi	sp,sp,48
    6210:	845fe06f          	j	4a54 <shellWritePrompt.constprop.0>
    6214:	01052783          	lw	a5,16(a0)
    6218:	03455983          	lhu	s3,52(a0)
    621c:	00000a93          	li	s5,0
    6220:	00e787b3          	add	a5,a5,a4
    6224:	00078023          	sb	zero,0(a5)
    6228:	05852a03          	lw	s4,88(a0)
    622c:	00000913          	li	s2,0
    6230:	00000493          	li	s1,0
    6234:	05c45783          	lhu	a5,92(s0)
    6238:	0afac463          	blt	s5,a5,62e0 <shellTab+0x134>
    623c:	1a090463          	beqz	s2,63e4 <shellTab+0x238>
    6240:	00100793          	li	a5,1
    6244:	00f91663          	bne	s2,a5,6250 <shellTab+0xa4>
    6248:	00040513          	mv	a0,s0
    624c:	820ff0ef          	jal	526c <shellClearCommandLine>
    6250:	00449793          	slli	a5,s1,0x4
    6254:	00fa0a33          	add	s4,s4,a5
    6258:	01042a83          	lw	s5,16(s0)
    625c:	000a0513          	mv	a0,s4
    6260:	9a5fe0ef          	jal	4c04 <shellGetCommandName>
    6264:	00050593          	mv	a1,a0
    6268:	000a8513          	mv	a0,s5
    626c:	eccfe0ef          	jal	4938 <shellStringCopy>
    6270:	00a41623          	sh	a0,12(s0)
    6274:	00100793          	li	a5,1
    6278:	02f90063          	beq	s2,a5,6298 <shellTab+0xec>
    627c:	000a0593          	mv	a1,s4
    6280:	00040513          	mv	a0,s0
    6284:	b49fe0ef          	jal	4dcc <shellListItem>
    6288:	00040513          	mv	a0,s0
    628c:	fc8fe0ef          	jal	4a54 <shellWritePrompt.constprop.0>
    6290:	00098513          	mv	a0,s3
    6294:	01341623          	sh	s3,12(s0)
    6298:	01042783          	lw	a5,16(s0)
    629c:	00a787b3          	add	a5,a5,a0
    62a0:	00078023          	sb	zero,0(a5)
    62a4:	00c45783          	lhu	a5,12(s0)
    62a8:	01042583          	lw	a1,16(s0)
    62ac:	00040513          	mv	a0,s0
    62b0:	00f41723          	sh	a5,14(s0)
    62b4:	02812403          	lw	s0,40(sp)
    62b8:	02c12083          	lw	ra,44(sp)
    62bc:	02412483          	lw	s1,36(sp)
    62c0:	02012903          	lw	s2,32(sp)
    62c4:	01c12983          	lw	s3,28(sp)
    62c8:	01812a03          	lw	s4,24(sp)
    62cc:	01412a83          	lw	s5,20(sp)
    62d0:	01012b03          	lw	s6,16(sp)
    62d4:	00c12b83          	lw	s7,12(sp)
    62d8:	03010113          	addi	sp,sp,48
    62dc:	f24fe06f          	j	4a00 <shellWriteString>
    62e0:	004a9793          	slli	a5,s5,0x4
    62e4:	00fa0bb3          	add	s7,s4,a5
    62e8:	000b8593          	mv	a1,s7
    62ec:	00040513          	mv	a0,s0
    62f0:	861fe0ef          	jal	4b50 <shellCheckPermission>
    62f4:	0c051063          	bnez	a0,63b4 <shellTab+0x208>
    62f8:	000b8513          	mv	a0,s7
    62fc:	01042b03          	lw	s6,16(s0)
    6300:	905fe0ef          	jal	4c04 <shellGetCommandName>
    6304:	00000793          	li	a5,0
    6308:	00fb0733          	add	a4,s6,a5
    630c:	00074683          	lbu	a3,0(a4)
    6310:	00068a63          	beqz	a3,6324 <shellTab+0x178>
    6314:	00f50733          	add	a4,a0,a5
    6318:	00074703          	lbu	a4,0(a4)
    631c:	00070463          	beqz	a4,6324 <shellTab+0x178>
    6320:	0ae68263          	beq	a3,a4,63c4 <shellTab+0x218>
    6324:	00c45703          	lhu	a4,12(s0)
    6328:	08f71663          	bne	a4,a5,63b4 <shellTab+0x208>
    632c:	06090a63          	beqz	s2,63a0 <shellTab+0x1f4>
    6330:	00100793          	li	a5,1
    6334:	00f91a63          	bne	s2,a5,6348 <shellTab+0x19c>
    6338:	000225b7          	lui	a1,0x22
    633c:	f1058593          	addi	a1,a1,-240 # 21f10 <log_level_colors+0x1728>
    6340:	00040513          	mv	a0,s0
    6344:	ebcfe0ef          	jal	4a00 <shellWriteString>
    6348:	00449493          	slli	s1,s1,0x4
    634c:	009a05b3          	add	a1,s4,s1
    6350:	00040513          	mv	a0,s0
    6354:	a79fe0ef          	jal	4dcc <shellListItem>
    6358:	009a0533          	add	a0,s4,s1
    635c:	8a9fe0ef          	jal	4c04 <shellGetCommandName>
    6360:	00050493          	mv	s1,a0
    6364:	000b8513          	mv	a0,s7
    6368:	89dfe0ef          	jal	4c04 <shellGetCommandName>
    636c:	00000793          	li	a5,0
    6370:	00f48733          	add	a4,s1,a5
    6374:	00074683          	lbu	a3,0(a4)
    6378:	00068a63          	beqz	a3,638c <shellTab+0x1e0>
    637c:	00f50733          	add	a4,a0,a5
    6380:	00074703          	lbu	a4,0(a4)
    6384:	00070463          	beqz	a4,638c <shellTab+0x1e0>
    6388:	04e68663          	beq	a3,a4,63d4 <shellTab+0x228>
    638c:	00098713          	mv	a4,s3
    6390:	0137f463          	bgeu	a5,s3,6398 <shellTab+0x1ec>
    6394:	00078713          	mv	a4,a5
    6398:	01071993          	slli	s3,a4,0x10
    639c:	0109d993          	srli	s3,s3,0x10
    63a0:	00190913          	addi	s2,s2,1
    63a4:	010a9493          	slli	s1,s5,0x10
    63a8:	01091913          	slli	s2,s2,0x10
    63ac:	0104d493          	srli	s1,s1,0x10
    63b0:	01095913          	srli	s2,s2,0x10
    63b4:	001a8a93          	addi	s5,s5,1
    63b8:	010a9a93          	slli	s5,s5,0x10
    63bc:	410ada93          	srai	s5,s5,0x10
    63c0:	e75ff06f          	j	6234 <shellTab+0x88>
    63c4:	00178793          	addi	a5,a5,1
    63c8:	01079793          	slli	a5,a5,0x10
    63cc:	0107d793          	srli	a5,a5,0x10
    63d0:	f39ff06f          	j	6308 <shellTab+0x15c>
    63d4:	00178793          	addi	a5,a5,1
    63d8:	01079793          	slli	a5,a5,0x10
    63dc:	0107d793          	srli	a5,a5,0x10
    63e0:	f91ff06f          	j	6370 <shellTab+0x1c4>
    63e4:	02c12083          	lw	ra,44(sp)
    63e8:	02812403          	lw	s0,40(sp)
    63ec:	02412483          	lw	s1,36(sp)
    63f0:	02012903          	lw	s2,32(sp)
    63f4:	01c12983          	lw	s3,28(sp)
    63f8:	01812a03          	lw	s4,24(sp)
    63fc:	01412a83          	lw	s5,20(sp)
    6400:	01012b03          	lw	s6,16(sp)
    6404:	00c12b83          	lw	s7,12(sp)
    6408:	03010113          	addi	sp,sp,48
    640c:	00008067          	ret

00006410 <shellBackspace>:
    6410:	00100593          	li	a1,1
    6414:	864ff06f          	j	5478 <shellDeleteByte>

00006418 <shellDelete>:
    6418:	fff00593          	li	a1,-1
    641c:	85cff06f          	j	5478 <shellDeleteByte>

00006420 <shellEnter>:
    6420:	fe010113          	addi	sp,sp,-32
    6424:	00112e23          	sw	ra,28(sp)
    6428:	00a12623          	sw	a0,12(sp)
    642c:	a09ff0ef          	jal	5e34 <shellExec>
    6430:	00c12503          	lw	a0,12(sp)
    6434:	01c12083          	lw	ra,28(sp)
    6438:	02010113          	addi	sp,sp,32
    643c:	e18fe06f          	j	4a54 <shellWritePrompt.constprop.0>

00006440 <shellHelp>:
    6440:	fe010113          	addi	sp,sp,-32
    6444:	00912a23          	sw	s1,20(sp)
    6448:	00112e23          	sw	ra,28(sp)
    644c:	00812c23          	sw	s0,24(sp)
    6450:	01212823          	sw	s2,16(sp)
    6454:	00050493          	mv	s1,a0
    6458:	00b12623          	sw	a1,12(sp)
    645c:	d74fe0ef          	jal	49d0 <shellGetCurrent>
    6460:	0a050a63          	beqz	a0,6514 <shellHelp+0xd4>
    6464:	00100793          	li	a5,1
    6468:	00c12583          	lw	a1,12(sp)
    646c:	00f49e63          	bne	s1,a5,6488 <shellHelp+0x48>
    6470:	01812403          	lw	s0,24(sp)
    6474:	01c12083          	lw	ra,28(sp)
    6478:	01412483          	lw	s1,20(sp)
    647c:	01012903          	lw	s2,16(sp)
    6480:	02010113          	addi	sp,sp,32
    6484:	b09fe06f          	j	4f8c <shellListCommand>
    6488:	0897d663          	bge	a5,s1,6514 <shellHelp+0xd4>
    648c:	05852603          	lw	a2,88(a0)
    6490:	0045a583          	lw	a1,4(a1)
    6494:	00000693          	li	a3,0
    6498:	00050413          	mv	s0,a0
    649c:	a5cff0ef          	jal	56f8 <shellSeekCommand>
    64a0:	00050493          	mv	s1,a0
    64a4:	06050263          	beqz	a0,6508 <shellHelp+0xc8>
    64a8:	000225b7          	lui	a1,0x22
    64ac:	e2c58593          	addi	a1,a1,-468 # 21e2c <log_level_colors+0x1644>
    64b0:	00040513          	mv	a0,s0
    64b4:	d4cfe0ef          	jal	4a00 <shellWriteString>
    64b8:	00048513          	mv	a0,s1
    64bc:	f48fe0ef          	jal	4c04 <shellGetCommandName>
    64c0:	00050593          	mv	a1,a0
    64c4:	00040513          	mv	a0,s0
    64c8:	d38fe0ef          	jal	4a00 <shellWriteString>
    64cc:	00022937          	lui	s2,0x22
    64d0:	f1090593          	addi	a1,s2,-240 # 21f10 <log_level_colors+0x1728>
    64d4:	00040513          	mv	a0,s0
    64d8:	d28fe0ef          	jal	4a00 <shellWriteString>
    64dc:	00c4a583          	lw	a1,12(s1)
    64e0:	00040513          	mv	a0,s0
    64e4:	d1cfe0ef          	jal	4a00 <shellWriteString>
    64e8:	f1090593          	addi	a1,s2,-240
    64ec:	00040513          	mv	a0,s0
    64f0:	01812403          	lw	s0,24(sp)
    64f4:	01c12083          	lw	ra,28(sp)
    64f8:	01412483          	lw	s1,20(sp)
    64fc:	01012903          	lw	s2,16(sp)
    6500:	02010113          	addi	sp,sp,32
    6504:	cfcfe06f          	j	4a00 <shellWriteString>
    6508:	000225b7          	lui	a1,0x22
    650c:	e0458593          	addi	a1,a1,-508 # 21e04 <log_level_colors+0x161c>
    6510:	fddff06f          	j	64ec <shellHelp+0xac>
    6514:	01c12083          	lw	ra,28(sp)
    6518:	01812403          	lw	s0,24(sp)
    651c:	01412483          	lw	s1,20(sp)
    6520:	01012903          	lw	s2,16(sp)
    6524:	02010113          	addi	sp,sp,32
    6528:	00008067          	ret

0000652c <shellHandler>:
    652c:	1a058e63          	beqz	a1,66e8 <shellHandler+0x1bc>
    6530:	03852783          	lw	a5,56(a0)
    6534:	fc010113          	addi	sp,sp,-64
    6538:	02912a23          	sw	s1,52(sp)
    653c:	0087d713          	srli	a4,a5,0x8
    6540:	02112e23          	sw	ra,60(sp)
    6544:	02812c23          	sw	s0,56(sp)
    6548:	03212823          	sw	s2,48(sp)
    654c:	03312623          	sw	s3,44(sp)
    6550:	03412423          	sw	s4,40(sp)
    6554:	03512223          	sw	s5,36(sp)
    6558:	03612023          	sw	s6,32(sp)
    655c:	01712e23          	sw	s7,28(sp)
    6560:	01812c23          	sw	s8,24(sp)
    6564:	01912a23          	sw	s9,20(sp)
    6568:	01a12823          	sw	s10,16(sp)
    656c:	0ff77713          	zext.b	a4,a4
    6570:	00058493          	mv	s1,a1
    6574:	02071463          	bnez	a4,659c <shellHandler+0x70>
    6578:	00ff09b7          	lui	s3,0xff0
    657c:	0137f9b3          	and	s3,a5,s3
    6580:	08099c63          	bnez	s3,6618 <shellHandler+0xec>
    6584:	01000737          	lui	a4,0x1000
    6588:	01800a13          	li	s4,24
    658c:	00e7ec63          	bltu	a5,a4,65a4 <shellHandler+0x78>
    6590:	ff0009b7          	lui	s3,0xff000
    6594:	01000a13          	li	s4,16
    6598:	00c0006f          	j	65a4 <shellHandler+0x78>
    659c:	f0000993          	li	s3,-256
    65a0:	00000a13          	li	s4,0
    65a4:	05852c83          	lw	s9,88(a0)
    65a8:	05c55c03          	lhu	s8,92(a0)
    65ac:	00001ab7          	lui	s5,0x1
    65b0:	00001b37          	lui	s6,0x1
    65b4:	0ff00b93          	li	s7,255
    65b8:	00050413          	mv	s0,a0
    65bc:	00000913          	li	s2,0
    65c0:	f00a8a93          	addi	s5,s5,-256 # f00 <vsnprintf+0x3a8>
    65c4:	900b0b13          	addi	s6,s6,-1792 # 900 <puts_helper+0x40>
    65c8:	014b9d33          	sll	s10,s7,s4
    65cc:	05894c63          	blt	s2,s8,6624 <shellHandler+0xf8>
    65d0:	0a048863          	beqz	s1,6680 <shellHandler+0x154>
    65d4:	02042c23          	sw	zero,56(s0)
    65d8:	00040513          	mv	a0,s0
    65dc:	03812403          	lw	s0,56(sp)
    65e0:	03c12083          	lw	ra,60(sp)
    65e4:	03012903          	lw	s2,48(sp)
    65e8:	02c12983          	lw	s3,44(sp)
    65ec:	02812a03          	lw	s4,40(sp)
    65f0:	02412a83          	lw	s5,36(sp)
    65f4:	02012b03          	lw	s6,32(sp)
    65f8:	01c12b83          	lw	s7,28(sp)
    65fc:	01812c03          	lw	s8,24(sp)
    6600:	01412c83          	lw	s9,20(sp)
    6604:	01012d03          	lw	s10,16(sp)
    6608:	00048593          	mv	a1,s1
    660c:	03412483          	lw	s1,52(sp)
    6610:	04010113          	addi	sp,sp,64
    6614:	811ff06f          	j	5e24 <shellNormalInput>
    6618:	ffff09b7          	lui	s3,0xffff0
    661c:	00800a13          	li	s4,8
    6620:	f85ff06f          	j	65a4 <shellHandler+0x78>
    6624:	00491593          	slli	a1,s2,0x4
    6628:	00bc85b3          	add	a1,s9,a1
    662c:	0005a783          	lw	a5,0(a1)
    6630:	0157f7b3          	and	a5,a5,s5
    6634:	09679c63          	bne	a5,s6,66cc <shellHandler+0x1a0>
    6638:	00040513          	mv	a0,s0
    663c:	00b12623          	sw	a1,12(sp)
    6640:	d10fe0ef          	jal	4b50 <shellCheckPermission>
    6644:	08051463          	bnez	a0,66cc <shellHandler+0x1a0>
    6648:	00c12583          	lw	a1,12(sp)
    664c:	03842683          	lw	a3,56(s0)
    6650:	0045a703          	lw	a4,4(a1)
    6654:	013777b3          	and	a5,a4,s3
    6658:	06d79a63          	bne	a5,a3,66cc <shellHandler+0x1a0>
    665c:	014496b3          	sll	a3,s1,s4
    6660:	00ed7633          	and	a2,s10,a4
    6664:	06d61463          	bne	a2,a3,66cc <shellHandler+0x1a0>
    6668:	00c7e7b3          	or	a5,a5,a2
    666c:	02f42c23          	sw	a5,56(s0)
    6670:	040a1463          	bnez	s4,66b8 <shellHandler+0x18c>
    6674:	0085a783          	lw	a5,8(a1)
    6678:	06079263          	bnez	a5,66dc <shellHandler+0x1b0>
    667c:	02042c23          	sw	zero,56(s0)
    6680:	03c12083          	lw	ra,60(sp)
    6684:	03812403          	lw	s0,56(sp)
    6688:	03412483          	lw	s1,52(sp)
    668c:	03012903          	lw	s2,48(sp)
    6690:	02c12983          	lw	s3,44(sp)
    6694:	02812a03          	lw	s4,40(sp)
    6698:	02412a83          	lw	s5,36(sp)
    669c:	02012b03          	lw	s6,32(sp)
    66a0:	01c12b83          	lw	s7,28(sp)
    66a4:	01812c03          	lw	s8,24(sp)
    66a8:	01412c83          	lw	s9,20(sp)
    66ac:	01012d03          	lw	s10,16(sp)
    66b0:	04010113          	addi	sp,sp,64
    66b4:	00008067          	ret
    66b8:	ff8a0793          	addi	a5,s4,-8
    66bc:	00fb97b3          	sll	a5,s7,a5
    66c0:	00e7f7b3          	and	a5,a5,a4
    66c4:	fa0788e3          	beqz	a5,6674 <shellHandler+0x148>
    66c8:	00000493          	li	s1,0
    66cc:	00190913          	addi	s2,s2,1
    66d0:	01091913          	slli	s2,s2,0x10
    66d4:	41095913          	srai	s2,s2,0x10
    66d8:	ef5ff06f          	j	65cc <shellHandler+0xa0>
    66dc:	00040513          	mv	a0,s0
    66e0:	000780e7          	jalr	a5
    66e4:	f99ff06f          	j	667c <shellHandler+0x150>
    66e8:	00008067          	ret

000066ec <shellTask>:
    66ec:	fe010113          	addi	sp,sp,-32
    66f0:	00812c23          	sw	s0,24(sp)
    66f4:	00912a23          	sw	s1,20(sp)
    66f8:	00112e23          	sw	ra,28(sp)
    66fc:	00050493          	mv	s1,a0
    6700:	00100413          	li	s0,1
    6704:	0644a783          	lw	a5,100(s1)
    6708:	00079463          	bnez	a5,6710 <shellTask+0x24>
    670c:	0000006f          	j	670c <shellTask+0x20>
    6710:	00100593          	li	a1,1
    6714:	00f10513          	addi	a0,sp,15
    6718:	000780e7          	jalr	a5
    671c:	fe8514e3          	bne	a0,s0,6704 <shellTask+0x18>
    6720:	00f14583          	lbu	a1,15(sp)
    6724:	00048513          	mv	a0,s1
    6728:	e05ff0ef          	jal	652c <shellHandler>
    672c:	fd9ff06f          	j	6704 <shellTask+0x18>

00006730 <shellUsers>:
    6730:	ff010113          	addi	sp,sp,-16
    6734:	00112623          	sw	ra,12(sp)
    6738:	a98fe0ef          	jal	49d0 <shellGetCurrent>
    673c:	00050863          	beqz	a0,674c <shellUsers+0x1c>
    6740:	00c12083          	lw	ra,12(sp)
    6744:	01010113          	addi	sp,sp,16
    6748:	981fe06f          	j	50c8 <shellListUser>
    674c:	00c12083          	lw	ra,12(sp)
    6750:	01010113          	addi	sp,sp,16
    6754:	00008067          	ret

00006758 <shellCmds>:
    6758:	ff010113          	addi	sp,sp,-16
    675c:	00112623          	sw	ra,12(sp)
    6760:	a70fe0ef          	jal	49d0 <shellGetCurrent>
    6764:	00050863          	beqz	a0,6774 <shellCmds+0x1c>
    6768:	00c12083          	lw	ra,12(sp)
    676c:	01010113          	addi	sp,sp,16
    6770:	81dfe06f          	j	4f8c <shellListCommand>
    6774:	00c12083          	lw	ra,12(sp)
    6778:	01010113          	addi	sp,sp,16
    677c:	00008067          	ret

00006780 <shellVars>:
    6780:	ff010113          	addi	sp,sp,-16
    6784:	00112623          	sw	ra,12(sp)
    6788:	a48fe0ef          	jal	49d0 <shellGetCurrent>
    678c:	00050863          	beqz	a0,679c <shellVars+0x1c>
    6790:	00c12083          	lw	ra,12(sp)
    6794:	01010113          	addi	sp,sp,16
    6798:	891fe06f          	j	5028 <shellListVar>
    679c:	00c12083          	lw	ra,12(sp)
    67a0:	01010113          	addi	sp,sp,16
    67a4:	00008067          	ret

000067a8 <shellKeys>:
    67a8:	ff010113          	addi	sp,sp,-16
    67ac:	00112623          	sw	ra,12(sp)
    67b0:	a20fe0ef          	jal	49d0 <shellGetCurrent>
    67b4:	00050863          	beqz	a0,67c4 <shellKeys+0x1c>
    67b8:	00c12083          	lw	ra,12(sp)
    67bc:	01010113          	addi	sp,sp,16
    67c0:	9a9fe06f          	j	5168 <shellListKey>
    67c4:	00c12083          	lw	ra,12(sp)
    67c8:	01010113          	addi	sp,sp,16
    67cc:	00008067          	ret

000067d0 <shellClear>:
    67d0:	ff010113          	addi	sp,sp,-16
    67d4:	00112623          	sw	ra,12(sp)
    67d8:	9f8fe0ef          	jal	49d0 <shellGetCurrent>
    67dc:	00050c63          	beqz	a0,67f4 <shellClear+0x24>
    67e0:	00c12083          	lw	ra,12(sp)
    67e4:	000225b7          	lui	a1,0x22
    67e8:	9e458593          	addi	a1,a1,-1564 # 219e4 <log_level_colors+0x11fc>
    67ec:	01010113          	addi	sp,sp,16
    67f0:	a10fe06f          	j	4a00 <shellWriteString>
    67f4:	00c12083          	lw	ra,12(sp)
    67f8:	01010113          	addi	sp,sp,16
    67fc:	00008067          	ret

00006800 <shellRun>:
    6800:	08050e63          	beqz	a0,689c <shellRun+0x9c>
    6804:	08058c63          	beqz	a1,689c <shellRun+0x9c>
    6808:	fe010113          	addi	sp,sp,-32
    680c:	00812c23          	sw	s0,24(sp)
    6810:	00912a23          	sw	s1,20(sp)
    6814:	00050413          	mv	s0,a0
    6818:	06052483          	lw	s1,96(a0)
    681c:	00058513          	mv	a0,a1
    6820:	00b12623          	sw	a1,12(sp)
    6824:	00112e23          	sw	ra,28(sp)
    6828:	9c9f90ef          	jal	1f0 <strlen>
    682c:	03445783          	lhu	a5,52(s0)
    6830:	0014d493          	srli	s1,s1,0x1
    6834:	00c12583          	lw	a1,12(sp)
    6838:	fff78793          	addi	a5,a5,-1
    683c:	0014f493          	andi	s1,s1,1
    6840:	02a7f663          	bgeu	a5,a0,686c <shellRun+0x6c>
    6844:	000225b7          	lui	a1,0x22
    6848:	96858593          	addi	a1,a1,-1688 # 21968 <log_level_colors+0x1180>
    684c:	00040513          	mv	a0,s0
    6850:	9b0fe0ef          	jal	4a00 <shellWriteString>
    6854:	fff00513          	li	a0,-1
    6858:	01c12083          	lw	ra,28(sp)
    685c:	01812403          	lw	s0,24(sp)
    6860:	01412483          	lw	s1,20(sp)
    6864:	02010113          	addi	sp,sp,32
    6868:	00008067          	ret
    686c:	01042503          	lw	a0,16(s0)
    6870:	00149493          	slli	s1,s1,0x1
    6874:	8c4fe0ef          	jal	4938 <shellStringCopy>
    6878:	00a41623          	sh	a0,12(s0)
    687c:	00040513          	mv	a0,s0
    6880:	db4ff0ef          	jal	5e34 <shellExec>
    6884:	06044783          	lbu	a5,96(s0)
    6888:	00000513          	li	a0,0
    688c:	ffd7f793          	andi	a5,a5,-3
    6890:	0097e7b3          	or	a5,a5,s1
    6894:	06f40023          	sb	a5,96(s0)
    6898:	fc1ff06f          	j	6858 <shellRun+0x58>
    689c:	fff00513          	li	a0,-1
    68a0:	00008067          	ret

000068a4 <shellExecute>:
    68a4:	fd010113          	addi	sp,sp,-48
    68a8:	02812423          	sw	s0,40(sp)
    68ac:	02912223          	sw	s1,36(sp)
    68b0:	03212023          	sw	s2,32(sp)
    68b4:	02112623          	sw	ra,44(sp)
    68b8:	00050413          	mv	s0,a0
    68bc:	00058493          	mv	s1,a1
    68c0:	910fe0ef          	jal	49d0 <shellGetCurrent>
    68c4:	00050913          	mv	s2,a0
    68c8:	02050063          	beqz	a0,68e8 <shellExecute+0x44>
    68cc:	00242793          	slti	a5,s0,2
    68d0:	00079c63          	bnez	a5,68e8 <shellExecute+0x44>
    68d4:	0044a583          	lw	a1,4(s1)
    68d8:	00c10693          	addi	a3,sp,12
    68dc:	00000613          	li	a2,0
    68e0:	b10fd0ef          	jal	3bf0 <shellExtParsePara>
    68e4:	00050e63          	beqz	a0,6900 <shellExecute+0x5c>
    68e8:	000225b7          	lui	a1,0x22
    68ec:	e4058593          	addi	a1,a1,-448 # 21e40 <log_level_colors+0x1658>
    68f0:	00090513          	mv	a0,s2
    68f4:	90cfe0ef          	jal	4a00 <shellWriteString>
    68f8:	fff00513          	li	a0,-1
    68fc:	0340006f          	j	6930 <shellExecute+0x8c>
    6900:	000027b7          	lui	a5,0x2
    6904:	10078793          	addi	a5,a5,256 # 2100 <sfud_spi_port_init+0x40>
    6908:	00f12823          	sw	a5,16(sp)
    690c:	00c12783          	lw	a5,12(sp)
    6910:	00448693          	addi	a3,s1,4
    6914:	fff40613          	addi	a2,s0,-1
    6918:	01010593          	addi	a1,sp,16
    691c:	00090513          	mv	a0,s2
    6920:	00012a23          	sw	zero,20(sp)
    6924:	00012e23          	sw	zero,28(sp)
    6928:	00f12c23          	sw	a5,24(sp)
    692c:	d78fd0ef          	jal	3ea4 <shellExtRun>
    6930:	02c12083          	lw	ra,44(sp)
    6934:	02812403          	lw	s0,40(sp)
    6938:	02412483          	lw	s1,36(sp)
    693c:	02012903          	lw	s2,32(sp)
    6940:	03010113          	addi	sp,sp,48
    6944:	00008067          	ret

00006948 <shellCompanionAdd>:
    6948:	00100793          	li	a5,1
    694c:	02f59863          	bne	a1,a5,697c <shellCompanionAdd+0x34>
    6950:	30000537          	lui	a0,0x30000
    6954:	ff010113          	addi	sp,sp,-16
    6958:	00060593          	mv	a1,a2
    695c:	22450513          	addi	a0,a0,548 # 30000224 <shellfs>
    6960:	01800613          	li	a2,24
    6964:	00112623          	sw	ra,12(sp)
    6968:	849f90ef          	jal	1b0 <memcpy>
    696c:	00c12083          	lw	ra,12(sp)
    6970:	00000513          	li	a0,0
    6974:	01010113          	addi	sp,sp,16
    6978:	00008067          	ret
    697c:	00000513          	li	a0,0
    6980:	00008067          	ret

00006984 <shellCompanionDel>:
    6984:	00100793          	li	a5,1
    6988:	02f59263          	bne	a1,a5,69ac <shellCompanionDel+0x28>
    698c:	30000537          	lui	a0,0x30000
    6990:	ff010113          	addi	sp,sp,-16
    6994:	01800613          	li	a2,24
    6998:	00000593          	li	a1,0
    699c:	22450513          	addi	a0,a0,548 # 30000224 <shellfs>
    69a0:	00112623          	sw	ra,12(sp)
    69a4:	80df90ef          	jal	1b0 <memcpy>
    69a8:	00100073          	ebreak
    69ac:	fff00513          	li	a0,-1
    69b0:	00008067          	ret

000069b4 <shellCompanionGet>:
    69b4:	00100793          	li	a5,1
    69b8:	00000513          	li	a0,0
    69bc:	00f59663          	bne	a1,a5,69c8 <shellCompanionGet+0x14>
    69c0:	30000537          	lui	a0,0x30000
    69c4:	22450513          	addi	a0,a0,548 # 30000224 <shellfs>
    69c8:	00008067          	ret

000069cc <MYSPI_Init>:
    69cc:	ff010113          	addi	sp,sp,-16
    69d0:	00000593          	li	a1,0
    69d4:	00000513          	li	a0,0
    69d8:	00112623          	sw	ra,12(sp)
    69dc:	d08fb0ef          	jal	1ee4 <gpio_hal_output_enable>
    69e0:	00100593          	li	a1,1
    69e4:	00000513          	li	a0,0
    69e8:	cfcfb0ef          	jal	1ee4 <gpio_hal_output_enable>
    69ec:	00200593          	li	a1,2
    69f0:	00000513          	li	a0,0
    69f4:	cf0fb0ef          	jal	1ee4 <gpio_hal_output_enable>
    69f8:	00300593          	li	a1,3
    69fc:	00000513          	li	a0,0
    6a00:	cc8fb0ef          	jal	1ec8 <gpio_hal_input_enable>
    6a04:	00100613          	li	a2,1
    6a08:	00000593          	li	a1,0
    6a0c:	00000513          	li	a0,0
    6a10:	cf4fb0ef          	jal	1f04 <gpio_hal_set_level>
    6a14:	00000613          	li	a2,0
    6a18:	00100593          	li	a1,1
    6a1c:	00000513          	li	a0,0
    6a20:	ce4fb0ef          	jal	1f04 <gpio_hal_set_level>
    6a24:	00c12083          	lw	ra,12(sp)
    6a28:	01010113          	addi	sp,sp,16
    6a2c:	d60fb06f          	j	1f8c <gpio_hal_write_update>

00006a30 <MYSPI_Start>:
    6a30:	ff010113          	addi	sp,sp,-16
    6a34:	00000613          	li	a2,0
    6a38:	00000593          	li	a1,0
    6a3c:	00000513          	li	a0,0
    6a40:	00112623          	sw	ra,12(sp)
    6a44:	cc0fb0ef          	jal	1f04 <gpio_hal_set_level>
    6a48:	00c12083          	lw	ra,12(sp)
    6a4c:	01010113          	addi	sp,sp,16
    6a50:	d3cfb06f          	j	1f8c <gpio_hal_write_update>

00006a54 <MYSPI_Stop>:
    6a54:	ff010113          	addi	sp,sp,-16
    6a58:	00100613          	li	a2,1
    6a5c:	00000593          	li	a1,0
    6a60:	00000513          	li	a0,0
    6a64:	00112623          	sw	ra,12(sp)
    6a68:	c9cfb0ef          	jal	1f04 <gpio_hal_set_level>
    6a6c:	00c12083          	lw	ra,12(sp)
    6a70:	01010113          	addi	sp,sp,16
    6a74:	d18fb06f          	j	1f8c <gpio_hal_write_update>

00006a78 <MYSPI_SwapByte>:
    6a78:	fe010113          	addi	sp,sp,-32
    6a7c:	00812c23          	sw	s0,24(sp)
    6a80:	00912a23          	sw	s1,20(sp)
    6a84:	01212823          	sw	s2,16(sp)
    6a88:	01312623          	sw	s3,12(sp)
    6a8c:	01412423          	sw	s4,8(sp)
    6a90:	01512223          	sw	s5,4(sp)
    6a94:	01612023          	sw	s6,0(sp)
    6a98:	00112e23          	sw	ra,28(sp)
    6a9c:	00050b13          	mv	s6,a0
    6aa0:	00000493          	li	s1,0
    6aa4:	00000413          	li	s0,0
    6aa8:	00700993          	li	s3,7
    6aac:	00100a13          	li	s4,1
    6ab0:	08000a93          	li	s5,128
    6ab4:	00800913          	li	s2,8
    6ab8:	40998633          	sub	a2,s3,s1
    6abc:	40cb5633          	sra	a2,s6,a2
    6ac0:	00167613          	andi	a2,a2,1
    6ac4:	00200593          	li	a1,2
    6ac8:	00000513          	li	a0,0
    6acc:	c38fb0ef          	jal	1f04 <gpio_hal_set_level>
    6ad0:	cbcfb0ef          	jal	1f8c <gpio_hal_write_update>
    6ad4:	00100613          	li	a2,1
    6ad8:	00060593          	mv	a1,a2
    6adc:	00000513          	li	a0,0
    6ae0:	c24fb0ef          	jal	1f04 <gpio_hal_set_level>
    6ae4:	ca8fb0ef          	jal	1f8c <gpio_hal_write_update>
    6ae8:	c88fb0ef          	jal	1f70 <gpio_hal_read_update>
    6aec:	00300593          	li	a1,3
    6af0:	00000513          	li	a0,0
    6af4:	c40fb0ef          	jal	1f34 <gpio_hal_get_level>
    6af8:	01451863          	bne	a0,s4,6b08 <MYSPI_SwapByte+0x90>
    6afc:	409ad7b3          	sra	a5,s5,s1
    6b00:	00f46433          	or	s0,s0,a5
    6b04:	0ff47413          	zext.b	s0,s0
    6b08:	00000613          	li	a2,0
    6b0c:	00100593          	li	a1,1
    6b10:	00000513          	li	a0,0
    6b14:	00148493          	addi	s1,s1,1
    6b18:	becfb0ef          	jal	1f04 <gpio_hal_set_level>
    6b1c:	f9249ee3          	bne	s1,s2,6ab8 <MYSPI_SwapByte+0x40>
    6b20:	c6cfb0ef          	jal	1f8c <gpio_hal_write_update>
    6b24:	01c12083          	lw	ra,28(sp)
    6b28:	00040513          	mv	a0,s0
    6b2c:	01812403          	lw	s0,24(sp)
    6b30:	01412483          	lw	s1,20(sp)
    6b34:	01012903          	lw	s2,16(sp)
    6b38:	00c12983          	lw	s3,12(sp)
    6b3c:	00812a03          	lw	s4,8(sp)
    6b40:	00412a83          	lw	s5,4(sp)
    6b44:	00012b03          	lw	s6,0(sp)
    6b48:	02010113          	addi	sp,sp,32
    6b4c:	00008067          	ret

00006b50 <ff_uni2oem>:
    6b50:	07f00793          	li	a5,127
    6b54:	00050693          	mv	a3,a0
    6b58:	00a7e863          	bltu	a5,a0,6b68 <ff_uni2oem+0x18>
    6b5c:	01051513          	slli	a0,a0,0x10
    6b60:	01055513          	srli	a0,a0,0x10
    6b64:	00008067          	ret
    6b68:	000107b7          	lui	a5,0x10
    6b6c:	00000513          	li	a0,0
    6b70:	06f6fa63          	bgeu	a3,a5,6be4 <ff_uni2oem+0x94>
    6b74:	3b600793          	li	a5,950
    6b78:	06f59663          	bne	a1,a5,6be4 <ff_uni2oem+0x94>
    6b7c:	01069713          	slli	a4,a3,0x10
    6b80:	01875793          	srli	a5,a4,0x18
    6b84:	0fa00613          	li	a2,250
    6b88:	0ff7f713          	zext.b	a4,a5
    6b8c:	04f67663          	bgeu	a2,a5,6bd8 <ff_uni2oem+0x88>
    6b90:	0fd00613          	li	a2,253
    6b94:	04f67863          	bgeu	a2,a5,6be4 <ff_uni2oem+0x94>
    6b98:	ffd70793          	addi	a5,a4,-3 # fffffd <_etext+0xfddc39>
    6b9c:	fa678713          	addi	a4,a5,-90 # ffa6 <oem2uni950+0x26f2>
    6ba0:	fe670713          	addi	a4,a4,-26
    6ba4:	ff770713          	addi	a4,a4,-9
    6ba8:	ffe70713          	addi	a4,a4,-2
    6bac:	fe470713          	addi	a4,a4,-28
    6bb0:	0ff77713          	zext.b	a4,a4
    6bb4:	0ff6f693          	zext.b	a3,a3
    6bb8:	00871713          	slli	a4,a4,0x8
    6bbc:	000147b7          	lui	a5,0x14
    6bc0:	00e6e6b3          	or	a3,a3,a4
    6bc4:	00169693          	slli	a3,a3,0x1
    6bc8:	36c78793          	addi	a5,a5,876 # 1436c <uni2oem950>
    6bcc:	00d787b3          	add	a5,a5,a3
    6bd0:	0007d503          	lhu	a0,0(a5)
    6bd4:	00008067          	ret
    6bd8:	09f00593          	li	a1,159
    6bdc:	00f5f663          	bgeu	a1,a5,6be8 <ff_uni2oem+0x98>
    6be0:	fac78ee3          	beq	a5,a2,6b9c <ff_uni2oem+0x4c>
    6be4:	00008067          	ret
    6be8:	03300613          	li	a2,51
    6bec:	00f67863          	bgeu	a2,a5,6bfc <ff_uni2oem+0xac>
    6bf0:	04d00613          	li	a2,77
    6bf4:	fef678e3          	bgeu	a2,a5,6be4 <ff_uni2oem+0x94>
    6bf8:	fa9ff06f          	j	6ba0 <ff_uni2oem+0x50>
    6bfc:	02600613          	li	a2,38
    6c00:	00f67863          	bgeu	a2,a5,6c10 <ff_uni2oem+0xc0>
    6c04:	02f00613          	li	a2,47
    6c08:	fcf67ee3          	bgeu	a2,a5,6be4 <ff_uni2oem+0x94>
    6c0c:	f99ff06f          	j	6ba4 <ff_uni2oem+0x54>
    6c10:	02200613          	li	a2,34
    6c14:	00f67863          	bgeu	a2,a5,6c24 <ff_uni2oem+0xd4>
    6c18:	02400613          	li	a2,36
    6c1c:	fcf674e3          	bgeu	a2,a5,6be4 <ff_uni2oem+0x94>
    6c20:	f89ff06f          	j	6ba8 <ff_uni2oem+0x58>
    6c24:	00300613          	li	a2,3
    6c28:	f8f676e3          	bgeu	a2,a5,6bb4 <ff_uni2oem+0x64>
    6c2c:	01f00613          	li	a2,31
    6c30:	faf67ae3          	bgeu	a2,a5,6be4 <ff_uni2oem+0x94>
    6c34:	f79ff06f          	j	6bac <ff_uni2oem+0x5c>

00006c38 <ff_oem2uni>:
    6c38:	07f00793          	li	a5,127
    6c3c:	08a7f863          	bgeu	a5,a0,6ccc <ff_oem2uni+0x94>
    6c40:	3b600793          	li	a5,950
    6c44:	08f59263          	bne	a1,a5,6cc8 <ff_oem2uni+0x90>
    6c48:	00855713          	srli	a4,a0,0x8
    6c4c:	0c600693          	li	a3,198
    6c50:	00070793          	mv	a5,a4
    6c54:	00e6f863          	bgeu	a3,a4,6c64 <ff_oem2uni+0x2c>
    6c58:	0c800693          	li	a3,200
    6c5c:	06e6f663          	bgeu	a3,a4,6cc8 <ff_oem2uni+0x90>
    6c60:	ffe70793          	addi	a5,a4,-2
    6c64:	05f78793          	addi	a5,a5,95
    6c68:	0ff7f793          	zext.b	a5,a5
    6c6c:	05600713          	li	a4,86
    6c70:	04f76c63          	bltu	a4,a5,6cc8 <ff_oem2uni+0x90>
    6c74:	0ff57713          	zext.b	a4,a0
    6c78:	07e00693          	li	a3,126
    6c7c:	00e6fa63          	bgeu	a3,a4,6c90 <ff_oem2uni+0x58>
    6c80:	0a000693          	li	a3,160
    6c84:	00000513          	li	a0,0
    6c88:	04e6f263          	bgeu	a3,a4,6ccc <ff_oem2uni+0x94>
    6c8c:	fde70713          	addi	a4,a4,-34
    6c90:	fc070713          	addi	a4,a4,-64
    6c94:	0ff77713          	zext.b	a4,a4
    6c98:	09c00693          	li	a3,156
    6c9c:	00000513          	li	a0,0
    6ca0:	02e6e663          	bltu	a3,a4,6ccc <ff_oem2uni+0x94>
    6ca4:	09d00613          	li	a2,157
    6ca8:	02c787b3          	mul	a5,a5,a2
    6cac:	0000e6b7          	lui	a3,0xe
    6cb0:	00e787b3          	add	a5,a5,a4
    6cb4:	00179793          	slli	a5,a5,0x1
    6cb8:	8b468713          	addi	a4,a3,-1868 # d8b4 <oem2uni950>
    6cbc:	00f707b3          	add	a5,a4,a5
    6cc0:	0007d503          	lhu	a0,0(a5)
    6cc4:	00008067          	ret
    6cc8:	00000513          	li	a0,0
    6ccc:	00008067          	ret

00006cd0 <ff_wtoupper>:
    6cd0:	000107b7          	lui	a5,0x10
    6cd4:	08f57063          	bgeu	a0,a5,6d54 <ff_wtoupper+0x84>
    6cd8:	01051793          	slli	a5,a0,0x10
    6cdc:	0000d737          	lui	a4,0xd
    6ce0:	0107d793          	srli	a5,a5,0x10
    6ce4:	000016b7          	lui	a3,0x1
    6ce8:	60470713          	addi	a4,a4,1540 # d604 <cvt2.0>
    6cec:	00d7f463          	bgeu	a5,a3,6cf4 <ff_wtoupper+0x24>
    6cf0:	0bc70713          	addi	a4,a4,188
    6cf4:	00075683          	lhu	a3,0(a4)
    6cf8:	fff68613          	addi	a2,a3,-1 # fff <hal_sys_putchar+0x3>
    6cfc:	01061613          	slli	a2,a2,0x10
    6d00:	01065613          	srli	a2,a2,0x10
    6d04:	04f67663          	bgeu	a2,a5,6d50 <ff_wtoupper+0x80>
    6d08:	00275603          	lhu	a2,2(a4)
    6d0c:	00470713          	addi	a4,a4,4
    6d10:	00865593          	srli	a1,a2,0x8
    6d14:	0ff67613          	zext.b	a2,a2
    6d18:	00d60833          	add	a6,a2,a3
    6d1c:	09055a63          	bge	a0,a6,6db0 <ff_wtoupper+0xe0>
    6d20:	00800613          	li	a2,8
    6d24:	02b66663          	bltu	a2,a1,6d50 <ff_wtoupper+0x80>
    6d28:	0000d637          	lui	a2,0xd
    6d2c:	5e060613          	addi	a2,a2,1504 # d5e0 <shellCommandList+0x220>
    6d30:	00259593          	slli	a1,a1,0x2
    6d34:	00c585b3          	add	a1,a1,a2
    6d38:	0005a603          	lw	a2,0(a1)
    6d3c:	00060067          	jr	a2
    6d40:	40d50533          	sub	a0,a0,a3
    6d44:	00151513          	slli	a0,a0,0x1
    6d48:	00a70733          	add	a4,a4,a0
    6d4c:	00075783          	lhu	a5,0(a4)
    6d50:	00078513          	mv	a0,a5
    6d54:	00008067          	ret
    6d58:	40d786b3          	sub	a3,a5,a3
    6d5c:	0016f693          	andi	a3,a3,1
    6d60:	40d787b3          	sub	a5,a5,a3
    6d64:	01079793          	slli	a5,a5,0x10
    6d68:	0107d793          	srli	a5,a5,0x10
    6d6c:	fe5ff06f          	j	6d50 <ff_wtoupper+0x80>
    6d70:	ff078793          	addi	a5,a5,-16 # fff0 <oem2uni950+0x273c>
    6d74:	ff1ff06f          	j	6d64 <ff_wtoupper+0x94>
    6d78:	fe078793          	addi	a5,a5,-32
    6d7c:	fe9ff06f          	j	6d64 <ff_wtoupper+0x94>
    6d80:	fd078793          	addi	a5,a5,-48
    6d84:	fe1ff06f          	j	6d64 <ff_wtoupper+0x94>
    6d88:	fe678793          	addi	a5,a5,-26
    6d8c:	fd9ff06f          	j	6d64 <ff_wtoupper+0x94>
    6d90:	00878793          	addi	a5,a5,8
    6d94:	fd1ff06f          	j	6d64 <ff_wtoupper+0x94>
    6d98:	fb078793          	addi	a5,a5,-80
    6d9c:	fc9ff06f          	j	6d64 <ff_wtoupper+0x94>
    6da0:	ffffe737          	lui	a4,0xffffe
    6da4:	3a070713          	addi	a4,a4,928 # ffffe3a0 <_stack_point+0xcffde3a0>
    6da8:	00e787b3          	add	a5,a5,a4
    6dac:	fb9ff06f          	j	6d64 <ff_wtoupper+0x94>
    6db0:	f40592e3          	bnez	a1,6cf4 <ff_wtoupper+0x24>
    6db4:	00161613          	slli	a2,a2,0x1
    6db8:	00c70733          	add	a4,a4,a2
    6dbc:	f39ff06f          	j	6cf4 <ff_wtoupper+0x24>

00006dc0 <disk_status>:
    6dc0:	fd010113          	addi	sp,sp,-48
    6dc4:	02812423          	sw	s0,40(sp)
    6dc8:	000226b7          	lui	a3,0x22
    6dcc:	00022437          	lui	s0,0x22
    6dd0:	02912223          	sw	s1,36(sp)
    6dd4:	e5468693          	addi	a3,a3,-428 # 21e54 <log_level_colors+0x166c>
    6dd8:	00050493          	mv	s1,a0
    6ddc:	01d00613          	li	a2,29
    6de0:	e7840593          	addi	a1,s0,-392 # 21e78 <log_level_colors+0x1690>
    6de4:	00000513          	li	a0,0
    6de8:	02112623          	sw	ra,44(sp)
    6dec:	2e4050ef          	jal	c0d0 <log_print>
    6df0:	00100713          	li	a4,1
    6df4:	02049063          	bnez	s1,6e14 <disk_status+0x54>
    6df8:	3000f7b7          	lui	a5,0x3000f
    6dfc:	3787a503          	lw	a0,888(a5) # 3000f378 <flash>
    6e00:	01f10593          	addi	a1,sp,31
    6e04:	00010fa3          	sb	zero,31(sp)
    6e08:	b70fb0ef          	jal	2178 <sfud_read_status>
    6e0c:	01f14703          	lbu	a4,31(sp)
    6e10:	00177713          	andi	a4,a4,1
    6e14:	000226b7          	lui	a3,0x22
    6e18:	e7840593          	addi	a1,s0,-392
    6e1c:	00000513          	li	a0,0
    6e20:	e9468693          	addi	a3,a3,-364 # 21e94 <log_level_colors+0x16ac>
    6e24:	02700613          	li	a2,39
    6e28:	00e12623          	sw	a4,12(sp)
    6e2c:	2a4050ef          	jal	c0d0 <log_print>
    6e30:	02c12083          	lw	ra,44(sp)
    6e34:	02812403          	lw	s0,40(sp)
    6e38:	00c12503          	lw	a0,12(sp)
    6e3c:	02412483          	lw	s1,36(sp)
    6e40:	03010113          	addi	sp,sp,48
    6e44:	00008067          	ret

00006e48 <disk_initialize>:
    6e48:	fe010113          	addi	sp,sp,-32
    6e4c:	00812c23          	sw	s0,24(sp)
    6e50:	000226b7          	lui	a3,0x22
    6e54:	00022437          	lui	s0,0x22
    6e58:	00912a23          	sw	s1,20(sp)
    6e5c:	eb468693          	addi	a3,a3,-332 # 21eb4 <log_level_colors+0x16cc>
    6e60:	00050493          	mv	s1,a0
    6e64:	03600613          	li	a2,54
    6e68:	e7840593          	addi	a1,s0,-392 # 21e78 <log_level_colors+0x1690>
    6e6c:	00000513          	li	a0,0
    6e70:	00112e23          	sw	ra,28(sp)
    6e74:	25c050ef          	jal	c0d0 <log_print>
    6e78:	02048e63          	beqz	s1,6eb4 <disk_initialize+0x6c>
    6e7c:	00100713          	li	a4,1
    6e80:	000226b7          	lui	a3,0x22
    6e84:	e7840593          	addi	a1,s0,-392
    6e88:	00000513          	li	a0,0
    6e8c:	ed468693          	addi	a3,a3,-300 # 21ed4 <log_level_colors+0x16ec>
    6e90:	03f00613          	li	a2,63
    6e94:	00e12623          	sw	a4,12(sp)
    6e98:	238050ef          	jal	c0d0 <log_print>
    6e9c:	01c12083          	lw	ra,28(sp)
    6ea0:	01812403          	lw	s0,24(sp)
    6ea4:	00c12503          	lw	a0,12(sp)
    6ea8:	01412483          	lw	s1,20(sp)
    6eac:	02010113          	addi	sp,sp,32
    6eb0:	00008067          	ret
    6eb4:	ab8fb0ef          	jal	216c <sfud_get_device_table>
    6eb8:	3000f7b7          	lui	a5,0x3000f
    6ebc:	36a7ac23          	sw	a0,888(a5) # 3000f378 <flash>
    6ec0:	cf8fc0ef          	jal	33b8 <sfud_init>
    6ec4:	fa051ce3          	bnez	a0,6e7c <disk_initialize+0x34>
    6ec8:	ef9ff0ef          	jal	6dc0 <disk_status>
    6ecc:	00050713          	mv	a4,a0
    6ed0:	fb1ff06f          	j	6e80 <disk_initialize+0x38>

00006ed4 <disk_read>:
    6ed4:	fd010113          	addi	sp,sp,-48
    6ed8:	02812423          	sw	s0,40(sp)
    6edc:	01412c23          	sw	s4,24(sp)
    6ee0:	00022437          	lui	s0,0x22
    6ee4:	00068a13          	mv	s4,a3
    6ee8:	000226b7          	lui	a3,0x22
    6eec:	02912223          	sw	s1,36(sp)
    6ef0:	03212023          	sw	s2,32(sp)
    6ef4:	01312e23          	sw	s3,28(sp)
    6ef8:	00050493          	mv	s1,a0
    6efc:	00058913          	mv	s2,a1
    6f00:	00060993          	mv	s3,a2
    6f04:	ef468693          	addi	a3,a3,-268 # 21ef4 <log_level_colors+0x170c>
    6f08:	05100613          	li	a2,81
    6f0c:	e7840593          	addi	a1,s0,-392 # 21e78 <log_level_colors+0x1690>
    6f10:	00000513          	li	a0,0
    6f14:	02112623          	sw	ra,44(sp)
    6f18:	1b8050ef          	jal	c0d0 <log_print>
    6f1c:	00400713          	li	a4,4
    6f20:	02049063          	bnez	s1,6f40 <disk_read+0x6c>
    6f24:	3000f7b7          	lui	a5,0x3000f
    6f28:	3787a503          	lw	a0,888(a5) # 3000f378 <flash>
    6f2c:	00090693          	mv	a3,s2
    6f30:	00ca1613          	slli	a2,s4,0xc
    6f34:	00c99593          	slli	a1,s3,0xc
    6f38:	b6cfb0ef          	jal	22a4 <sfud_read>
    6f3c:	00a03733          	snez	a4,a0
    6f40:	000226b7          	lui	a3,0x22
    6f44:	e7840593          	addi	a1,s0,-392
    6f48:	00000513          	li	a0,0
    6f4c:	f1468693          	addi	a3,a3,-236 # 21f14 <log_level_colors+0x172c>
    6f50:	05d00613          	li	a2,93
    6f54:	00e12623          	sw	a4,12(sp)
    6f58:	178050ef          	jal	c0d0 <log_print>
    6f5c:	02c12083          	lw	ra,44(sp)
    6f60:	02812403          	lw	s0,40(sp)
    6f64:	00c12503          	lw	a0,12(sp)
    6f68:	02412483          	lw	s1,36(sp)
    6f6c:	02012903          	lw	s2,32(sp)
    6f70:	01c12983          	lw	s3,28(sp)
    6f74:	01812a03          	lw	s4,24(sp)
    6f78:	03010113          	addi	sp,sp,48
    6f7c:	00008067          	ret

00006f80 <disk_write>:
    6f80:	fd010113          	addi	sp,sp,-48
    6f84:	02812423          	sw	s0,40(sp)
    6f88:	01412c23          	sw	s4,24(sp)
    6f8c:	00022437          	lui	s0,0x22
    6f90:	00068a13          	mv	s4,a3
    6f94:	000226b7          	lui	a3,0x22
    6f98:	02912223          	sw	s1,36(sp)
    6f9c:	03212023          	sw	s2,32(sp)
    6fa0:	01312e23          	sw	s3,28(sp)
    6fa4:	00050493          	mv	s1,a0
    6fa8:	00058913          	mv	s2,a1
    6fac:	00060993          	mv	s3,a2
    6fb0:	f3468693          	addi	a3,a3,-204 # 21f34 <log_level_colors+0x174c>
    6fb4:	07100613          	li	a2,113
    6fb8:	e7840593          	addi	a1,s0,-392 # 21e78 <log_level_colors+0x1690>
    6fbc:	00000513          	li	a0,0
    6fc0:	02112623          	sw	ra,44(sp)
    6fc4:	10c050ef          	jal	c0d0 <log_print>
    6fc8:	00400713          	li	a4,4
    6fcc:	02049063          	bnez	s1,6fec <disk_write+0x6c>
    6fd0:	3000f7b7          	lui	a5,0x3000f
    6fd4:	3787a503          	lw	a0,888(a5) # 3000f378 <flash>
    6fd8:	00090693          	mv	a3,s2
    6fdc:	00ca1613          	slli	a2,s4,0xc
    6fe0:	00c99593          	slli	a1,s3,0xc
    6fe4:	db1fb0ef          	jal	2d94 <sfud_erase_write>
    6fe8:	00a03733          	snez	a4,a0
    6fec:	000226b7          	lui	a3,0x22
    6ff0:	e7840593          	addi	a1,s0,-392
    6ff4:	00000513          	li	a0,0
    6ff8:	f5468693          	addi	a3,a3,-172 # 21f54 <log_level_colors+0x176c>
    6ffc:	07c00613          	li	a2,124
    7000:	00e12623          	sw	a4,12(sp)
    7004:	0cc050ef          	jal	c0d0 <log_print>
    7008:	02c12083          	lw	ra,44(sp)
    700c:	02812403          	lw	s0,40(sp)
    7010:	00c12503          	lw	a0,12(sp)
    7014:	02412483          	lw	s1,36(sp)
    7018:	02012903          	lw	s2,32(sp)
    701c:	01c12983          	lw	s3,28(sp)
    7020:	01812a03          	lw	s4,24(sp)
    7024:	03010113          	addi	sp,sp,48
    7028:	00008067          	ret

0000702c <disk_ioctl>:
    702c:	00400793          	li	a5,4
    7030:	00078513          	mv	a0,a5
    7034:	04b7e263          	bltu	a5,a1,7078 <disk_ioctl+0x4c>
    7038:	000207b7          	lui	a5,0x20
    703c:	77078793          	addi	a5,a5,1904 # 20770 <uni2oem950+0xc404>
    7040:	00259593          	slli	a1,a1,0x2
    7044:	00f585b3          	add	a1,a1,a5
    7048:	0005a783          	lw	a5,0(a1)
    704c:	00078067          	jr	a5
    7050:	000017b7          	lui	a5,0x1
    7054:	80078793          	addi	a5,a5,-2048 # 800 <itoa_decimal+0x100>
    7058:	00f62023          	sw	a5,0(a2)
    705c:	00000513          	li	a0,0
    7060:	00008067          	ret
    7064:	000017b7          	lui	a5,0x1
    7068:	00f61023          	sh	a5,0(a2)
    706c:	ff1ff06f          	j	705c <disk_ioctl+0x30>
    7070:	00100793          	li	a5,1
    7074:	fe5ff06f          	j	7058 <disk_ioctl+0x2c>
    7078:	00008067          	ret

0000707c <ld_32>:
    707c:	00154703          	lbu	a4,1(a0)
    7080:	00054783          	lbu	a5,0(a0)
    7084:	00871713          	slli	a4,a4,0x8
    7088:	00f76733          	or	a4,a4,a5
    708c:	00254783          	lbu	a5,2(a0)
    7090:	00354503          	lbu	a0,3(a0)
    7094:	01079793          	slli	a5,a5,0x10
    7098:	00e7e7b3          	or	a5,a5,a4
    709c:	01851513          	slli	a0,a0,0x18
    70a0:	00f56533          	or	a0,a0,a5
    70a4:	00008067          	ret

000070a8 <st_32>:
    70a8:	0085d793          	srli	a5,a1,0x8
    70ac:	00b50023          	sb	a1,0(a0)
    70b0:	00f500a3          	sb	a5,1(a0)
    70b4:	0105d793          	srli	a5,a1,0x10
    70b8:	0185d593          	srli	a1,a1,0x18
    70bc:	00f50123          	sb	a5,2(a0)
    70c0:	00b501a3          	sb	a1,3(a0)
    70c4:	00008067          	ret

000070c8 <clst2sect>:
    70c8:	01c52783          	lw	a5,28(a0)
    70cc:	ffe58593          	addi	a1,a1,-2
    70d0:	ffe78793          	addi	a5,a5,-2 # ffe <hal_sys_putchar+0x2>
    70d4:	00f5fc63          	bgeu	a1,a5,70ec <clst2sect+0x24>
    70d8:	00a55783          	lhu	a5,10(a0)
    70dc:	03452703          	lw	a4,52(a0)
    70e0:	02b787b3          	mul	a5,a5,a1
    70e4:	00e78533          	add	a0,a5,a4
    70e8:	00008067          	ret
    70ec:	00000513          	li	a0,0
    70f0:	00008067          	ret

000070f4 <sum_sfn>:
    70f4:	00050793          	mv	a5,a0
    70f8:	00b50693          	addi	a3,a0,11
    70fc:	00000513          	li	a0,0
    7100:	0007c603          	lbu	a2,0(a5)
    7104:	00155713          	srli	a4,a0,0x1
    7108:	00751513          	slli	a0,a0,0x7
    710c:	00a70733          	add	a4,a4,a0
    7110:	00178793          	addi	a5,a5,1
    7114:	00c70733          	add	a4,a4,a2
    7118:	0ff77513          	zext.b	a0,a4
    711c:	fed792e3          	bne	a5,a3,7100 <sum_sfn+0xc>
    7120:	00008067          	ret

00007124 <get_ldnumber>:
    7124:	00052783          	lw	a5,0(a0)
    7128:	fff00713          	li	a4,-1
    712c:	04078063          	beqz	a5,716c <get_ldnumber+0x48>
    7130:	00078693          	mv	a3,a5
    7134:	01f00593          	li	a1,31
    7138:	03a00613          	li	a2,58
    713c:	0006c703          	lbu	a4,0(a3)
    7140:	00168693          	addi	a3,a3,1
    7144:	02e5f863          	bgeu	a1,a4,7174 <get_ldnumber+0x50>
    7148:	fec71ae3          	bne	a4,a2,713c <get_ldnumber+0x18>
    714c:	0007c583          	lbu	a1,0(a5)
    7150:	03000613          	li	a2,48
    7154:	fff00713          	li	a4,-1
    7158:	00c59a63          	bne	a1,a2,716c <get_ldnumber+0x48>
    715c:	00278793          	addi	a5,a5,2
    7160:	00f69663          	bne	a3,a5,716c <get_ldnumber+0x48>
    7164:	00d52023          	sw	a3,0(a0)
    7168:	00000713          	li	a4,0
    716c:	00070513          	mv	a0,a4
    7170:	00008067          	ret
    7174:	3000f7b7          	lui	a5,0x3000f
    7178:	37c7c703          	lbu	a4,892(a5) # 3000f37c <CurrVol>
    717c:	ff1ff06f          	j	716c <get_ldnumber+0x48>

00007180 <validate>:
    7180:	02051863          	bnez	a0,71b0 <validate+0x30>
    7184:	00000793          	li	a5,0
    7188:	00900513          	li	a0,9
    718c:	00f5a023          	sw	a5,0(a1)
    7190:	00008067          	ret
    7194:	00900513          	li	a0,9
    7198:	00000793          	li	a5,0
    719c:	01c12083          	lw	ra,28(sp)
    71a0:	01812403          	lw	s0,24(sp)
    71a4:	00f5a023          	sw	a5,0(a1)
    71a8:	02010113          	addi	sp,sp,32
    71ac:	00008067          	ret
    71b0:	00052783          	lw	a5,0(a0)
    71b4:	fe010113          	addi	sp,sp,-32
    71b8:	00812c23          	sw	s0,24(sp)
    71bc:	00112e23          	sw	ra,28(sp)
    71c0:	00050413          	mv	s0,a0
    71c4:	fc0788e3          	beqz	a5,7194 <validate+0x14>
    71c8:	0007c703          	lbu	a4,0(a5)
    71cc:	fc0704e3          	beqz	a4,7194 <validate+0x14>
    71d0:	00455683          	lhu	a3,4(a0)
    71d4:	0067d703          	lhu	a4,6(a5)
    71d8:	fae69ee3          	bne	a3,a4,7194 <validate+0x14>
    71dc:	0017c503          	lbu	a0,1(a5)
    71e0:	00b12623          	sw	a1,12(sp)
    71e4:	bddff0ef          	jal	6dc0 <disk_status>
    71e8:	00157513          	andi	a0,a0,1
    71ec:	00c12583          	lw	a1,12(sp)
    71f0:	fa0512e3          	bnez	a0,7194 <validate+0x14>
    71f4:	00042783          	lw	a5,0(s0)
    71f8:	fa5ff06f          	j	719c <validate+0x1c>

000071fc <sync_window>:
    71fc:	00454783          	lbu	a5,4(a0)
    7200:	08078063          	beqz	a5,7280 <sync_window+0x84>
    7204:	fe010113          	addi	sp,sp,-32
    7208:	00812c23          	sw	s0,24(sp)
    720c:	00112e23          	sw	ra,28(sp)
    7210:	03850593          	addi	a1,a0,56
    7214:	02452603          	lw	a2,36(a0)
    7218:	00050413          	mv	s0,a0
    721c:	00154503          	lbu	a0,1(a0)
    7220:	00100693          	li	a3,1
    7224:	00b12623          	sw	a1,12(sp)
    7228:	d59ff0ef          	jal	6f80 <disk_write>
    722c:	00100693          	li	a3,1
    7230:	02051e63          	bnez	a0,726c <sync_window+0x70>
    7234:	02442603          	lw	a2,36(s0)
    7238:	02c42783          	lw	a5,44(s0)
    723c:	02042703          	lw	a4,32(s0)
    7240:	00040223          	sb	zero,4(s0)
    7244:	40f607b3          	sub	a5,a2,a5
    7248:	02e7f063          	bgeu	a5,a4,7268 <sync_window+0x6c>
    724c:	00344503          	lbu	a0,3(s0)
    7250:	00200793          	li	a5,2
    7254:	00c12583          	lw	a1,12(sp)
    7258:	00f51863          	bne	a0,a5,7268 <sync_window+0x6c>
    725c:	00144503          	lbu	a0,1(s0)
    7260:	00e60633          	add	a2,a2,a4
    7264:	d1dff0ef          	jal	6f80 <disk_write>
    7268:	00000693          	li	a3,0
    726c:	01c12083          	lw	ra,28(sp)
    7270:	01812403          	lw	s0,24(sp)
    7274:	00068513          	mv	a0,a3
    7278:	02010113          	addi	sp,sp,32
    727c:	00008067          	ret
    7280:	00000693          	li	a3,0
    7284:	00068513          	mv	a0,a3
    7288:	00008067          	ret

0000728c <get_fileinfo>:
    728c:	fd010113          	addi	sp,sp,-48
    7290:	01612823          	sw	s6,16(sp)
    7294:	02112623          	sw	ra,44(sp)
    7298:	02812423          	sw	s0,40(sp)
    729c:	02912223          	sw	s1,36(sp)
    72a0:	03212023          	sw	s2,32(sp)
    72a4:	01312e23          	sw	s3,28(sp)
    72a8:	01412c23          	sw	s4,24(sp)
    72ac:	01512a23          	sw	s5,20(sp)
    72b0:	01712623          	sw	s7,12(sp)
    72b4:	01812423          	sw	s8,8(sp)
    72b8:	01912223          	sw	s9,4(sp)
    72bc:	00052b03          	lw	s6,0(a0)
    72c0:	00058b23          	sb	zero,22(a1)
    72c4:	01852783          	lw	a5,24(a0)
    72c8:	1c078a63          	beqz	a5,749c <get_fileinfo+0x210>
    72cc:	02c52703          	lw	a4,44(a0)
    72d0:	fff00793          	li	a5,-1
    72d4:	00058413          	mv	s0,a1
    72d8:	00050a93          	mv	s5,a0
    72dc:	12f71a63          	bne	a4,a5,7410 <get_fileinfo+0x184>
    72e0:	01caa483          	lw	s1,28(s5)
    72e4:	00000793          	li	a5,0
    72e8:	00000713          	li	a4,0
    72ec:	02000593          	li	a1,32
    72f0:	00500513          	li	a0,5
    72f4:	00b00613          	li	a2,11
    72f8:	00170713          	addi	a4,a4,1
    72fc:	00e486b3          	add	a3,s1,a4
    7300:	fff6c683          	lbu	a3,-1(a3)
    7304:	02b68c63          	beq	a3,a1,733c <get_fileinfo+0xb0>
    7308:	00a69463          	bne	a3,a0,7310 <get_fileinfo+0x84>
    730c:	0e500693          	li	a3,229
    7310:	ff770813          	addi	a6,a4,-9
    7314:	00081e63          	bnez	a6,7330 <get_fileinfo+0xa4>
    7318:	00c7b813          	sltiu	a6,a5,12
    731c:	00080a63          	beqz	a6,7330 <get_fileinfo+0xa4>
    7320:	00f40833          	add	a6,s0,a5
    7324:	02e00893          	li	a7,46
    7328:	011804a3          	sb	a7,9(a6)
    732c:	00178793          	addi	a5,a5,1
    7330:	00f40833          	add	a6,s0,a5
    7334:	00d804a3          	sb	a3,9(a6)
    7338:	00178793          	addi	a5,a5,1
    733c:	fac71ee3          	bne	a4,a2,72f8 <get_fileinfo+0x6c>
    7340:	00f40733          	add	a4,s0,a5
    7344:	000704a3          	sb	zero,9(a4)
    7348:	01644703          	lbu	a4,22(s0)
    734c:	10071863          	bnez	a4,745c <get_fileinfo+0x1d0>
    7350:	0e078663          	beqz	a5,743c <get_fileinfo+0x1b0>
    7354:	00940793          	addi	a5,s0,9
    7358:	00800613          	li	a2,8
    735c:	02e00593          	li	a1,46
    7360:	01900513          	li	a0,25
    7364:	0007c703          	lbu	a4,0(a5)
    7368:	16071463          	bnez	a4,74d0 <get_fileinfo+0x244>
    736c:	408787b3          	sub	a5,a5,s0
    7370:	ff778793          	addi	a5,a5,-9
    7374:	0d40006f          	j	7448 <get_fileinfo+0x1bc>
    7378:	00091a63          	bnez	s2,738c <get_fileinfo+0x100>
    737c:	01478733          	add	a4,a5,s4
    7380:	01071713          	slli	a4,a4,0x10
    7384:	01075713          	srli	a4,a4,0x10
    7388:	02ecfe63          	bgeu	s9,a4,73c4 <get_fileinfo+0x138>
    738c:	01091513          	slli	a0,s2,0x10
    7390:	3b600593          	li	a1,950
    7394:	00f56533          	or	a0,a0,a5
    7398:	fb8ff0ef          	jal	6b50 <ff_uni2oem>
    739c:	04abfc63          	bgeu	s7,a0,73f4 <get_fileinfo+0x168>
    73a0:	f0248793          	addi	a5,s1,-254
    73a4:	08fc7863          	bgeu	s8,a5,7434 <get_fileinfo+0x1a8>
    73a8:	009407b3          	add	a5,s0,s1
    73ac:	00855713          	srli	a4,a0,0x8
    73b0:	00e78b23          	sb	a4,22(a5)
    73b4:	00a78ba3          	sb	a0,23(a5)
    73b8:	00200793          	li	a5,2
    73bc:	00f484b3          	add	s1,s1,a5
    73c0:	00000793          	li	a5,0
    73c4:	00298993          	addi	s3,s3,2 # ffff0002 <_stack_point+0xcffd0002>
    73c8:	00078913          	mv	s2,a5
    73cc:	00cb2783          	lw	a5,12(s6)
    73d0:	013787b3          	add	a5,a5,s3
    73d4:	0007d783          	lhu	a5,0(a5)
    73d8:	fa0790e3          	bnez	a5,7378 <get_fileinfo+0xec>
    73dc:	00193913          	seqz	s2,s2
    73e0:	41200933          	neg	s2,s2
    73e4:	0124f4b3          	and	s1,s1,s2
    73e8:	009404b3          	add	s1,s0,s1
    73ec:	00048b23          	sb	zero,22(s1)
    73f0:	ef1ff06f          	j	72e0 <get_fileinfo+0x54>
    73f4:	04050063          	beqz	a0,7434 <get_fileinfo+0x1a8>
    73f8:	f0148793          	addi	a5,s1,-255
    73fc:	02078c63          	beqz	a5,7434 <get_fileinfo+0x1a8>
    7400:	009407b3          	add	a5,s0,s1
    7404:	00a78b23          	sb	a0,22(a5)
    7408:	00100793          	li	a5,1
    740c:	fb1ff06f          	j	73bc <get_fileinfo+0x130>
    7410:	00003a37          	lui	s4,0x3
    7414:	00000993          	li	s3,0
    7418:	00000913          	li	s2,0
    741c:	00000493          	li	s1,0
    7420:	0ff00b93          	li	s7,255
    7424:	00100c13          	li	s8,1
    7428:	800a0a13          	addi	s4,s4,-2048 # 2800 <sfud_erase+0x180>
    742c:	7ff00c93          	li	s9,2047
    7430:	f9dff06f          	j	73cc <get_fileinfo+0x140>
    7434:	00000493          	li	s1,0
    7438:	fa5ff06f          	j	73dc <get_fileinfo+0x150>
    743c:	03f00793          	li	a5,63
    7440:	00f40b23          	sb	a5,22(s0)
    7444:	00100793          	li	a5,1
    7448:	00f407b3          	add	a5,s0,a5
    744c:	00078b23          	sb	zero,22(a5)
    7450:	00c4c783          	lbu	a5,12(s1)
    7454:	00079463          	bnez	a5,745c <get_fileinfo+0x1d0>
    7458:	000404a3          	sb	zero,9(s0)
    745c:	00b4c783          	lbu	a5,11(s1)
    7460:	01c48513          	addi	a0,s1,28
    7464:	03f7f793          	andi	a5,a5,63
    7468:	00f40423          	sb	a5,8(s0)
    746c:	c11ff0ef          	jal	707c <ld_32>
    7470:	00a42023          	sw	a0,0(s0)
    7474:	0174c783          	lbu	a5,23(s1)
    7478:	0164c703          	lbu	a4,22(s1)
    747c:	00879793          	slli	a5,a5,0x8
    7480:	00e7e7b3          	or	a5,a5,a4
    7484:	00f41323          	sh	a5,6(s0)
    7488:	0194c783          	lbu	a5,25(s1)
    748c:	0184c703          	lbu	a4,24(s1)
    7490:	00879793          	slli	a5,a5,0x8
    7494:	00e7e7b3          	or	a5,a5,a4
    7498:	00f41223          	sh	a5,4(s0)
    749c:	02c12083          	lw	ra,44(sp)
    74a0:	02812403          	lw	s0,40(sp)
    74a4:	02412483          	lw	s1,36(sp)
    74a8:	02012903          	lw	s2,32(sp)
    74ac:	01c12983          	lw	s3,28(sp)
    74b0:	01812a03          	lw	s4,24(sp)
    74b4:	01412a83          	lw	s5,20(sp)
    74b8:	01012b03          	lw	s6,16(sp)
    74bc:	00c12b83          	lw	s7,12(sp)
    74c0:	00812c03          	lw	s8,8(sp)
    74c4:	00412c83          	lw	s9,4(sp)
    74c8:	03010113          	addi	sp,sp,48
    74cc:	00008067          	ret
    74d0:	02b70863          	beq	a4,a1,7500 <get_fileinfo+0x274>
    74d4:	fbf70693          	addi	a3,a4,-65
    74d8:	01069693          	slli	a3,a3,0x10
    74dc:	0106d693          	srli	a3,a3,0x10
    74e0:	00d56a63          	bltu	a0,a3,74f4 <get_fileinfo+0x268>
    74e4:	00c4c683          	lbu	a3,12(s1)
    74e8:	00d676b3          	and	a3,a2,a3
    74ec:	00068463          	beqz	a3,74f4 <get_fileinfo+0x268>
    74f0:	02070713          	addi	a4,a4,32
    74f4:	00e786a3          	sb	a4,13(a5)
    74f8:	00178793          	addi	a5,a5,1
    74fc:	e69ff06f          	j	7364 <get_fileinfo+0xd8>
    7500:	01000613          	li	a2,16
    7504:	ff1ff06f          	j	74f4 <get_fileinfo+0x268>

00007508 <sync_fs>:
    7508:	fe010113          	addi	sp,sp,-32
    750c:	00812c23          	sw	s0,24(sp)
    7510:	00112e23          	sw	ra,28(sp)
    7514:	00912a23          	sw	s1,20(sp)
    7518:	00050413          	mv	s0,a0
    751c:	ce1ff0ef          	jal	71fc <sync_window>
    7520:	0c051263          	bnez	a0,75e4 <sync_fs+0xdc>
    7524:	00544683          	lbu	a3,5(s0)
    7528:	00100793          	li	a5,1
    752c:	0af69263          	bne	a3,a5,75d0 <sync_fs+0xc8>
    7530:	00044703          	lbu	a4,0(s0)
    7534:	000402a3          	sb	zero,5(s0)
    7538:	00300793          	li	a5,3
    753c:	08f71a63          	bne	a4,a5,75d0 <sync_fs+0xc8>
    7540:	00001637          	lui	a2,0x1
    7544:	00000593          	li	a1,0
    7548:	03840513          	addi	a0,s0,56
    754c:	00d12623          	sw	a3,12(sp)
    7550:	c85f80ef          	jal	1d4 <memset>
    7554:	05200793          	li	a5,82
    7558:	01442583          	lw	a1,20(s0)
    755c:	07200613          	li	a2,114
    7560:	04100713          	li	a4,65
    7564:	02f40c23          	sb	a5,56(s0)
    7568:	02f40ca3          	sb	a5,57(s0)
    756c:	06100793          	li	a5,97
    7570:	02f40d23          	sb	a5,58(s0)
    7574:	20c40e23          	sb	a2,540(s0)
    7578:	20c40ea3          	sb	a2,541(s0)
    757c:	20f40fa3          	sb	a5,543(s0)
    7580:	02e40da3          	sb	a4,59(s0)
    7584:	20e40f23          	sb	a4,542(s0)
    7588:	22040513          	addi	a0,s0,544
    758c:	b1dff0ef          	jal	70a8 <st_32>
    7590:	01042583          	lw	a1,16(s0)
    7594:	22440513          	addi	a0,s0,548
    7598:	b11ff0ef          	jal	70a8 <st_32>
    759c:	02842603          	lw	a2,40(s0)
    75a0:	05500793          	li	a5,85
    75a4:	00c12683          	lw	a3,12(sp)
    75a8:	00144503          	lbu	a0,1(s0)
    75ac:	22f40b23          	sb	a5,566(s0)
    75b0:	00160613          	addi	a2,a2,1 # 1001 <hal_sys_putchar+0x5>
    75b4:	faa00793          	li	a5,-86
    75b8:	22040a23          	sb	zero,564(s0)
    75bc:	22040aa3          	sb	zero,565(s0)
    75c0:	22f40ba3          	sb	a5,567(s0)
    75c4:	02c42223          	sw	a2,36(s0)
    75c8:	03840593          	addi	a1,s0,56
    75cc:	9b5ff0ef          	jal	6f80 <disk_write>
    75d0:	00144503          	lbu	a0,1(s0)
    75d4:	00000613          	li	a2,0
    75d8:	00000593          	li	a1,0
    75dc:	a51ff0ef          	jal	702c <disk_ioctl>
    75e0:	00a03533          	snez	a0,a0
    75e4:	01c12083          	lw	ra,28(sp)
    75e8:	01812403          	lw	s0,24(sp)
    75ec:	01412483          	lw	s1,20(sp)
    75f0:	02010113          	addi	sp,sp,32
    75f4:	00008067          	ret

000075f8 <st_clust>:
    75f8:	00865793          	srli	a5,a2,0x8
    75fc:	00f58da3          	sb	a5,27(a1)
    7600:	00c58d23          	sb	a2,26(a1)
    7604:	00054703          	lbu	a4,0(a0)
    7608:	00300793          	li	a5,3
    760c:	00f71a63          	bne	a4,a5,7620 <st_clust+0x28>
    7610:	01065793          	srli	a5,a2,0x10
    7614:	01865613          	srli	a2,a2,0x18
    7618:	00f58a23          	sb	a5,20(a1)
    761c:	00c58aa3          	sb	a2,21(a1)
    7620:	00008067          	ret

00007624 <move_window>:
    7624:	02452783          	lw	a5,36(a0)
    7628:	04b78e63          	beq	a5,a1,7684 <move_window+0x60>
    762c:	ff010113          	addi	sp,sp,-16
    7630:	00812423          	sw	s0,8(sp)
    7634:	00912223          	sw	s1,4(sp)
    7638:	00112623          	sw	ra,12(sp)
    763c:	00050413          	mv	s0,a0
    7640:	00058493          	mv	s1,a1
    7644:	bb9ff0ef          	jal	71fc <sync_window>
    7648:	02051463          	bnez	a0,7670 <move_window+0x4c>
    764c:	00144503          	lbu	a0,1(s0)
    7650:	00100693          	li	a3,1
    7654:	00048613          	mv	a2,s1
    7658:	03840593          	addi	a1,s0,56
    765c:	879ff0ef          	jal	6ed4 <disk_read>
    7660:	00050663          	beqz	a0,766c <move_window+0x48>
    7664:	00100513          	li	a0,1
    7668:	fff00493          	li	s1,-1
    766c:	02942223          	sw	s1,36(s0)
    7670:	00c12083          	lw	ra,12(sp)
    7674:	00812403          	lw	s0,8(sp)
    7678:	00412483          	lw	s1,4(sp)
    767c:	01010113          	addi	sp,sp,16
    7680:	00008067          	ret
    7684:	00000513          	li	a0,0
    7688:	00008067          	ret

0000768c <check_fs>:
    768c:	ff010113          	addi	sp,sp,-16
    7690:	00812423          	sw	s0,8(sp)
    7694:	00912223          	sw	s1,4(sp)
    7698:	00112623          	sw	ra,12(sp)
    769c:	01212023          	sw	s2,0(sp)
    76a0:	fff00793          	li	a5,-1
    76a4:	00050223          	sb	zero,4(a0)
    76a8:	02f52223          	sw	a5,36(a0)
    76ac:	00050413          	mv	s0,a0
    76b0:	f75ff0ef          	jal	7624 <move_window>
    76b4:	00400493          	li	s1,4
    76b8:	04051463          	bnez	a0,7700 <check_fs+0x74>
    76bc:	23744903          	lbu	s2,567(s0)
    76c0:	23644783          	lbu	a5,566(s0)
    76c4:	03844703          	lbu	a4,56(s0)
    76c8:	00891913          	slli	s2,s2,0x8
    76cc:	00f96933          	or	s2,s2,a5
    76d0:	01870793          	addi	a5,a4,24
    76d4:	0ff7f793          	zext.b	a5,a5
    76d8:	0027b793          	sltiu	a5,a5,2
    76dc:	00050493          	mv	s1,a0
    76e0:	02079e63          	bnez	a5,771c <check_fs+0x90>
    76e4:	f1570713          	addi	a4,a4,-235
    76e8:	02070a63          	beqz	a4,771c <check_fs+0x90>
    76ec:	0000b4b7          	lui	s1,0xb
    76f0:	a5548493          	addi	s1,s1,-1451 # aa55 <f_mkdir+0x1ad>
    76f4:	409904b3          	sub	s1,s2,s1
    76f8:	009034b3          	snez	s1,s1
    76fc:	00248493          	addi	s1,s1,2
    7700:	00c12083          	lw	ra,12(sp)
    7704:	00812403          	lw	s0,8(sp)
    7708:	00012903          	lw	s2,0(sp)
    770c:	00048513          	mv	a0,s1
    7710:	00412483          	lw	s1,4(sp)
    7714:	01010113          	addi	sp,sp,16
    7718:	00008067          	ret
    771c:	0000b7b7          	lui	a5,0xb
    7720:	a5578793          	addi	a5,a5,-1451 # aa55 <f_mkdir+0x1ad>
    7724:	0af90663          	beq	s2,a5,77d0 <check_fs+0x144>
    7728:	04444783          	lbu	a5,68(s0)
    772c:	04344683          	lbu	a3,67(s0)
    7730:	04544703          	lbu	a4,69(s0)
    7734:	00879793          	slli	a5,a5,0x8
    7738:	00d7e7b3          	or	a5,a5,a3
    773c:	80078793          	addi	a5,a5,-2048
    7740:	80078793          	addi	a5,a5,-2048
    7744:	fa0794e3          	bnez	a5,76ec <check_fs+0x60>
    7748:	fa0702e3          	beqz	a4,76ec <check_fs+0x60>
    774c:	fff70793          	addi	a5,a4,-1
    7750:	00e7f7b3          	and	a5,a5,a4
    7754:	f8079ce3          	bnez	a5,76ec <check_fs+0x60>
    7758:	04744783          	lbu	a5,71(s0)
    775c:	04644703          	lbu	a4,70(s0)
    7760:	00879793          	slli	a5,a5,0x8
    7764:	00e7e7b3          	or	a5,a5,a4
    7768:	f80782e3          	beqz	a5,76ec <check_fs+0x60>
    776c:	04844783          	lbu	a5,72(s0)
    7770:	00100713          	li	a4,1
    7774:	fff78793          	addi	a5,a5,-1
    7778:	f6f76ae3          	bltu	a4,a5,76ec <check_fs+0x60>
    777c:	04a44783          	lbu	a5,74(s0)
    7780:	04944703          	lbu	a4,73(s0)
    7784:	00879793          	slli	a5,a5,0x8
    7788:	00e7e7b3          	or	a5,a5,a4
    778c:	f60780e3          	beqz	a5,76ec <check_fs+0x60>
    7790:	04c44783          	lbu	a5,76(s0)
    7794:	04b44703          	lbu	a4,75(s0)
    7798:	00879793          	slli	a5,a5,0x8
    779c:	00e7e7b3          	or	a5,a5,a4
    77a0:	07f00713          	li	a4,127
    77a4:	00f76a63          	bltu	a4,a5,77b8 <check_fs+0x12c>
    77a8:	05840513          	addi	a0,s0,88
    77ac:	8d1ff0ef          	jal	707c <ld_32>
    77b0:	000107b7          	lui	a5,0x10
    77b4:	f2f56ce3          	bltu	a0,a5,76ec <check_fs+0x60>
    77b8:	04f44783          	lbu	a5,79(s0)
    77bc:	04e44703          	lbu	a4,78(s0)
    77c0:	00879793          	slli	a5,a5,0x8
    77c4:	00e7e7b3          	or	a5,a5,a4
    77c8:	f20782e3          	beqz	a5,76ec <check_fs+0x60>
    77cc:	f35ff06f          	j	7700 <check_fs+0x74>
    77d0:	000225b7          	lui	a1,0x22
    77d4:	00800613          	li	a2,8
    77d8:	f7458593          	addi	a1,a1,-140 # 21f74 <log_level_colors+0x178c>
    77dc:	08a40513          	addi	a0,s0,138
    77e0:	a31f80ef          	jal	210 <memcmp>
    77e4:	f40512e3          	bnez	a0,7728 <check_fs+0x9c>
    77e8:	f19ff06f          	j	7700 <check_fs+0x74>

000077ec <put_fat>:
    77ec:	fe010113          	addi	sp,sp,-32
    77f0:	00912a23          	sw	s1,20(sp)
    77f4:	00200713          	li	a4,2
    77f8:	00112e23          	sw	ra,28(sp)
    77fc:	00812c23          	sw	s0,24(sp)
    7800:	01212823          	sw	s2,16(sp)
    7804:	01312623          	sw	s3,12(sp)
    7808:	01412423          	sw	s4,8(sp)
    780c:	01512223          	sw	s5,4(sp)
    7810:	00100493          	li	s1,1
    7814:	00070793          	mv	a5,a4
    7818:	04b4f863          	bgeu	s1,a1,7868 <put_fat+0x7c>
    781c:	01c52683          	lw	a3,28(a0)
    7820:	00050993          	mv	s3,a0
    7824:	04d5f263          	bgeu	a1,a3,7868 <put_fat+0x7c>
    7828:	00054683          	lbu	a3,0(a0)
    782c:	00060913          	mv	s2,a2
    7830:	00058413          	mv	s0,a1
    7834:	0ee68663          	beq	a3,a4,7920 <put_fat+0x134>
    7838:	00300793          	li	a5,3
    783c:	10f68e63          	beq	a3,a5,7958 <put_fat+0x16c>
    7840:	00070793          	mv	a5,a4
    7844:	02969263          	bne	a3,s1,7868 <put_fat+0x7c>
    7848:	0015d493          	srli	s1,a1,0x1
    784c:	02c52783          	lw	a5,44(a0)
    7850:	00b484b3          	add	s1,s1,a1
    7854:	00c4d593          	srli	a1,s1,0xc
    7858:	00f585b3          	add	a1,a1,a5
    785c:	dc9ff0ef          	jal	7624 <move_window>
    7860:	02050863          	beqz	a0,7890 <put_fat+0xa4>
    7864:	00100793          	li	a5,1
    7868:	01c12083          	lw	ra,28(sp)
    786c:	01812403          	lw	s0,24(sp)
    7870:	01412483          	lw	s1,20(sp)
    7874:	01012903          	lw	s2,16(sp)
    7878:	00c12983          	lw	s3,12(sp)
    787c:	00812a03          	lw	s4,8(sp)
    7880:	00412a83          	lw	s5,4(sp)
    7884:	00078513          	mv	a0,a5
    7888:	02010113          	addi	sp,sp,32
    788c:	00008067          	ret
    7890:	00148a13          	addi	s4,s1,1
    7894:	01449493          	slli	s1,s1,0x14
    7898:	03898a93          	addi	s5,s3,56
    789c:	0144d493          	srli	s1,s1,0x14
    78a0:	00147413          	andi	s0,s0,1
    78a4:	009a84b3          	add	s1,s5,s1
    78a8:	00090793          	mv	a5,s2
    78ac:	00040a63          	beqz	s0,78c0 <put_fat+0xd4>
    78b0:	0004c703          	lbu	a4,0(s1)
    78b4:	00491793          	slli	a5,s2,0x4
    78b8:	00f77713          	andi	a4,a4,15
    78bc:	00f767b3          	or	a5,a4,a5
    78c0:	00f48023          	sb	a5,0(s1)
    78c4:	00100793          	li	a5,1
    78c8:	00f98223          	sb	a5,4(s3)
    78cc:	02c9a783          	lw	a5,44(s3)
    78d0:	00ca5593          	srli	a1,s4,0xc
    78d4:	00098513          	mv	a0,s3
    78d8:	00f585b3          	add	a1,a1,a5
    78dc:	d49ff0ef          	jal	7624 <move_window>
    78e0:	f80512e3          	bnez	a0,7864 <put_fat+0x78>
    78e4:	014a1a13          	slli	s4,s4,0x14
    78e8:	014a5a13          	srli	s4,s4,0x14
    78ec:	014a8ab3          	add	s5,s5,s4
    78f0:	00495793          	srli	a5,s2,0x4
    78f4:	00041c63          	bnez	s0,790c <put_fat+0x120>
    78f8:	000ac783          	lbu	a5,0(s5)
    78fc:	00895913          	srli	s2,s2,0x8
    7900:	00f97913          	andi	s2,s2,15
    7904:	ff07f793          	andi	a5,a5,-16
    7908:	0127e7b3          	or	a5,a5,s2
    790c:	00fa8023          	sb	a5,0(s5)
    7910:	00100793          	li	a5,1
    7914:	00f98223          	sb	a5,4(s3)
    7918:	00000793          	li	a5,0
    791c:	f4dff06f          	j	7868 <put_fat+0x7c>
    7920:	02c52783          	lw	a5,44(a0)
    7924:	00b5d593          	srli	a1,a1,0xb
    7928:	00f585b3          	add	a1,a1,a5
    792c:	cf9ff0ef          	jal	7624 <move_window>
    7930:	f2051ae3          	bnez	a0,7864 <put_fat+0x78>
    7934:	7ff47413          	andi	s0,s0,2047
    7938:	03898793          	addi	a5,s3,56
    793c:	00141413          	slli	s0,s0,0x1
    7940:	00878433          	add	s0,a5,s0
    7944:	01240023          	sb	s2,0(s0)
    7948:	00895913          	srli	s2,s2,0x8
    794c:	012400a3          	sb	s2,1(s0)
    7950:	00998223          	sb	s1,4(s3)
    7954:	fc5ff06f          	j	7918 <put_fat+0x12c>
    7958:	02c52783          	lw	a5,44(a0)
    795c:	00a5d593          	srli	a1,a1,0xa
    7960:	00f585b3          	add	a1,a1,a5
    7964:	cc1ff0ef          	jal	7624 <move_window>
    7968:	ee051ee3          	bnez	a0,7864 <put_fat+0x78>
    796c:	3ff47413          	andi	s0,s0,1023
    7970:	03898793          	addi	a5,s3,56
    7974:	00241413          	slli	s0,s0,0x2
    7978:	00878433          	add	s0,a5,s0
    797c:	00040513          	mv	a0,s0
    7980:	efcff0ef          	jal	707c <ld_32>
    7984:	f00007b7          	lui	a5,0xf0000
    7988:	00491913          	slli	s2,s2,0x4
    798c:	00f575b3          	and	a1,a0,a5
    7990:	00495913          	srli	s2,s2,0x4
    7994:	00b965b3          	or	a1,s2,a1
    7998:	00040513          	mv	a0,s0
    799c:	f0cff0ef          	jal	70a8 <st_32>
    79a0:	fb1ff06f          	j	7950 <put_fat+0x164>

000079a4 <dir_clear>:
    79a4:	fd010113          	addi	sp,sp,-48
    79a8:	02812423          	sw	s0,40(sp)
    79ac:	02912223          	sw	s1,36(sp)
    79b0:	02112623          	sw	ra,44(sp)
    79b4:	03212023          	sw	s2,32(sp)
    79b8:	01312e23          	sw	s3,28(sp)
    79bc:	00050493          	mv	s1,a0
    79c0:	00b12623          	sw	a1,12(sp)
    79c4:	839ff0ef          	jal	71fc <sync_window>
    79c8:	00050413          	mv	s0,a0
    79cc:	02051e63          	bnez	a0,7a08 <dir_clear+0x64>
    79d0:	00c12583          	lw	a1,12(sp)
    79d4:	00048513          	mv	a0,s1
    79d8:	ef0ff0ef          	jal	70c8 <clst2sect>
    79dc:	00050913          	mv	s2,a0
    79e0:	02a4a223          	sw	a0,36(s1)
    79e4:	00001637          	lui	a2,0x1
    79e8:	00000593          	li	a1,0
    79ec:	03848513          	addi	a0,s1,56
    79f0:	fe4f80ef          	jal	1d4 <memset>
    79f4:	00a4d783          	lhu	a5,10(s1)
    79f8:	02f46863          	bltu	s0,a5,7a28 <dir_clear+0x84>
    79fc:	00a4d783          	lhu	a5,10(s1)
    7a00:	40878433          	sub	s0,a5,s0
    7a04:	00803433          	snez	s0,s0
    7a08:	02c12083          	lw	ra,44(sp)
    7a0c:	00040513          	mv	a0,s0
    7a10:	02812403          	lw	s0,40(sp)
    7a14:	02412483          	lw	s1,36(sp)
    7a18:	02012903          	lw	s2,32(sp)
    7a1c:	01c12983          	lw	s3,28(sp)
    7a20:	03010113          	addi	sp,sp,48
    7a24:	00008067          	ret
    7a28:	0014c503          	lbu	a0,1(s1)
    7a2c:	00100693          	li	a3,1
    7a30:	00890633          	add	a2,s2,s0
    7a34:	03848593          	addi	a1,s1,56
    7a38:	d48ff0ef          	jal	6f80 <disk_write>
    7a3c:	fc0510e3          	bnez	a0,79fc <dir_clear+0x58>
    7a40:	00140413          	addi	s0,s0,1
    7a44:	fb1ff06f          	j	79f4 <dir_clear+0x50>

00007a48 <mount_volume>:
    7a48:	fc010113          	addi	sp,sp,-64
    7a4c:	02912a23          	sw	s1,52(sp)
    7a50:	02112e23          	sw	ra,60(sp)
    7a54:	02812c23          	sw	s0,56(sp)
    7a58:	03212823          	sw	s2,48(sp)
    7a5c:	03312623          	sw	s3,44(sp)
    7a60:	03412423          	sw	s4,40(sp)
    7a64:	03512223          	sw	s5,36(sp)
    7a68:	03612023          	sw	s6,32(sp)
    7a6c:	0005a023          	sw	zero,0(a1)
    7a70:	00060493          	mv	s1,a2
    7a74:	00b12623          	sw	a1,12(sp)
    7a78:	eacff0ef          	jal	7124 <get_ldnumber>
    7a7c:	fff00793          	li	a5,-1
    7a80:	38f50863          	beq	a0,a5,7e10 <mount_volume+0x3c8>
    7a84:	3000f7b7          	lui	a5,0x3000f
    7a88:	38078793          	addi	a5,a5,896 # 3000f380 <FatFs>
    7a8c:	00251513          	slli	a0,a0,0x2
    7a90:	00f50533          	add	a0,a0,a5
    7a94:	00052403          	lw	s0,0(a0)
    7a98:	00c00793          	li	a5,12
    7a9c:	02040c63          	beqz	s0,7ad4 <mount_volume+0x8c>
    7aa0:	00c12583          	lw	a1,12(sp)
    7aa4:	0fe4f493          	andi	s1,s1,254
    7aa8:	0085a023          	sw	s0,0(a1)
    7aac:	00044783          	lbu	a5,0(s0)
    7ab0:	04078863          	beqz	a5,7b00 <mount_volume+0xb8>
    7ab4:	00144503          	lbu	a0,1(s0)
    7ab8:	b08ff0ef          	jal	6dc0 <disk_status>
    7abc:	00157793          	andi	a5,a0,1
    7ac0:	04079063          	bnez	a5,7b00 <mount_volume+0xb8>
    7ac4:	30048c63          	beqz	s1,7ddc <mount_volume+0x394>
    7ac8:	00457513          	andi	a0,a0,4
    7acc:	30050863          	beqz	a0,7ddc <mount_volume+0x394>
    7ad0:	00a00793          	li	a5,10
    7ad4:	03c12083          	lw	ra,60(sp)
    7ad8:	03812403          	lw	s0,56(sp)
    7adc:	03412483          	lw	s1,52(sp)
    7ae0:	03012903          	lw	s2,48(sp)
    7ae4:	02c12983          	lw	s3,44(sp)
    7ae8:	02812a03          	lw	s4,40(sp)
    7aec:	02412a83          	lw	s5,36(sp)
    7af0:	02012b03          	lw	s6,32(sp)
    7af4:	00078513          	mv	a0,a5
    7af8:	04010113          	addi	sp,sp,64
    7afc:	00008067          	ret
    7b00:	00144503          	lbu	a0,1(s0)
    7b04:	00040023          	sb	zero,0(s0)
    7b08:	b40ff0ef          	jal	6e48 <disk_initialize>
    7b0c:	00157713          	andi	a4,a0,1
    7b10:	00300793          	li	a5,3
    7b14:	fc0710e3          	bnez	a4,7ad4 <mount_volume+0x8c>
    7b18:	00048663          	beqz	s1,7b24 <mount_volume+0xdc>
    7b1c:	00457513          	andi	a0,a0,4
    7b20:	fa0518e3          	bnez	a0,7ad0 <mount_volume+0x88>
    7b24:	00000593          	li	a1,0
    7b28:	00040513          	mv	a0,s0
    7b2c:	b61ff0ef          	jal	768c <check_fs>
    7b30:	00200793          	li	a5,2
    7b34:	06f51063          	bne	a0,a5,7b94 <mount_volume+0x14c>
    7b38:	01010493          	addi	s1,sp,16
    7b3c:	1fe40913          	addi	s2,s0,510
    7b40:	23e40a13          	addi	s4,s0,574
    7b44:	00048993          	mv	s3,s1
    7b48:	00090513          	mv	a0,s2
    7b4c:	d30ff0ef          	jal	707c <ld_32>
    7b50:	00a9a023          	sw	a0,0(s3)
    7b54:	01090913          	addi	s2,s2,16
    7b58:	00498993          	addi	s3,s3,4
    7b5c:	ff4916e3          	bne	s2,s4,7b48 <mount_volume+0x100>
    7b60:	01048913          	addi	s2,s1,16
    7b64:	00100993          	li	s3,1
    7b68:	0004a583          	lw	a1,0(s1)
    7b6c:	00300513          	li	a0,3
    7b70:	00058863          	beqz	a1,7b80 <mount_volume+0x138>
    7b74:	00040513          	mv	a0,s0
    7b78:	b15ff0ef          	jal	768c <check_fs>
    7b7c:	02a9fc63          	bgeu	s3,a0,7bb4 <mount_volume+0x16c>
    7b80:	00448493          	addi	s1,s1,4
    7b84:	fe9912e3          	bne	s2,s1,7b68 <mount_volume+0x120>
    7b88:	00400793          	li	a5,4
    7b8c:	02f51063          	bne	a0,a5,7bac <mount_volume+0x164>
    7b90:	00c0006f          	j	7b9c <mount_volume+0x154>
    7b94:	00400793          	li	a5,4
    7b98:	00f51663          	bne	a0,a5,7ba4 <mount_volume+0x15c>
    7b9c:	00100793          	li	a5,1
    7ba0:	f35ff06f          	j	7ad4 <mount_volume+0x8c>
    7ba4:	00100793          	li	a5,1
    7ba8:	00a7f663          	bgeu	a5,a0,7bb4 <mount_volume+0x16c>
    7bac:	00d00793          	li	a5,13
    7bb0:	f25ff06f          	j	7ad4 <mount_volume+0x8c>
    7bb4:	04444783          	lbu	a5,68(s0)
    7bb8:	04344703          	lbu	a4,67(s0)
    7bbc:	00879793          	slli	a5,a5,0x8
    7bc0:	00e7e7b3          	or	a5,a5,a4
    7bc4:	00001737          	lui	a4,0x1
    7bc8:	fee792e3          	bne	a5,a4,7bac <mount_volume+0x164>
    7bcc:	04f44a03          	lbu	s4,79(s0)
    7bd0:	04e44783          	lbu	a5,78(s0)
    7bd4:	02442903          	lw	s2,36(s0)
    7bd8:	008a1a13          	slli	s4,s4,0x8
    7bdc:	00fa6a33          	or	s4,s4,a5
    7be0:	000a1863          	bnez	s4,7bf0 <mount_volume+0x1a8>
    7be4:	05c40513          	addi	a0,s0,92
    7be8:	c94ff0ef          	jal	707c <ld_32>
    7bec:	00050a13          	mv	s4,a0
    7bf0:	04844983          	lbu	s3,72(s0)
    7bf4:	03442023          	sw	s4,32(s0)
    7bf8:	00100713          	li	a4,1
    7bfc:	fff98793          	addi	a5,s3,-1
    7c00:	013401a3          	sb	s3,3(s0)
    7c04:	0ff7f793          	zext.b	a5,a5
    7c08:	faf762e3          	bltu	a4,a5,7bac <mount_volume+0x164>
    7c0c:	04544b03          	lbu	s6,69(s0)
    7c10:	01641523          	sh	s6,10(s0)
    7c14:	f80b0ce3          	beqz	s6,7bac <mount_volume+0x164>
    7c18:	fffb0793          	addi	a5,s6,-1
    7c1c:	0167f7b3          	and	a5,a5,s6
    7c20:	f80796e3          	bnez	a5,7bac <mount_volume+0x164>
    7c24:	04a44a83          	lbu	s5,74(s0)
    7c28:	04944783          	lbu	a5,73(s0)
    7c2c:	008a9a93          	slli	s5,s5,0x8
    7c30:	00faeab3          	or	s5,s5,a5
    7c34:	01541423          	sh	s5,8(s0)
    7c38:	07faf793          	andi	a5,s5,127
    7c3c:	f60798e3          	bnez	a5,7bac <mount_volume+0x164>
    7c40:	04c44483          	lbu	s1,76(s0)
    7c44:	04b44783          	lbu	a5,75(s0)
    7c48:	00849493          	slli	s1,s1,0x8
    7c4c:	00f4e533          	or	a0,s1,a5
    7c50:	00051663          	bnez	a0,7c5c <mount_volume+0x214>
    7c54:	05840513          	addi	a0,s0,88
    7c58:	c24ff0ef          	jal	707c <ld_32>
    7c5c:	04744783          	lbu	a5,71(s0)
    7c60:	04644703          	lbu	a4,70(s0)
    7c64:	00879793          	slli	a5,a5,0x8
    7c68:	00e7e7b3          	or	a5,a5,a4
    7c6c:	f40780e3          	beqz	a5,7bac <mount_volume+0x164>
    7c70:	034986b3          	mul	a3,s3,s4
    7c74:	007ad713          	srli	a4,s5,0x7
    7c78:	00f70733          	add	a4,a4,a5
    7c7c:	00d70733          	add	a4,a4,a3
    7c80:	f2e566e3          	bltu	a0,a4,7bac <mount_volume+0x164>
    7c84:	40e504b3          	sub	s1,a0,a4
    7c88:	f364e2e3          	bltu	s1,s6,7bac <mount_volume+0x164>
    7c8c:	0364d4b3          	divu	s1,s1,s6
    7c90:	10000637          	lui	a2,0x10000
    7c94:	ff560613          	addi	a2,a2,-11 # ffffff5 <_etext+0xffddc31>
    7c98:	f0966ae3          	bltu	a2,s1,7bac <mount_volume+0x164>
    7c9c:	00010637          	lui	a2,0x10
    7ca0:	ff560613          	addi	a2,a2,-11 # fff5 <oem2uni950+0x2741>
    7ca4:	00300993          	li	s3,3
    7ca8:	00966a63          	bltu	a2,s1,7cbc <mount_volume+0x274>
    7cac:	000019b7          	lui	s3,0x1
    7cb0:	ff598993          	addi	s3,s3,-11 # ff5 <hal_sys_uart_init+0x9>
    7cb4:	0099b9b3          	sltu	s3,s3,s1
    7cb8:	00198993          	addi	s3,s3,1
    7cbc:	00e90733          	add	a4,s2,a4
    7cc0:	00248493          	addi	s1,s1,2
    7cc4:	012787b3          	add	a5,a5,s2
    7cc8:	02e42a23          	sw	a4,52(s0)
    7ccc:	00942e23          	sw	s1,28(s0)
    7cd0:	03242423          	sw	s2,40(s0)
    7cd4:	02f42623          	sw	a5,44(s0)
    7cd8:	00300713          	li	a4,3
    7cdc:	10e99463          	bne	s3,a4,7de4 <mount_volume+0x39c>
    7ce0:	06344783          	lbu	a5,99(s0)
    7ce4:	06244703          	lbu	a4,98(s0)
    7ce8:	00879793          	slli	a5,a5,0x8
    7cec:	00e7e7b3          	or	a5,a5,a4
    7cf0:	00fae7b3          	or	a5,s5,a5
    7cf4:	ea079ce3          	bnez	a5,7bac <mount_volume+0x164>
    7cf8:	06440513          	addi	a0,s0,100
    7cfc:	b80ff0ef          	jal	707c <ld_32>
    7d00:	00249493          	slli	s1,s1,0x2
    7d04:	000017b7          	lui	a5,0x1
    7d08:	fff78793          	addi	a5,a5,-1 # fff <hal_sys_putchar+0x3>
    7d0c:	00f484b3          	add	s1,s1,a5
    7d10:	02a42823          	sw	a0,48(s0)
    7d14:	00c4d493          	srli	s1,s1,0xc
    7d18:	e89a6ae3          	bltu	s4,s1,7bac <mount_volume+0x164>
    7d1c:	fff00793          	li	a5,-1
    7d20:	00f42a23          	sw	a5,20(s0)
    7d24:	00f42823          	sw	a5,16(s0)
    7d28:	f8000793          	li	a5,-128
    7d2c:	00f402a3          	sb	a5,5(s0)
    7d30:	00300793          	li	a5,3
    7d34:	08f99063          	bne	s3,a5,7db4 <mount_volume+0x36c>
    7d38:	06944783          	lbu	a5,105(s0)
    7d3c:	06844703          	lbu	a4,104(s0)
    7d40:	00879793          	slli	a5,a5,0x8
    7d44:	00e7e7b3          	or	a5,a5,a4
    7d48:	00100713          	li	a4,1
    7d4c:	06e79463          	bne	a5,a4,7db4 <mount_volume+0x36c>
    7d50:	00e905b3          	add	a1,s2,a4
    7d54:	00040513          	mv	a0,s0
    7d58:	8cdff0ef          	jal	7624 <move_window>
    7d5c:	04051c63          	bnez	a0,7db4 <mount_volume+0x36c>
    7d60:	000402a3          	sb	zero,5(s0)
    7d64:	03840513          	addi	a0,s0,56
    7d68:	b14ff0ef          	jal	707c <ld_32>
    7d6c:	416157b7          	lui	a5,0x41615
    7d70:	25278793          	addi	a5,a5,594 # 41615252 <_stack_point+0x115f5252>
    7d74:	04f51063          	bne	a0,a5,7db4 <mount_volume+0x36c>
    7d78:	21c40513          	addi	a0,s0,540
    7d7c:	b00ff0ef          	jal	707c <ld_32>
    7d80:	614177b7          	lui	a5,0x61417
    7d84:	27278793          	addi	a5,a5,626 # 61417272 <_stack_point+0x313f7272>
    7d88:	02f51663          	bne	a0,a5,7db4 <mount_volume+0x36c>
    7d8c:	23440513          	addi	a0,s0,564
    7d90:	aecff0ef          	jal	707c <ld_32>
    7d94:	aa5507b7          	lui	a5,0xaa550
    7d98:	00f51e63          	bne	a0,a5,7db4 <mount_volume+0x36c>
    7d9c:	22040513          	addi	a0,s0,544
    7da0:	adcff0ef          	jal	707c <ld_32>
    7da4:	00a42a23          	sw	a0,20(s0)
    7da8:	22440513          	addi	a0,s0,548
    7dac:	ad0ff0ef          	jal	707c <ld_32>
    7db0:	00a42823          	sw	a0,16(s0)
    7db4:	3000f737          	lui	a4,0x3000f
    7db8:	37e75783          	lhu	a5,894(a4) # 3000f37e <Fsid>
    7dbc:	01340023          	sb	s3,0(s0)
    7dc0:	00042c23          	sw	zero,24(s0)
    7dc4:	00178793          	addi	a5,a5,1 # aa550001 <_stack_point+0x7a530001>
    7dc8:	36f71f23          	sh	a5,894(a4)
    7dcc:	00f41323          	sh	a5,6(s0)
    7dd0:	300007b7          	lui	a5,0x30000
    7dd4:	23c78793          	addi	a5,a5,572 # 3000023c <LfnBuf>
    7dd8:	00f42623          	sw	a5,12(s0)
    7ddc:	00000793          	li	a5,0
    7de0:	cf5ff06f          	j	7ad4 <mount_volume+0x8c>
    7de4:	dc0a84e3          	beqz	s5,7bac <mount_volume+0x164>
    7de8:	00d78533          	add	a0,a5,a3
    7dec:	00200793          	li	a5,2
    7df0:	00f99663          	bne	s3,a5,7dfc <mount_volume+0x3b4>
    7df4:	00149493          	slli	s1,s1,0x1
    7df8:	f0dff06f          	j	7d04 <mount_volume+0x2bc>
    7dfc:	02e48733          	mul	a4,s1,a4
    7e00:	0014f493          	andi	s1,s1,1
    7e04:	00175713          	srli	a4,a4,0x1
    7e08:	009704b3          	add	s1,a4,s1
    7e0c:	ef9ff06f          	j	7d04 <mount_volume+0x2bc>
    7e10:	00b00793          	li	a5,11
    7e14:	cc1ff06f          	j	7ad4 <mount_volume+0x8c>

00007e18 <ld_clust.isra.0>:
    7e18:	01b5c783          	lbu	a5,27(a1)
    7e1c:	01a5c683          	lbu	a3,26(a1)
    7e20:	00050713          	mv	a4,a0
    7e24:	00879793          	slli	a5,a5,0x8
    7e28:	00d7e533          	or	a0,a5,a3
    7e2c:	00300793          	li	a5,3
    7e30:	00f71e63          	bne	a4,a5,7e4c <ld_clust.isra.0+0x34>
    7e34:	0155c783          	lbu	a5,21(a1)
    7e38:	0145c703          	lbu	a4,20(a1)
    7e3c:	00879793          	slli	a5,a5,0x8
    7e40:	00e7e7b3          	or	a5,a5,a4
    7e44:	01079793          	slli	a5,a5,0x10
    7e48:	00f56533          	or	a0,a0,a5
    7e4c:	00008067          	ret

00007e50 <get_fat.isra.0>:
    7e50:	00100793          	li	a5,1
    7e54:	14b7f663          	bgeu	a5,a1,7fa0 <get_fat.isra.0+0x150>
    7e58:	01c52703          	lw	a4,28(a0)
    7e5c:	fe010113          	addi	sp,sp,-32
    7e60:	01212823          	sw	s2,16(sp)
    7e64:	00112e23          	sw	ra,28(sp)
    7e68:	00812c23          	sw	s0,24(sp)
    7e6c:	00912a23          	sw	s1,20(sp)
    7e70:	01312623          	sw	s3,12(sp)
    7e74:	01412423          	sw	s4,8(sp)
    7e78:	00050913          	mv	s2,a0
    7e7c:	04e5f063          	bgeu	a1,a4,7ebc <get_fat.isra.0+0x6c>
    7e80:	00054703          	lbu	a4,0(a0)
    7e84:	00200693          	li	a3,2
    7e88:	00058493          	mv	s1,a1
    7e8c:	0ad70663          	beq	a4,a3,7f38 <get_fat.isra.0+0xe8>
    7e90:	00300693          	li	a3,3
    7e94:	0cd70c63          	beq	a4,a3,7f6c <get_fat.isra.0+0x11c>
    7e98:	02f71263          	bne	a4,a5,7ebc <get_fat.isra.0+0x6c>
    7e9c:	0015d993          	srli	s3,a1,0x1
    7ea0:	02c52783          	lw	a5,44(a0)
    7ea4:	00b989b3          	add	s3,s3,a1
    7ea8:	00c9d593          	srli	a1,s3,0xc
    7eac:	00f585b3          	add	a1,a1,a5
    7eb0:	f74ff0ef          	jal	7624 <move_window>
    7eb4:	02050663          	beqz	a0,7ee0 <get_fat.isra.0+0x90>
    7eb8:	fff00793          	li	a5,-1
    7ebc:	01c12083          	lw	ra,28(sp)
    7ec0:	01812403          	lw	s0,24(sp)
    7ec4:	01412483          	lw	s1,20(sp)
    7ec8:	01012903          	lw	s2,16(sp)
    7ecc:	00c12983          	lw	s3,12(sp)
    7ed0:	00812a03          	lw	s4,8(sp)
    7ed4:	00078513          	mv	a0,a5
    7ed8:	02010113          	addi	sp,sp,32
    7edc:	00008067          	ret
    7ee0:	000017b7          	lui	a5,0x1
    7ee4:	fff78413          	addi	s0,a5,-1 # fff <hal_sys_putchar+0x3>
    7ee8:	02c92783          	lw	a5,44(s2)
    7eec:	00198a13          	addi	s4,s3,1
    7ef0:	00ca5593          	srli	a1,s4,0xc
    7ef4:	0089f9b3          	and	s3,s3,s0
    7ef8:	013909b3          	add	s3,s2,s3
    7efc:	00f585b3          	add	a1,a1,a5
    7f00:	00090513          	mv	a0,s2
    7f04:	0389c983          	lbu	s3,56(s3)
    7f08:	f1cff0ef          	jal	7624 <move_window>
    7f0c:	fa0516e3          	bnez	a0,7eb8 <get_fat.isra.0+0x68>
    7f10:	008a7a33          	and	s4,s4,s0
    7f14:	01490a33          	add	s4,s2,s4
    7f18:	038a4703          	lbu	a4,56(s4)
    7f1c:	0014f493          	andi	s1,s1,1
    7f20:	00871713          	slli	a4,a4,0x8
    7f24:	01376733          	or	a4,a4,s3
    7f28:	008777b3          	and	a5,a4,s0
    7f2c:	f80488e3          	beqz	s1,7ebc <get_fat.isra.0+0x6c>
    7f30:	00475793          	srli	a5,a4,0x4
    7f34:	f89ff06f          	j	7ebc <get_fat.isra.0+0x6c>
    7f38:	02c52783          	lw	a5,44(a0)
    7f3c:	00b5d593          	srli	a1,a1,0xb
    7f40:	00f585b3          	add	a1,a1,a5
    7f44:	ee0ff0ef          	jal	7624 <move_window>
    7f48:	f60518e3          	bnez	a0,7eb8 <get_fat.isra.0+0x68>
    7f4c:	7ff4f493          	andi	s1,s1,2047
    7f50:	00149493          	slli	s1,s1,0x1
    7f54:	009904b3          	add	s1,s2,s1
    7f58:	0394c783          	lbu	a5,57(s1)
    7f5c:	0384c703          	lbu	a4,56(s1)
    7f60:	00879793          	slli	a5,a5,0x8
    7f64:	00e7e7b3          	or	a5,a5,a4
    7f68:	f55ff06f          	j	7ebc <get_fat.isra.0+0x6c>
    7f6c:	02c52783          	lw	a5,44(a0)
    7f70:	00a5d593          	srli	a1,a1,0xa
    7f74:	00f585b3          	add	a1,a1,a5
    7f78:	eacff0ef          	jal	7624 <move_window>
    7f7c:	f2051ee3          	bnez	a0,7eb8 <get_fat.isra.0+0x68>
    7f80:	3ff4f513          	andi	a0,s1,1023
    7f84:	03890913          	addi	s2,s2,56
    7f88:	00251513          	slli	a0,a0,0x2
    7f8c:	00a90533          	add	a0,s2,a0
    7f90:	8ecff0ef          	jal	707c <ld_32>
    7f94:	00451793          	slli	a5,a0,0x4
    7f98:	0047d793          	srli	a5,a5,0x4
    7f9c:	f21ff06f          	j	7ebc <get_fat.isra.0+0x6c>
    7fa0:	00078513          	mv	a0,a5
    7fa4:	00008067          	ret

00007fa8 <remove_chain>:
    7fa8:	00100793          	li	a5,1
    7fac:	0eb7f663          	bgeu	a5,a1,8098 <remove_chain+0xf0>
    7fb0:	fd010113          	addi	sp,sp,-48
    7fb4:	02912223          	sw	s1,36(sp)
    7fb8:	00052483          	lw	s1,0(a0)
    7fbc:	02812423          	sw	s0,40(sp)
    7fc0:	02112623          	sw	ra,44(sp)
    7fc4:	01c4a783          	lw	a5,28(s1)
    7fc8:	03212023          	sw	s2,32(sp)
    7fcc:	01312e23          	sw	s3,28(sp)
    7fd0:	01412c23          	sw	s4,24(sp)
    7fd4:	00058413          	mv	s0,a1
    7fd8:	0af5f863          	bgeu	a1,a5,8088 <remove_chain+0xe0>
    7fdc:	00060593          	mv	a1,a2
    7fe0:	00050913          	mv	s2,a0
    7fe4:	02061863          	bnez	a2,8014 <remove_chain+0x6c>
    7fe8:	00100993          	li	s3,1
    7fec:	fff00a13          	li	s4,-1
    7ff0:	00092503          	lw	a0,0(s2)
    7ff4:	00040593          	mv	a1,s0
    7ff8:	00812623          	sw	s0,12(sp)
    7ffc:	e55ff0ef          	jal	7e50 <get_fat.isra.0>
    8000:	00c12583          	lw	a1,12(sp)
    8004:	00050413          	mv	s0,a0
    8008:	02051e63          	bnez	a0,8044 <remove_chain+0x9c>
    800c:	00000513          	li	a0,0
    8010:	0140006f          	j	8024 <remove_chain+0x7c>
    8014:	fff00613          	li	a2,-1
    8018:	00048513          	mv	a0,s1
    801c:	fd0ff0ef          	jal	77ec <put_fat>
    8020:	fc0504e3          	beqz	a0,7fe8 <remove_chain+0x40>
    8024:	02c12083          	lw	ra,44(sp)
    8028:	02812403          	lw	s0,40(sp)
    802c:	02412483          	lw	s1,36(sp)
    8030:	02012903          	lw	s2,32(sp)
    8034:	01c12983          	lw	s3,28(sp)
    8038:	01812a03          	lw	s4,24(sp)
    803c:	03010113          	addi	sp,sp,48
    8040:	00008067          	ret
    8044:	05350263          	beq	a0,s3,8088 <remove_chain+0xe0>
    8048:	05450463          	beq	a0,s4,8090 <remove_chain+0xe8>
    804c:	00000613          	li	a2,0
    8050:	00048513          	mv	a0,s1
    8054:	f98ff0ef          	jal	77ec <put_fat>
    8058:	fc0516e3          	bnez	a0,8024 <remove_chain+0x7c>
    805c:	01c4a703          	lw	a4,28(s1)
    8060:	0144a783          	lw	a5,20(s1)
    8064:	ffe70693          	addi	a3,a4,-2
    8068:	00d7fc63          	bgeu	a5,a3,8080 <remove_chain+0xd8>
    806c:	00178793          	addi	a5,a5,1
    8070:	00f4aa23          	sw	a5,20(s1)
    8074:	0054c783          	lbu	a5,5(s1)
    8078:	0017e793          	ori	a5,a5,1
    807c:	00f482a3          	sb	a5,5(s1)
    8080:	f6e468e3          	bltu	s0,a4,7ff0 <remove_chain+0x48>
    8084:	f89ff06f          	j	800c <remove_chain+0x64>
    8088:	00200513          	li	a0,2
    808c:	f99ff06f          	j	8024 <remove_chain+0x7c>
    8090:	00100513          	li	a0,1
    8094:	f91ff06f          	j	8024 <remove_chain+0x7c>
    8098:	00200513          	li	a0,2
    809c:	00008067          	ret

000080a0 <create_chain>:
    80a0:	fe010113          	addi	sp,sp,-32
    80a4:	00912a23          	sw	s1,20(sp)
    80a8:	01412423          	sw	s4,8(sp)
    80ac:	01512223          	sw	s5,4(sp)
    80b0:	00112e23          	sw	ra,28(sp)
    80b4:	00812c23          	sw	s0,24(sp)
    80b8:	01212823          	sw	s2,16(sp)
    80bc:	01312623          	sw	s3,12(sp)
    80c0:	01612023          	sw	s6,0(sp)
    80c4:	00052483          	lw	s1,0(a0)
    80c8:	00050a93          	mv	s5,a0
    80cc:	00058a13          	mv	s4,a1
    80d0:	02059263          	bnez	a1,80f4 <create_chain+0x54>
    80d4:	0104a903          	lw	s2,16(s1)
    80d8:	06090863          	beqz	s2,8148 <create_chain+0xa8>
    80dc:	01c4a783          	lw	a5,28(s1)
    80e0:	06f97463          	bgeu	s2,a5,8148 <create_chain+0xa8>
    80e4:	0144a783          	lw	a5,20(s1)
    80e8:	06079463          	bnez	a5,8150 <create_chain+0xb0>
    80ec:	00000413          	li	s0,0
    80f0:	02c0006f          	j	811c <create_chain+0x7c>
    80f4:	00048513          	mv	a0,s1
    80f8:	d59ff0ef          	jal	7e50 <get_fat.isra.0>
    80fc:	00100793          	li	a5,1
    8100:	00050413          	mv	s0,a0
    8104:	12a7fe63          	bgeu	a5,a0,8240 <create_chain+0x1a0>
    8108:	fff00793          	li	a5,-1
    810c:	12f50e63          	beq	a0,a5,8248 <create_chain+0x1a8>
    8110:	01c4a783          	lw	a5,28(s1)
    8114:	000a0913          	mv	s2,s4
    8118:	fcf576e3          	bgeu	a0,a5,80e4 <create_chain+0x44>
    811c:	01c12083          	lw	ra,28(sp)
    8120:	00040513          	mv	a0,s0
    8124:	01812403          	lw	s0,24(sp)
    8128:	01412483          	lw	s1,20(sp)
    812c:	01012903          	lw	s2,16(sp)
    8130:	00c12983          	lw	s3,12(sp)
    8134:	00812a03          	lw	s4,8(sp)
    8138:	00412a83          	lw	s5,4(sp)
    813c:	00012b03          	lw	s6,0(sp)
    8140:	02010113          	addi	sp,sp,32
    8144:	00008067          	ret
    8148:	00100913          	li	s2,1
    814c:	f99ff06f          	j	80e4 <create_chain+0x44>
    8150:	05491263          	bne	s2,s4,8194 <create_chain+0xf4>
    8154:	01c4a783          	lw	a5,28(s1)
    8158:	00190413          	addi	s0,s2,1
    815c:	00f46463          	bltu	s0,a5,8164 <create_chain+0xc4>
    8160:	00200413          	li	s0,2
    8164:	000aa503          	lw	a0,0(s5)
    8168:	00040593          	mv	a1,s0
    816c:	ce5ff0ef          	jal	7e50 <get_fat.isra.0>
    8170:	00100793          	li	a5,1
    8174:	0cf50663          	beq	a0,a5,8240 <create_chain+0x1a0>
    8178:	fff00713          	li	a4,-1
    817c:	0ce50663          	beq	a0,a4,8248 <create_chain+0x1a8>
    8180:	04050c63          	beqz	a0,81d8 <create_chain+0x138>
    8184:	0104a983          	lw	s3,16(s1)
    8188:	0137f663          	bgeu	a5,s3,8194 <create_chain+0xf4>
    818c:	01c4a783          	lw	a5,28(s1)
    8190:	00f9e463          	bltu	s3,a5,8198 <create_chain+0xf8>
    8194:	00090993          	mv	s3,s2
    8198:	00098413          	mv	s0,s3
    819c:	00100913          	li	s2,1
    81a0:	fff00b13          	li	s6,-1
    81a4:	01c4a783          	lw	a5,28(s1)
    81a8:	00140413          	addi	s0,s0,1
    81ac:	00f46663          	bltu	s0,a5,81b8 <create_chain+0x118>
    81b0:	f3298ee3          	beq	s3,s2,80ec <create_chain+0x4c>
    81b4:	00200413          	li	s0,2
    81b8:	000aa503          	lw	a0,0(s5)
    81bc:	00040593          	mv	a1,s0
    81c0:	c91ff0ef          	jal	7e50 <get_fat.isra.0>
    81c4:	00050c63          	beqz	a0,81dc <create_chain+0x13c>
    81c8:	07250c63          	beq	a0,s2,8240 <create_chain+0x1a0>
    81cc:	07650e63          	beq	a0,s6,8248 <create_chain+0x1a8>
    81d0:	fd341ae3          	bne	s0,s3,81a4 <create_chain+0x104>
    81d4:	f19ff06f          	j	80ec <create_chain+0x4c>
    81d8:	fa040ee3          	beqz	s0,8194 <create_chain+0xf4>
    81dc:	fff00613          	li	a2,-1
    81e0:	00040593          	mv	a1,s0
    81e4:	00048513          	mv	a0,s1
    81e8:	e04ff0ef          	jal	77ec <put_fat>
    81ec:	04051663          	bnez	a0,8238 <create_chain+0x198>
    81f0:	020a1a63          	bnez	s4,8224 <create_chain+0x184>
    81f4:	0144a783          	lw	a5,20(s1)
    81f8:	0084a823          	sw	s0,16(s1)
    81fc:	f20780e3          	beqz	a5,811c <create_chain+0x7c>
    8200:	01c4a703          	lw	a4,28(s1)
    8204:	ffe70713          	addi	a4,a4,-2
    8208:	f0f76ae3          	bltu	a4,a5,811c <create_chain+0x7c>
    820c:	fff78793          	addi	a5,a5,-1
    8210:	00f4aa23          	sw	a5,20(s1)
    8214:	0054c783          	lbu	a5,5(s1)
    8218:	0017e793          	ori	a5,a5,1
    821c:	00f482a3          	sb	a5,5(s1)
    8220:	efdff06f          	j	811c <create_chain+0x7c>
    8224:	00040613          	mv	a2,s0
    8228:	000a0593          	mv	a1,s4
    822c:	00048513          	mv	a0,s1
    8230:	dbcff0ef          	jal	77ec <put_fat>
    8234:	fc0500e3          	beqz	a0,81f4 <create_chain+0x154>
    8238:	00100793          	li	a5,1
    823c:	00f50663          	beq	a0,a5,8248 <create_chain+0x1a8>
    8240:	00100413          	li	s0,1
    8244:	ed9ff06f          	j	811c <create_chain+0x7c>
    8248:	fff00413          	li	s0,-1
    824c:	ed1ff06f          	j	811c <create_chain+0x7c>

00008250 <dir_next>:
    8250:	fd010113          	addi	sp,sp,-48
    8254:	03212023          	sw	s2,32(sp)
    8258:	01052903          	lw	s2,16(a0)
    825c:	02912223          	sw	s1,36(sp)
    8260:	02112623          	sw	ra,44(sp)
    8264:	02812423          	sw	s0,40(sp)
    8268:	01312e23          	sw	s3,28(sp)
    826c:	01412c23          	sw	s4,24(sp)
    8270:	01512a23          	sw	s5,20(sp)
    8274:	02090913          	addi	s2,s2,32
    8278:	002007b7          	lui	a5,0x200
    827c:	00052483          	lw	s1,0(a0)
    8280:	00f96463          	bltu	s2,a5,8288 <dir_next+0x38>
    8284:	00052c23          	sw	zero,24(a0)
    8288:	01852783          	lw	a5,24(a0)
    828c:	02078c63          	beqz	a5,82c4 <dir_next+0x74>
    8290:	01491713          	slli	a4,s2,0x14
    8294:	00058a13          	mv	s4,a1
    8298:	00050413          	mv	s0,a0
    829c:	01475993          	srli	s3,a4,0x14
    82a0:	0e071063          	bnez	a4,8380 <dir_next+0x130>
    82a4:	01452583          	lw	a1,20(a0)
    82a8:	00178793          	addi	a5,a5,1 # 200001 <_etext+0x1ddc3d>
    82ac:	00f52c23          	sw	a5,24(a0)
    82b0:	02059e63          	bnez	a1,82ec <dir_next+0x9c>
    82b4:	0084d703          	lhu	a4,8(s1)
    82b8:	00595793          	srli	a5,s2,0x5
    82bc:	0ce7e263          	bltu	a5,a4,8380 <dir_next+0x130>
    82c0:	00042c23          	sw	zero,24(s0)
    82c4:	00400513          	li	a0,4
    82c8:	02c12083          	lw	ra,44(sp)
    82cc:	02812403          	lw	s0,40(sp)
    82d0:	02412483          	lw	s1,36(sp)
    82d4:	02012903          	lw	s2,32(sp)
    82d8:	01c12983          	lw	s3,28(sp)
    82dc:	01812a03          	lw	s4,24(sp)
    82e0:	01412a83          	lw	s5,20(sp)
    82e4:	03010113          	addi	sp,sp,48
    82e8:	00008067          	ret
    82ec:	00a4d783          	lhu	a5,10(s1)
    82f0:	00c95713          	srli	a4,s2,0xc
    82f4:	fff78793          	addi	a5,a5,-1
    82f8:	00e7f7b3          	and	a5,a5,a4
    82fc:	08079263          	bnez	a5,8380 <dir_next+0x130>
    8300:	00048513          	mv	a0,s1
    8304:	b4dff0ef          	jal	7e50 <get_fat.isra.0>
    8308:	00100a93          	li	s5,1
    830c:	00050593          	mv	a1,a0
    8310:	00aae663          	bltu	s5,a0,831c <dir_next+0xcc>
    8314:	00200513          	li	a0,2
    8318:	fb1ff06f          	j	82c8 <dir_next+0x78>
    831c:	fff00793          	li	a5,-1
    8320:	00f51663          	bne	a0,a5,832c <dir_next+0xdc>
    8324:	00100513          	li	a0,1
    8328:	fa1ff06f          	j	82c8 <dir_next+0x78>
    832c:	01c4a783          	lw	a5,28(s1)
    8330:	04f56063          	bltu	a0,a5,8370 <dir_next+0x120>
    8334:	f80a06e3          	beqz	s4,82c0 <dir_next+0x70>
    8338:	01442583          	lw	a1,20(s0)
    833c:	00040513          	mv	a0,s0
    8340:	d61ff0ef          	jal	80a0 <create_chain>
    8344:	00050593          	mv	a1,a0
    8348:	00700513          	li	a0,7
    834c:	f6058ee3          	beqz	a1,82c8 <dir_next+0x78>
    8350:	fd5582e3          	beq	a1,s5,8314 <dir_next+0xc4>
    8354:	fff00793          	li	a5,-1
    8358:	fcf586e3          	beq	a1,a5,8324 <dir_next+0xd4>
    835c:	00048513          	mv	a0,s1
    8360:	00b12623          	sw	a1,12(sp)
    8364:	e40ff0ef          	jal	79a4 <dir_clear>
    8368:	00c12583          	lw	a1,12(sp)
    836c:	fa051ce3          	bnez	a0,8324 <dir_next+0xd4>
    8370:	00b42a23          	sw	a1,20(s0)
    8374:	00048513          	mv	a0,s1
    8378:	d51fe0ef          	jal	70c8 <clst2sect>
    837c:	00a42c23          	sw	a0,24(s0)
    8380:	03848513          	addi	a0,s1,56
    8384:	01350533          	add	a0,a0,s3
    8388:	00a42e23          	sw	a0,28(s0)
    838c:	01242823          	sw	s2,16(s0)
    8390:	00000513          	li	a0,0
    8394:	f35ff06f          	j	82c8 <dir_next+0x78>

00008398 <dir_read.constprop.0>:
    8398:	fe010113          	addi	sp,sp,-32
    839c:	01212823          	sw	s2,16(sp)
    83a0:	00052903          	lw	s2,0(a0)
    83a4:	00912a23          	sw	s1,20(sp)
    83a8:	0ff00493          	li	s1,255
    83ac:	00812c23          	sw	s0,24(sp)
    83b0:	01312623          	sw	s3,12(sp)
    83b4:	01412423          	sw	s4,8(sp)
    83b8:	01512223          	sw	s5,4(sp)
    83bc:	01612023          	sw	s6,0(sp)
    83c0:	00112e23          	sw	ra,28(sp)
    83c4:	00050b13          	mv	s6,a0
    83c8:	00048a93          	mv	s5,s1
    83cc:	00400413          	li	s0,4
    83d0:	00800993          	li	s3,8
    83d4:	00f00a13          	li	s4,15
    83d8:	018b2583          	lw	a1,24(s6)
    83dc:	00059863          	bnez	a1,83ec <dir_read.constprop.0+0x54>
    83e0:	16040463          	beqz	s0,8548 <dir_read.constprop.0+0x1b0>
    83e4:	00400413          	li	s0,4
    83e8:	1300006f          	j	8518 <dir_read.constprop.0+0x180>
    83ec:	00090513          	mv	a0,s2
    83f0:	a34ff0ef          	jal	7624 <move_window>
    83f4:	00050413          	mv	s0,a0
    83f8:	12051063          	bnez	a0,8518 <dir_read.constprop.0+0x180>
    83fc:	01cb2503          	lw	a0,28(s6)
    8400:	00054783          	lbu	a5,0(a0)
    8404:	fe0780e3          	beqz	a5,83e4 <dir_read.constprop.0+0x4c>
    8408:	00b54703          	lbu	a4,11(a0)
    840c:	f1b78693          	addi	a3,a5,-229
    8410:	03f77713          	andi	a4,a4,63
    8414:	00eb0323          	sb	a4,6(s6)
    8418:	10068663          	beqz	a3,8524 <dir_read.constprop.0+0x18c>
    841c:	fd278693          	addi	a3,a5,-46
    8420:	10068263          	beqz	a3,8524 <dir_read.constprop.0+0x18c>
    8424:	fdf77693          	andi	a3,a4,-33
    8428:	0f368e63          	beq	a3,s3,8524 <dir_read.constprop.0+0x18c>
    842c:	11471463          	bne	a4,s4,8534 <dir_read.constprop.0+0x19c>
    8430:	0407f713          	andi	a4,a5,64
    8434:	0e070663          	beqz	a4,8520 <dir_read.constprop.0+0x188>
    8438:	0bf7fa93          	andi	s5,a5,191
    843c:	010b2783          	lw	a5,16(s6)
    8440:	00d54483          	lbu	s1,13(a0)
    8444:	02fb2623          	sw	a5,44(s6)
    8448:	00d54783          	lbu	a5,13(a0)
    844c:	0c979c63          	bne	a5,s1,8524 <dir_read.constprop.0+0x18c>
    8450:	01b54783          	lbu	a5,27(a0)
    8454:	01a54703          	lbu	a4,26(a0)
    8458:	00879793          	slli	a5,a5,0x8
    845c:	00e7e7b3          	or	a5,a5,a4
    8460:	0c079263          	bnez	a5,8524 <dir_read.constprop.0+0x18c>
    8464:	00054783          	lbu	a5,0(a0)
    8468:	00d00893          	li	a7,13
    846c:	00c92683          	lw	a3,12(s2)
    8470:	fbf7f793          	andi	a5,a5,-65
    8474:	fff78793          	addi	a5,a5,-1
    8478:	031787b3          	mul	a5,a5,a7
    847c:	000205b7          	lui	a1,0x20
    8480:	00010837          	lui	a6,0x10
    8484:	00100613          	li	a2,1
    8488:	78458593          	addi	a1,a1,1924 # 20784 <LfnOfs>
    848c:	fff80813          	addi	a6,a6,-1 # ffff <oem2uni950+0x274b>
    8490:	0ff00313          	li	t1,255
    8494:	00858733          	add	a4,a1,s0
    8498:	00074703          	lbu	a4,0(a4)
    849c:	00e50733          	add	a4,a0,a4
    84a0:	00074e03          	lbu	t3,0(a4)
    84a4:	00174703          	lbu	a4,1(a4)
    84a8:	00871713          	slli	a4,a4,0x8
    84ac:	01c76733          	or	a4,a4,t3
    84b0:	06060e63          	beqz	a2,852c <dir_read.constprop.0+0x194>
    84b4:	06f36863          	bltu	t1,a5,8524 <dir_read.constprop.0+0x18c>
    84b8:	00179613          	slli	a2,a5,0x1
    84bc:	00c68633          	add	a2,a3,a2
    84c0:	00e61023          	sh	a4,0(a2)
    84c4:	00178793          	addi	a5,a5,1
    84c8:	00070613          	mv	a2,a4
    84cc:	00140413          	addi	s0,s0,1
    84d0:	fd1412e3          	bne	s0,a7,8494 <dir_read.constprop.0+0xfc>
    84d4:	00054703          	lbu	a4,0(a0)
    84d8:	00675713          	srli	a4,a4,0x6
    84dc:	00177713          	andi	a4,a4,1
    84e0:	00070e63          	beqz	a4,84fc <dir_read.constprop.0+0x164>
    84e4:	00060c63          	beqz	a2,84fc <dir_read.constprop.0+0x164>
    84e8:	0ff00713          	li	a4,255
    84ec:	02f76c63          	bltu	a4,a5,8524 <dir_read.constprop.0+0x18c>
    84f0:	00179793          	slli	a5,a5,0x1
    84f4:	00f686b3          	add	a3,a3,a5
    84f8:	00069023          	sh	zero,0(a3)
    84fc:	fffa8a93          	addi	s5,s5,-1
    8500:	0ffafa93          	zext.b	s5,s5
    8504:	00000593          	li	a1,0
    8508:	000b0513          	mv	a0,s6
    850c:	d45ff0ef          	jal	8250 <dir_next>
    8510:	00050413          	mv	s0,a0
    8514:	ec0502e3          	beqz	a0,83d8 <dir_read.constprop.0+0x40>
    8518:	000b2c23          	sw	zero,24(s6)
    851c:	02c0006f          	j	8548 <dir_read.constprop.0+0x1b0>
    8520:	f35784e3          	beq	a5,s5,8448 <dir_read.constprop.0+0xb0>
    8524:	0ff00a93          	li	s5,255
    8528:	fddff06f          	j	8504 <dir_read.constprop.0+0x16c>
    852c:	fb0700e3          	beq	a4,a6,84cc <dir_read.constprop.0+0x134>
    8530:	ff5ff06f          	j	8524 <dir_read.constprop.0+0x18c>
    8534:	000a9663          	bnez	s5,8540 <dir_read.constprop.0+0x1a8>
    8538:	bbdfe0ef          	jal	70f4 <sum_sfn>
    853c:	00950663          	beq	a0,s1,8548 <dir_read.constprop.0+0x1b0>
    8540:	fff00793          	li	a5,-1
    8544:	02fb2623          	sw	a5,44(s6)
    8548:	01c12083          	lw	ra,28(sp)
    854c:	00040513          	mv	a0,s0
    8550:	01812403          	lw	s0,24(sp)
    8554:	01412483          	lw	s1,20(sp)
    8558:	01012903          	lw	s2,16(sp)
    855c:	00c12983          	lw	s3,12(sp)
    8560:	00812a03          	lw	s4,8(sp)
    8564:	00412a83          	lw	s5,4(sp)
    8568:	00012b03          	lw	s6,0(sp)
    856c:	02010113          	addi	sp,sp,32
    8570:	00008067          	ret

00008574 <dir_sdi>:
    8574:	fd010113          	addi	sp,sp,-48
    8578:	01312e23          	sw	s3,28(sp)
    857c:	ffe009b7          	lui	s3,0xffe00
    8580:	01f98993          	addi	s3,s3,31 # ffe0001f <_stack_point+0xcfde001f>
    8584:	02112623          	sw	ra,44(sp)
    8588:	02812423          	sw	s0,40(sp)
    858c:	02912223          	sw	s1,36(sp)
    8590:	03212023          	sw	s2,32(sp)
    8594:	01412c23          	sw	s4,24(sp)
    8598:	01512a23          	sw	s5,20(sp)
    859c:	01612823          	sw	s6,16(sp)
    85a0:	0135f9b3          	and	s3,a1,s3
    85a4:	02098a63          	beqz	s3,85d8 <dir_sdi+0x64>
    85a8:	00200993          	li	s3,2
    85ac:	02c12083          	lw	ra,44(sp)
    85b0:	02812403          	lw	s0,40(sp)
    85b4:	02412483          	lw	s1,36(sp)
    85b8:	02012903          	lw	s2,32(sp)
    85bc:	01812a03          	lw	s4,24(sp)
    85c0:	01412a83          	lw	s5,20(sp)
    85c4:	01012b03          	lw	s6,16(sp)
    85c8:	00098513          	mv	a0,s3
    85cc:	01c12983          	lw	s3,28(sp)
    85d0:	03010113          	addi	sp,sp,48
    85d4:	00008067          	ret
    85d8:	00058413          	mv	s0,a1
    85dc:	00b52823          	sw	a1,16(a0)
    85e0:	00852583          	lw	a1,8(a0)
    85e4:	00052483          	lw	s1,0(a0)
    85e8:	00050913          	mv	s2,a0
    85ec:	04059c63          	bnez	a1,8644 <dir_sdi+0xd0>
    85f0:	0004c703          	lbu	a4,0(s1)
    85f4:	00200793          	li	a5,2
    85f8:	00e7f663          	bgeu	a5,a4,8604 <dir_sdi+0x90>
    85fc:	0304a783          	lw	a5,48(s1)
    8600:	04079463          	bnez	a5,8648 <dir_sdi+0xd4>
    8604:	0084d703          	lhu	a4,8(s1)
    8608:	00545793          	srli	a5,s0,0x5
    860c:	f8e7fee3          	bgeu	a5,a4,85a8 <dir_sdi+0x34>
    8610:	0304a503          	lw	a0,48(s1)
    8614:	00a92c23          	sw	a0,24(s2)
    8618:	00b92a23          	sw	a1,20(s2)
    861c:	f80506e3          	beqz	a0,85a8 <dir_sdi+0x34>
    8620:	00c45793          	srli	a5,s0,0xc
    8624:	01441413          	slli	s0,s0,0x14
    8628:	03848493          	addi	s1,s1,56
    862c:	01445413          	srli	s0,s0,0x14
    8630:	00a787b3          	add	a5,a5,a0
    8634:	008484b3          	add	s1,s1,s0
    8638:	00f92c23          	sw	a5,24(s2)
    863c:	00992e23          	sw	s1,28(s2)
    8640:	f6dff06f          	j	85ac <dir_sdi+0x38>
    8644:	00058793          	mv	a5,a1
    8648:	00a4da03          	lhu	s4,10(s1)
    864c:	00078593          	mv	a1,a5
    8650:	fff00a93          	li	s5,-1
    8654:	00ca1a13          	slli	s4,s4,0xc
    8658:	00100b13          	li	s6,1
    865c:	01447c63          	bgeu	s0,s4,8674 <dir_sdi+0x100>
    8660:	00048513          	mv	a0,s1
    8664:	00b12623          	sw	a1,12(sp)
    8668:	a61fe0ef          	jal	70c8 <clst2sect>
    866c:	00c12583          	lw	a1,12(sp)
    8670:	fa5ff06f          	j	8614 <dir_sdi+0xa0>
    8674:	00092503          	lw	a0,0(s2)
    8678:	fd8ff0ef          	jal	7e50 <get_fat.isra.0>
    867c:	00050593          	mv	a1,a0
    8680:	01550c63          	beq	a0,s5,8698 <dir_sdi+0x124>
    8684:	f2ab72e3          	bgeu	s6,a0,85a8 <dir_sdi+0x34>
    8688:	01c4a783          	lw	a5,28(s1)
    868c:	f0f57ee3          	bgeu	a0,a5,85a8 <dir_sdi+0x34>
    8690:	41440433          	sub	s0,s0,s4
    8694:	fc9ff06f          	j	865c <dir_sdi+0xe8>
    8698:	00100993          	li	s3,1
    869c:	f11ff06f          	j	85ac <dir_sdi+0x38>

000086a0 <dir_remove>:
    86a0:	02c52583          	lw	a1,44(a0)
    86a4:	fe010113          	addi	sp,sp,-32
    86a8:	00812c23          	sw	s0,24(sp)
    86ac:	00912a23          	sw	s1,20(sp)
    86b0:	01212823          	sw	s2,16(sp)
    86b4:	00112e23          	sw	ra,28(sp)
    86b8:	01312623          	sw	s3,12(sp)
    86bc:	01412423          	sw	s4,8(sp)
    86c0:	fff00793          	li	a5,-1
    86c4:	00052483          	lw	s1,0(a0)
    86c8:	01052903          	lw	s2,16(a0)
    86cc:	00050413          	mv	s0,a0
    86d0:	04f59863          	bne	a1,a5,8720 <dir_remove+0x80>
    86d4:	fe500993          	li	s3,-27
    86d8:	00100a13          	li	s4,1
    86dc:	01842583          	lw	a1,24(s0)
    86e0:	00048513          	mv	a0,s1
    86e4:	f41fe0ef          	jal	7624 <move_window>
    86e8:	04051063          	bnez	a0,8728 <dir_remove+0x88>
    86ec:	01c42783          	lw	a5,28(s0)
    86f0:	01378023          	sb	s3,0(a5)
    86f4:	01448223          	sb	s4,4(s1)
    86f8:	01042783          	lw	a5,16(s0)
    86fc:	0327f663          	bgeu	a5,s2,8728 <dir_remove+0x88>
    8700:	00000593          	li	a1,0
    8704:	00040513          	mv	a0,s0
    8708:	b49ff0ef          	jal	8250 <dir_next>
    870c:	fc0508e3          	beqz	a0,86dc <dir_remove+0x3c>
    8710:	00400793          	li	a5,4
    8714:	00f51a63          	bne	a0,a5,8728 <dir_remove+0x88>
    8718:	00200513          	li	a0,2
    871c:	00c0006f          	j	8728 <dir_remove+0x88>
    8720:	e55ff0ef          	jal	8574 <dir_sdi>
    8724:	fa0508e3          	beqz	a0,86d4 <dir_remove+0x34>
    8728:	01c12083          	lw	ra,28(sp)
    872c:	01812403          	lw	s0,24(sp)
    8730:	01412483          	lw	s1,20(sp)
    8734:	01012903          	lw	s2,16(sp)
    8738:	00c12983          	lw	s3,12(sp)
    873c:	00812a03          	lw	s4,8(sp)
    8740:	02010113          	addi	sp,sp,32
    8744:	00008067          	ret

00008748 <dir_find>:
    8748:	fb010113          	addi	sp,sp,-80
    874c:	00000593          	li	a1,0
    8750:	04812423          	sw	s0,72(sp)
    8754:	04912223          	sw	s1,68(sp)
    8758:	03612823          	sw	s6,48(sp)
    875c:	04112623          	sw	ra,76(sp)
    8760:	00052b03          	lw	s6,0(a0)
    8764:	05212023          	sw	s2,64(sp)
    8768:	03312e23          	sw	s3,60(sp)
    876c:	03412c23          	sw	s4,56(sp)
    8770:	03512a23          	sw	s5,52(sp)
    8774:	03712623          	sw	s7,44(sp)
    8778:	03812423          	sw	s8,40(sp)
    877c:	03912223          	sw	s9,36(sp)
    8780:	03a12023          	sw	s10,32(sp)
    8784:	01b12e23          	sw	s11,28(sp)
    8788:	00050493          	mv	s1,a0
    878c:	de9ff0ef          	jal	8574 <dir_sdi>
    8790:	00050413          	mv	s0,a0
    8794:	1c051863          	bnez	a0,8964 <dir_find+0x21c>
    8798:	fff00a93          	li	s5,-1
    879c:	0ff00a13          	li	s4,255
    87a0:	02048793          	addi	a5,s1,32
    87a4:	0354a623          	sw	s5,44(s1)
    87a8:	000a0913          	mv	s2,s4
    87ac:	0e500b93          	li	s7,229
    87b0:	00f12423          	sw	a5,8(sp)
    87b4:	00f00c13          	li	s8,15
    87b8:	0184a583          	lw	a1,24(s1)
    87bc:	000b0513          	mv	a0,s6
    87c0:	e65fe0ef          	jal	7624 <move_window>
    87c4:	00050413          	mv	s0,a0
    87c8:	18051e63          	bnez	a0,8964 <dir_find+0x21c>
    87cc:	01c4ad03          	lw	s10,28(s1)
    87d0:	000d4d83          	lbu	s11,0(s10)
    87d4:	1c0d8863          	beqz	s11,89a4 <dir_find+0x25c>
    87d8:	00bd4783          	lbu	a5,11(s10)
    87dc:	03f7f713          	andi	a4,a5,63
    87e0:	00e48323          	sb	a4,6(s1)
    87e4:	017d8863          	beq	s11,s7,87f4 <dir_find+0xac>
    87e8:	0087f793          	andi	a5,a5,8
    87ec:	14078463          	beqz	a5,8934 <dir_find+0x1ec>
    87f0:	01870663          	beq	a4,s8,87fc <dir_find+0xb4>
    87f4:	0354a623          	sw	s5,44(s1)
    87f8:	12c0006f          	j	8924 <dir_find+0x1dc>
    87fc:	02b4c783          	lbu	a5,43(s1)
    8800:	0407f793          	andi	a5,a5,64
    8804:	0e079e63          	bnez	a5,8900 <dir_find+0x1b8>
    8808:	040df793          	andi	a5,s11,64
    880c:	10078663          	beqz	a5,8918 <dir_find+0x1d0>
    8810:	0104a783          	lw	a5,16(s1)
    8814:	0bfdfd93          	andi	s11,s11,191
    8818:	02f4a623          	sw	a5,44(s1)
    881c:	00dd4a03          	lbu	s4,13(s10)
    8820:	01bd4783          	lbu	a5,27(s10)
    8824:	01ad4703          	lbu	a4,26(s10)
    8828:	00879793          	slli	a5,a5,0x8
    882c:	00e7e7b3          	or	a5,a5,a4
    8830:	0e079a63          	bnez	a5,8924 <dir_find+0x1dc>
    8834:	000d4903          	lbu	s2,0(s10)
    8838:	00d00593          	li	a1,13
    883c:	00cb2c83          	lw	s9,12(s6)
    8840:	03f97913          	andi	s2,s2,63
    8844:	fff90913          	addi	s2,s2,-1
    8848:	02b90933          	mul	s2,s2,a1
    884c:	00020737          	lui	a4,0x20
    8850:	00010637          	lui	a2,0x10
    8854:	00100693          	li	a3,1
    8858:	78470713          	addi	a4,a4,1924 # 20784 <LfnOfs>
    885c:	fff60613          	addi	a2,a2,-1 # ffff <oem2uni950+0x274b>
    8860:	0ff00813          	li	a6,255
    8864:	008707b3          	add	a5,a4,s0
    8868:	0007c783          	lbu	a5,0(a5)
    886c:	00fd07b3          	add	a5,s10,a5
    8870:	0017c983          	lbu	s3,1(a5)
    8874:	0007c503          	lbu	a0,0(a5)
    8878:	00899993          	slli	s3,s3,0x8
    887c:	00a9e9b3          	or	s3,s3,a0
    8880:	0a068663          	beqz	a3,892c <dir_find+0x1e4>
    8884:	0b286063          	bltu	a6,s2,8924 <dir_find+0x1dc>
    8888:	00098513          	mv	a0,s3
    888c:	c44fe0ef          	jal	6cd0 <ff_wtoupper>
    8890:	00191793          	slli	a5,s2,0x1
    8894:	00fc87b3          	add	a5,s9,a5
    8898:	00a12623          	sw	a0,12(sp)
    889c:	0007d503          	lhu	a0,0(a5)
    88a0:	c30fe0ef          	jal	6cd0 <ff_wtoupper>
    88a4:	00c12783          	lw	a5,12(sp)
    88a8:	06a79e63          	bne	a5,a0,8924 <dir_find+0x1dc>
    88ac:	000207b7          	lui	a5,0x20
    88b0:	78478713          	addi	a4,a5,1924 # 20784 <LfnOfs>
    88b4:	000107b7          	lui	a5,0x10
    88b8:	00190913          	addi	s2,s2,1
    88bc:	00098693          	mv	a3,s3
    88c0:	0ff00813          	li	a6,255
    88c4:	00d00593          	li	a1,13
    88c8:	fff78613          	addi	a2,a5,-1 # ffff <oem2uni950+0x274b>
    88cc:	00140413          	addi	s0,s0,1
    88d0:	f8b41ae3          	bne	s0,a1,8864 <dir_find+0x11c>
    88d4:	000d4703          	lbu	a4,0(s10)
    88d8:	00675713          	srli	a4,a4,0x6
    88dc:	00177713          	andi	a4,a4,1
    88e0:	00070c63          	beqz	a4,88f8 <dir_find+0x1b0>
    88e4:	00068a63          	beqz	a3,88f8 <dir_find+0x1b0>
    88e8:	00191913          	slli	s2,s2,0x1
    88ec:	012c8cb3          	add	s9,s9,s2
    88f0:	000cd783          	lhu	a5,0(s9)
    88f4:	02079863          	bnez	a5,8924 <dir_find+0x1dc>
    88f8:	fffd8793          	addi	a5,s11,-1
    88fc:	0ff7f913          	zext.b	s2,a5
    8900:	00000593          	li	a1,0
    8904:	00048513          	mv	a0,s1
    8908:	949ff0ef          	jal	8250 <dir_next>
    890c:	00050413          	mv	s0,a0
    8910:	ea0504e3          	beqz	a0,87b8 <dir_find+0x70>
    8914:	0500006f          	j	8964 <dir_find+0x21c>
    8918:	01b91663          	bne	s2,s11,8924 <dir_find+0x1dc>
    891c:	00dd4783          	lbu	a5,13(s10)
    8920:	f14780e3          	beq	a5,s4,8820 <dir_find+0xd8>
    8924:	0ff00913          	li	s2,255
    8928:	fd9ff06f          	j	8900 <dir_find+0x1b8>
    892c:	fac980e3          	beq	s3,a2,88cc <dir_find+0x184>
    8930:	ff5ff06f          	j	8924 <dir_find+0x1dc>
    8934:	00091863          	bnez	s2,8944 <dir_find+0x1fc>
    8938:	000d0513          	mv	a0,s10
    893c:	fb8fe0ef          	jal	70f4 <sum_sfn>
    8940:	03450263          	beq	a0,s4,8964 <dir_find+0x21c>
    8944:	02b4c783          	lbu	a5,43(s1)
    8948:	0017f793          	andi	a5,a5,1
    894c:	ea0794e3          	bnez	a5,87f4 <dir_find+0xac>
    8950:	00812583          	lw	a1,8(sp)
    8954:	00b00613          	li	a2,11
    8958:	000d0513          	mv	a0,s10
    895c:	8b5f70ef          	jal	210 <memcmp>
    8960:	e8051ae3          	bnez	a0,87f4 <dir_find+0xac>
    8964:	04c12083          	lw	ra,76(sp)
    8968:	00040513          	mv	a0,s0
    896c:	04812403          	lw	s0,72(sp)
    8970:	04412483          	lw	s1,68(sp)
    8974:	04012903          	lw	s2,64(sp)
    8978:	03c12983          	lw	s3,60(sp)
    897c:	03812a03          	lw	s4,56(sp)
    8980:	03412a83          	lw	s5,52(sp)
    8984:	03012b03          	lw	s6,48(sp)
    8988:	02c12b83          	lw	s7,44(sp)
    898c:	02812c03          	lw	s8,40(sp)
    8990:	02412c83          	lw	s9,36(sp)
    8994:	02012d03          	lw	s10,32(sp)
    8998:	01c12d83          	lw	s11,28(sp)
    899c:	05010113          	addi	sp,sp,80
    89a0:	00008067          	ret
    89a4:	00400413          	li	s0,4
    89a8:	fbdff06f          	j	8964 <dir_find+0x21c>

000089ac <follow_path>:
    89ac:	00052783          	lw	a5,0(a0)
    89b0:	fb010113          	addi	sp,sp,-80
    89b4:	04112623          	sw	ra,76(sp)
    89b8:	04812423          	sw	s0,72(sp)
    89bc:	04912223          	sw	s1,68(sp)
    89c0:	05212023          	sw	s2,64(sp)
    89c4:	03312e23          	sw	s3,60(sp)
    89c8:	03412c23          	sw	s4,56(sp)
    89cc:	03512a23          	sw	s5,52(sp)
    89d0:	03612823          	sw	s6,48(sp)
    89d4:	03712623          	sw	s7,44(sp)
    89d8:	03812423          	sw	s8,40(sp)
    89dc:	03912223          	sw	s9,36(sp)
    89e0:	03a12023          	sw	s10,32(sp)
    89e4:	01b12e23          	sw	s11,28(sp)
    89e8:	00f12223          	sw	a5,4(sp)
    89ec:	0005c783          	lbu	a5,0(a1)
    89f0:	fd178713          	addi	a4,a5,-47
    89f4:	0e070263          	beqz	a4,8ad8 <follow_path+0x12c>
    89f8:	fa478793          	addi	a5,a5,-92
    89fc:	0c078e63          	beqz	a5,8ad8 <follow_path+0x12c>
    8a00:	00412783          	lw	a5,4(sp)
    8a04:	0187a783          	lw	a5,24(a5)
    8a08:	00f52423          	sw	a5,8(a0)
    8a0c:	0005c703          	lbu	a4,0(a1)
    8a10:	01f00793          	li	a5,31
    8a14:	0ee7f063          	bgeu	a5,a4,8af4 <follow_path+0x148>
    8a18:	000227b7          	lui	a5,0x22
    8a1c:	f8078793          	addi	a5,a5,-128 # 21f80 <log_level_colors+0x1798>
    8a20:	00050913          	mv	s2,a0
    8a24:	0ff00a93          	li	s5,255
    8a28:	00f12423          	sw	a5,8(sp)
    8a2c:	00092783          	lw	a5,0(s2)
    8a30:	00000493          	li	s1,0
    8a34:	07e00413          	li	s0,126
    8a38:	00c7aa03          	lw	s4,12(a5)
    8a3c:	05d00c13          	li	s8,93
    8a40:	0005c503          	lbu	a0,0(a1)
    8a44:	08000793          	li	a5,128
    8a48:	00158993          	addi	s3,a1,1
    8a4c:	0ea7f863          	bgeu	a5,a0,8b3c <follow_path+0x190>
    8a50:	05550463          	beq	a0,s5,8a98 <follow_path+0xec>
    8a54:	0015c703          	lbu	a4,1(a1)
    8a58:	03f00793          	li	a5,63
    8a5c:	06e7f863          	bgeu	a5,a4,8acc <follow_path+0x120>
    8a60:	00e47863          	bgeu	s0,a4,8a70 <follow_path+0xc4>
    8a64:	05f70713          	addi	a4,a4,95
    8a68:	0ff77713          	zext.b	a4,a4
    8a6c:	06ec6063          	bltu	s8,a4,8acc <follow_path+0x120>
    8a70:	0015c503          	lbu	a0,1(a1)
    8a74:	0005c703          	lbu	a4,0(a1)
    8a78:	00258993          	addi	s3,a1,2
    8a7c:	00851513          	slli	a0,a0,0x8
    8a80:	00e56733          	or	a4,a0,a4
    8a84:	00871713          	slli	a4,a4,0x8
    8a88:	00855513          	srli	a0,a0,0x8
    8a8c:	00e50533          	add	a0,a0,a4
    8a90:	01051513          	slli	a0,a0,0x10
    8a94:	01055513          	srli	a0,a0,0x10
    8a98:	3b600593          	li	a1,950
    8a9c:	99cfe0ef          	jal	6c38 <ff_oem2uni>
    8aa0:	00050c93          	mv	s9,a0
    8aa4:	02050463          	beqz	a0,8acc <follow_path+0x120>
    8aa8:	01f00713          	li	a4,31
    8aac:	08a77a63          	bgeu	a4,a0,8b40 <follow_path+0x194>
    8ab0:	02f00713          	li	a4,47
    8ab4:	0ce50263          	beq	a0,a4,8b78 <follow_path+0x1cc>
    8ab8:	05c00713          	li	a4,92
    8abc:	0ae50e63          	beq	a0,a4,8b78 <follow_path+0x1cc>
    8ac0:	07f00713          	li	a4,127
    8ac4:	08a77263          	bgeu	a4,a0,8b48 <follow_path+0x19c>
    8ac8:	09549a63          	bne	s1,s5,8b5c <follow_path+0x1b0>
    8acc:	00600513          	li	a0,6
    8ad0:	3a00006f          	j	8e70 <follow_path+0x4c4>
    8ad4:	00158593          	addi	a1,a1,1
    8ad8:	0005c783          	lbu	a5,0(a1)
    8adc:	fd178713          	addi	a4,a5,-47
    8ae0:	fe070ae3          	beqz	a4,8ad4 <follow_path+0x128>
    8ae4:	fa478793          	addi	a5,a5,-92
    8ae8:	fe0786e3          	beqz	a5,8ad4 <follow_path+0x128>
    8aec:	00000793          	li	a5,0
    8af0:	f19ff06f          	j	8a08 <follow_path+0x5c>
    8af4:	f8000793          	li	a5,-128
    8af8:	02f505a3          	sb	a5,43(a0)
    8afc:	04812403          	lw	s0,72(sp)
    8b00:	04c12083          	lw	ra,76(sp)
    8b04:	04412483          	lw	s1,68(sp)
    8b08:	04012903          	lw	s2,64(sp)
    8b0c:	03c12983          	lw	s3,60(sp)
    8b10:	03812a03          	lw	s4,56(sp)
    8b14:	03412a83          	lw	s5,52(sp)
    8b18:	03012b03          	lw	s6,48(sp)
    8b1c:	02c12b83          	lw	s7,44(sp)
    8b20:	02812c03          	lw	s8,40(sp)
    8b24:	02412c83          	lw	s9,36(sp)
    8b28:	02012d03          	lw	s10,32(sp)
    8b2c:	01c12d83          	lw	s11,28(sp)
    8b30:	00000593          	li	a1,0
    8b34:	05010113          	addi	sp,sp,80
    8b38:	a3dff06f          	j	8574 <dir_sdi>
    8b3c:	f4051ee3          	bnez	a0,8a98 <follow_path+0xec>
    8b40:	00400413          	li	s0,4
    8b44:	0500006f          	j	8b94 <follow_path+0x1e8>
    8b48:	00050593          	mv	a1,a0
    8b4c:	00812503          	lw	a0,8(sp)
    8b50:	ef0f70ef          	jal	240 <strchr>
    8b54:	f6050ae3          	beqz	a0,8ac8 <follow_path+0x11c>
    8b58:	f75ff06f          	j	8acc <follow_path+0x120>
    8b5c:	00149713          	slli	a4,s1,0x1
    8b60:	00ea0733          	add	a4,s4,a4
    8b64:	01971023          	sh	s9,0(a4)
    8b68:	00148493          	addi	s1,s1,1
    8b6c:	00098593          	mv	a1,s3
    8b70:	ed1ff06f          	j	8a40 <follow_path+0x94>
    8b74:	00198993          	addi	s3,s3,1
    8b78:	0009c403          	lbu	s0,0(s3)
    8b7c:	fd140713          	addi	a4,s0,-47
    8b80:	fe070ae3          	beqz	a4,8b74 <follow_path+0x1c8>
    8b84:	fa440713          	addi	a4,s0,-92
    8b88:	fe0706e3          	beqz	a4,8b74 <follow_path+0x1c8>
    8b8c:	02043413          	sltiu	s0,s0,32
    8b90:	00241413          	slli	s0,s0,0x2
    8b94:	00100713          	li	a4,1
    8b98:	06e49e63          	bne	s1,a4,8c14 <follow_path+0x268>
    8b9c:	000a5683          	lhu	a3,0(s4)
    8ba0:	02e00713          	li	a4,46
    8ba4:	0ae69463          	bne	a3,a4,8c4c <follow_path+0x2a0>
    8ba8:	00149713          	slli	a4,s1,0x1
    8bac:	00ea07b3          	add	a5,s4,a4
    8bb0:	00079023          	sh	zero,0(a5)
    8bb4:	00b00693          	li	a3,11
    8bb8:	00000793          	li	a5,0
    8bbc:	02000713          	li	a4,32
    8bc0:	0097f463          	bgeu	a5,s1,8bc8 <follow_path+0x21c>
    8bc4:	02e00713          	li	a4,46
    8bc8:	00f90633          	add	a2,s2,a5
    8bcc:	02e60023          	sb	a4,32(a2)
    8bd0:	00178793          	addi	a5,a5,1
    8bd4:	fed794e3          	bne	a5,a3,8bbc <follow_path+0x210>
    8bd8:	02046413          	ori	s0,s0,32
    8bdc:	028905a3          	sb	s0,43(s2)
    8be0:	00090513          	mv	a0,s2
    8be4:	b65ff0ef          	jal	8748 <dir_find>
    8be8:	2c050263          	beqz	a0,8eac <follow_path+0x500>
    8bec:	00400793          	li	a5,4
    8bf0:	28f51063          	bne	a0,a5,8e70 <follow_path+0x4c4>
    8bf4:	00a477b3          	and	a5,s0,a0
    8bf8:	02047413          	andi	s0,s0,32
    8bfc:	26040863          	beqz	s0,8e6c <follow_path+0x4c0>
    8c00:	2e078463          	beqz	a5,8ee8 <follow_path+0x53c>
    8c04:	f8000793          	li	a5,-128
    8c08:	02f905a3          	sb	a5,43(s2)
    8c0c:	00000513          	li	a0,0
    8c10:	2600006f          	j	8e70 <follow_path+0x4c4>
    8c14:	00200713          	li	a4,2
    8c18:	02e49a63          	bne	s1,a4,8c4c <follow_path+0x2a0>
    8c1c:	002a5703          	lhu	a4,2(s4)
    8c20:	02e00693          	li	a3,46
    8c24:	02d71463          	bne	a4,a3,8c4c <follow_path+0x2a0>
    8c28:	000a5683          	lhu	a3,0(s4)
    8c2c:	f79ff06f          	j	8ba4 <follow_path+0x1f8>
    8c30:	00ea06b3          	add	a3,s4,a4
    8c34:	ffe6d683          	lhu	a3,-2(a3)
    8c38:	fe068613          	addi	a2,a3,-32
    8c3c:	00060663          	beqz	a2,8c48 <follow_path+0x29c>
    8c40:	fd268693          	addi	a3,a3,-46
    8c44:	00069863          	bnez	a3,8c54 <follow_path+0x2a8>
    8c48:	fff48493          	addi	s1,s1,-1
    8c4c:	00149713          	slli	a4,s1,0x1
    8c50:	fe0490e3          	bnez	s1,8c30 <follow_path+0x284>
    8c54:	00ea0733          	add	a4,s4,a4
    8c58:	00071023          	sh	zero,0(a4)
    8c5c:	e60488e3          	beqz	s1,8acc <follow_path+0x120>
    8c60:	00000693          	li	a3,0
    8c64:	02000593          	li	a1,32
    8c68:	00169713          	slli	a4,a3,0x1
    8c6c:	00ea0733          	add	a4,s4,a4
    8c70:	00075603          	lhu	a2,0(a4)
    8c74:	00068c13          	mv	s8,a3
    8c78:	00168693          	addi	a3,a3,1
    8c7c:	feb606e3          	beq	a2,a1,8c68 <follow_path+0x2bc>
    8c80:	fd260613          	addi	a2,a2,-46
    8c84:	00163613          	seqz	a2,a2
    8c88:	018036b3          	snez	a3,s8
    8c8c:	00c6e6b3          	or	a3,a3,a2
    8c90:	40d006b3          	neg	a3,a3
    8c94:	0036f693          	andi	a3,a3,3
    8c98:	00d46433          	or	s0,s0,a3
    8c9c:	02e00613          	li	a2,46
    8ca0:	00149693          	slli	a3,s1,0x1
    8ca4:	00da06b3          	add	a3,s4,a3
    8ca8:	ffe6d683          	lhu	a3,-2(a3)
    8cac:	00c68663          	beq	a3,a2,8cb8 <follow_path+0x30c>
    8cb0:	fff48493          	addi	s1,s1,-1
    8cb4:	fe0496e3          	bnez	s1,8ca0 <follow_path+0x2f4>
    8cb8:	02000593          	li	a1,32
    8cbc:	00b00613          	li	a2,11
    8cc0:	00b90533          	add	a0,s2,a1
    8cc4:	d10f70ef          	jal	1d4 <memset>
    8cc8:	00800b13          	li	s6,8
    8ccc:	00000d93          	li	s11,0
    8cd0:	00000d13          	li	s10,0
    8cd4:	00b00c93          	li	s9,11
    8cd8:	001c1613          	slli	a2,s8,0x1
    8cdc:	00ca0633          	add	a2,s4,a2
    8ce0:	00065583          	lhu	a1,0(a2)
    8ce4:	02058c63          	beqz	a1,8d1c <follow_path+0x370>
    8ce8:	02000793          	li	a5,32
    8cec:	001c0c13          	addi	s8,s8,1
    8cf0:	00f58a63          	beq	a1,a5,8d04 <follow_path+0x358>
    8cf4:	fd258613          	addi	a2,a1,-46
    8cf8:	409c0533          	sub	a0,s8,s1
    8cfc:	00061863          	bnez	a2,8d0c <follow_path+0x360>
    8d00:	00050a63          	beqz	a0,8d14 <follow_path+0x368>
    8d04:	00346413          	ori	s0,s0,3
    8d08:	fd1ff06f          	j	8cd8 <follow_path+0x32c>
    8d0c:	00050463          	beqz	a0,8d14 <follow_path+0x368>
    8d10:	076de663          	bltu	s11,s6,8d7c <follow_path+0x3d0>
    8d14:	059b1463          	bne	s6,s9,8d5c <follow_path+0x3b0>
    8d18:	00346413          	ori	s0,s0,3
    8d1c:	02094703          	lbu	a4,32(s2)
    8d20:	0e500793          	li	a5,229
    8d24:	00f71663          	bne	a4,a5,8d30 <follow_path+0x384>
    8d28:	00500793          	li	a5,5
    8d2c:	02f90023          	sb	a5,32(s2)
    8d30:	00800793          	li	a5,8
    8d34:	00fb1463          	bne	s6,a5,8d3c <follow_path+0x390>
    8d38:	002d1d13          	slli	s10,s10,0x2
    8d3c:	00cd7793          	andi	a5,s10,12
    8d40:	00c00713          	li	a4,12
    8d44:	00e78863          	beq	a5,a4,8d54 <follow_path+0x3a8>
    8d48:	003d7793          	andi	a5,s10,3
    8d4c:	00300713          	li	a4,3
    8d50:	0ee79c63          	bne	a5,a4,8e48 <follow_path+0x49c>
    8d54:	00246413          	ori	s0,s0,2
    8d58:	e85ff06f          	j	8bdc <follow_path+0x230>
    8d5c:	009c0663          	beq	s8,s1,8d68 <follow_path+0x3bc>
    8d60:	00346413          	ori	s0,s0,3
    8d64:	fb84ece3          	bltu	s1,s8,8d1c <follow_path+0x370>
    8d68:	002d1d13          	slli	s10,s10,0x2
    8d6c:	00048c13          	mv	s8,s1
    8d70:	00b00b13          	li	s6,11
    8d74:	00800d93          	li	s11,8
    8d78:	f61ff06f          	j	8cd8 <follow_path+0x32c>
    8d7c:	07f00513          	li	a0,127
    8d80:	00040b93          	mv	s7,s0
    8d84:	06b57063          	bgeu	a0,a1,8de4 <follow_path+0x438>
    8d88:	00058513          	mv	a0,a1
    8d8c:	f45fd0ef          	jal	6cd0 <ff_wtoupper>
    8d90:	3b600593          	li	a1,950
    8d94:	dbdfd0ef          	jal	6b50 <ff_uni2oem>
    8d98:	00050593          	mv	a1,a0
    8d9c:	0ff00513          	li	a0,255
    8da0:	00246b93          	ori	s7,s0,2
    8da4:	02b57e63          	bgeu	a0,a1,8de0 <follow_path+0x434>
    8da8:	fffb0513          	addi	a0,s6,-1
    8dac:	00ade863          	bltu	s11,a0,8dbc <follow_path+0x410>
    8db0:	00346413          	ori	s0,s0,3
    8db4:	000b0d93          	mv	s11,s6
    8db8:	f21ff06f          	j	8cd8 <follow_path+0x32c>
    8dbc:	01b90533          	add	a0,s2,s11
    8dc0:	0085d813          	srli	a6,a1,0x8
    8dc4:	03050023          	sb	a6,32(a0)
    8dc8:	001d8d93          	addi	s11,s11,1
    8dcc:	01b90533          	add	a0,s2,s11
    8dd0:	02b50023          	sb	a1,32(a0)
    8dd4:	001d8d93          	addi	s11,s11,1
    8dd8:	000b8413          	mv	s0,s7
    8ddc:	efdff06f          	j	8cd8 <follow_path+0x32c>
    8de0:	00058e63          	beqz	a1,8dfc <follow_path+0x450>
    8de4:	00022537          	lui	a0,0x22
    8de8:	f8c50513          	addi	a0,a0,-116 # 21f8c <log_level_colors+0x17a4>
    8dec:	00b12623          	sw	a1,12(sp)
    8df0:	c50f70ef          	jal	240 <strchr>
    8df4:	00c12583          	lw	a1,12(sp)
    8df8:	00050863          	beqz	a0,8e08 <follow_path+0x45c>
    8dfc:	003beb93          	ori	s7,s7,3
    8e00:	05f00593          	li	a1,95
    8e04:	fc9ff06f          	j	8dcc <follow_path+0x420>
    8e08:	fbf58513          	addi	a0,a1,-65
    8e0c:	01051513          	slli	a0,a0,0x10
    8e10:	01055513          	srli	a0,a0,0x10
    8e14:	01900813          	li	a6,25
    8e18:	00a86663          	bltu	a6,a0,8e24 <follow_path+0x478>
    8e1c:	002d6d13          	ori	s10,s10,2
    8e20:	fadff06f          	j	8dcc <follow_path+0x420>
    8e24:	f9f58513          	addi	a0,a1,-97
    8e28:	01051513          	slli	a0,a0,0x10
    8e2c:	01055513          	srli	a0,a0,0x10
    8e30:	f8a86ee3          	bltu	a6,a0,8dcc <follow_path+0x420>
    8e34:	fe058593          	addi	a1,a1,-32
    8e38:	01059593          	slli	a1,a1,0x10
    8e3c:	001d6d13          	ori	s10,s10,1
    8e40:	0105d593          	srli	a1,a1,0x10
    8e44:	f89ff06f          	j	8dcc <follow_path+0x420>
    8e48:	00247793          	andi	a5,s0,2
    8e4c:	d80798e3          	bnez	a5,8bdc <follow_path+0x230>
    8e50:	001d7793          	andi	a5,s10,1
    8e54:	00479793          	slli	a5,a5,0x4
    8e58:	004d7d13          	andi	s10,s10,4
    8e5c:	00f46433          	or	s0,s0,a5
    8e60:	d60d0ee3          	beqz	s10,8bdc <follow_path+0x230>
    8e64:	00846413          	ori	s0,s0,8
    8e68:	d75ff06f          	j	8bdc <follow_path+0x230>
    8e6c:	08078263          	beqz	a5,8ef0 <follow_path+0x544>
    8e70:	04c12083          	lw	ra,76(sp)
    8e74:	04812403          	lw	s0,72(sp)
    8e78:	04412483          	lw	s1,68(sp)
    8e7c:	04012903          	lw	s2,64(sp)
    8e80:	03c12983          	lw	s3,60(sp)
    8e84:	03812a03          	lw	s4,56(sp)
    8e88:	03412a83          	lw	s5,52(sp)
    8e8c:	03012b03          	lw	s6,48(sp)
    8e90:	02c12b83          	lw	s7,44(sp)
    8e94:	02812c03          	lw	s8,40(sp)
    8e98:	02412c83          	lw	s9,36(sp)
    8e9c:	02012d03          	lw	s10,32(sp)
    8ea0:	01c12d83          	lw	s11,28(sp)
    8ea4:	05010113          	addi	sp,sp,80
    8ea8:	00008067          	ret
    8eac:	00447413          	andi	s0,s0,4
    8eb0:	d4041ee3          	bnez	s0,8c0c <follow_path+0x260>
    8eb4:	00694783          	lbu	a5,6(s2)
    8eb8:	0107f793          	andi	a5,a5,16
    8ebc:	02078a63          	beqz	a5,8ef0 <follow_path+0x544>
    8ec0:	00412783          	lw	a5,4(sp)
    8ec4:	03878593          	addi	a1,a5,56
    8ec8:	01092783          	lw	a5,16(s2)
    8ecc:	01479793          	slli	a5,a5,0x14
    8ed0:	0147d793          	srli	a5,a5,0x14
    8ed4:	00f585b3          	add	a1,a1,a5
    8ed8:	00412783          	lw	a5,4(sp)
    8edc:	0007c503          	lbu	a0,0(a5)
    8ee0:	f39fe0ef          	jal	7e18 <ld_clust.isra.0>
    8ee4:	00a92423          	sw	a0,8(s2)
    8ee8:	00098593          	mv	a1,s3
    8eec:	b41ff06f          	j	8a2c <follow_path+0x80>
    8ef0:	00500513          	li	a0,5
    8ef4:	f7dff06f          	j	8e70 <follow_path+0x4c4>

00008ef8 <dir_register>:
    8ef8:	fb010113          	addi	sp,sp,-80
    8efc:	04812423          	sw	s0,72(sp)
    8f00:	04112623          	sw	ra,76(sp)
    8f04:	04912223          	sw	s1,68(sp)
    8f08:	05212023          	sw	s2,64(sp)
    8f0c:	03312e23          	sw	s3,60(sp)
    8f10:	03412c23          	sw	s4,56(sp)
    8f14:	03512a23          	sw	s5,52(sp)
    8f18:	03612823          	sw	s6,48(sp)
    8f1c:	03712623          	sw	s7,44(sp)
    8f20:	03812423          	sw	s8,40(sp)
    8f24:	03912223          	sw	s9,36(sp)
    8f28:	02b54783          	lbu	a5,43(a0)
    8f2c:	00600413          	li	s0,6
    8f30:	0a07f793          	andi	a5,a5,160
    8f34:	12079863          	bnez	a5,9064 <dir_register+0x16c>
    8f38:	00052903          	lw	s2,0(a0)
    8f3c:	00000a13          	li	s4,0
    8f40:	00c92703          	lw	a4,12(s2)
    8f44:	001a1793          	slli	a5,s4,0x1
    8f48:	00f707b3          	add	a5,a4,a5
    8f4c:	0007d783          	lhu	a5,0(a5)
    8f50:	14079663          	bnez	a5,909c <dir_register+0x1a4>
    8f54:	02050993          	addi	s3,a0,32
    8f58:	00050493          	mv	s1,a0
    8f5c:	00c00613          	li	a2,12
    8f60:	00098593          	mv	a1,s3
    8f64:	01410513          	addi	a0,sp,20
    8f68:	a48f70ef          	jal	1b0 <memcpy>
    8f6c:	01f14783          	lbu	a5,31(sp)
    8f70:	0017f713          	andi	a4,a5,1
    8f74:	30070c63          	beqz	a4,928c <dir_register+0x394>
    8f78:	04000793          	li	a5,64
    8f7c:	00011ab7          	lui	s5,0x11
    8f80:	02f485a3          	sb	a5,43(s1)
    8f84:	00100b93          	li	s7,1
    8f88:	021a8a93          	addi	s5,s5,33 # 11021 <oem2uni950+0x376d>
    8f8c:	02000b13          	li	s6,32
    8f90:	00b00613          	li	a2,11
    8f94:	01410593          	addi	a1,sp,20
    8f98:	00098513          	mv	a0,s3
    8f9c:	00c92403          	lw	s0,12(s2)
    8fa0:	a10f70ef          	jal	1b0 <memcpy>
    8fa4:	00500793          	li	a5,5
    8fa8:	1377ec63          	bltu	a5,s7,90e0 <dir_register+0x1e8>
    8fac:	010b9793          	slli	a5,s7,0x10
    8fb0:	0107d793          	srli	a5,a5,0x10
    8fb4:	00700693          	li	a3,7
    8fb8:	03900593          	li	a1,57
    8fbc:	00c10513          	addi	a0,sp,12
    8fc0:	00f7f713          	andi	a4,a5,15
    8fc4:	03070613          	addi	a2,a4,48
    8fc8:	00c5f463          	bgeu	a1,a2,8fd0 <dir_register+0xd8>
    8fcc:	03770613          	addi	a2,a4,55
    8fd0:	00d50833          	add	a6,a0,a3
    8fd4:	fff68713          	addi	a4,a3,-1
    8fd8:	00c80023          	sb	a2,0(a6)
    8fdc:	10070a63          	beqz	a4,90f0 <dir_register+0x1f8>
    8fe0:	0047d793          	srli	a5,a5,0x4
    8fe4:	10079263          	bnez	a5,90e8 <dir_register+0x1f0>
    8fe8:	02070793          	addi	a5,a4,32
    8fec:	002787b3          	add	a5,a5,sp
    8ff0:	07e00613          	li	a2,126
    8ff4:	fec78623          	sb	a2,-20(a5)
    8ff8:	07d00593          	li	a1,125
    8ffc:	00000793          	li	a5,0
    9000:	ffe68693          	addi	a3,a3,-2
    9004:	00e7f863          	bgeu	a5,a4,9014 <dir_register+0x11c>
    9008:	00f98633          	add	a2,s3,a5
    900c:	00064603          	lbu	a2,0(a2)
    9010:	0f661463          	bne	a2,s6,90f8 <dir_register+0x200>
    9014:	00f487b3          	add	a5,s1,a5
    9018:	00848613          	addi	a2,s1,8
    901c:	00700593          	li	a1,7
    9020:	02000693          	li	a3,32
    9024:	00e5ea63          	bltu	a1,a4,9038 <dir_register+0x140>
    9028:	00d706b3          	add	a3,a4,a3
    902c:	002686b3          	add	a3,a3,sp
    9030:	fec6c683          	lbu	a3,-20(a3)
    9034:	00170713          	addi	a4,a4,1
    9038:	02d78023          	sb	a3,32(a5)
    903c:	00178793          	addi	a5,a5,1
    9040:	fef610e3          	bne	a2,a5,9020 <dir_register+0x128>
    9044:	00048513          	mv	a0,s1
    9048:	f00ff0ef          	jal	8748 <dir_find>
    904c:	00050413          	mv	s0,a0
    9050:	22051663          	bnez	a0,927c <dir_register+0x384>
    9054:	001b8b93          	addi	s7,s7,1
    9058:	06400793          	li	a5,100
    905c:	f2fb9ae3          	bne	s7,a5,8f90 <dir_register+0x98>
    9060:	00700413          	li	s0,7
    9064:	04c12083          	lw	ra,76(sp)
    9068:	00040513          	mv	a0,s0
    906c:	04812403          	lw	s0,72(sp)
    9070:	04412483          	lw	s1,68(sp)
    9074:	04012903          	lw	s2,64(sp)
    9078:	03c12983          	lw	s3,60(sp)
    907c:	03812a03          	lw	s4,56(sp)
    9080:	03412a83          	lw	s5,52(sp)
    9084:	03012b03          	lw	s6,48(sp)
    9088:	02c12b83          	lw	s7,44(sp)
    908c:	02812c03          	lw	s8,40(sp)
    9090:	02412c83          	lw	s9,36(sp)
    9094:	05010113          	addi	sp,sp,80
    9098:	00008067          	ret
    909c:	001a0a13          	addi	s4,s4,1
    90a0:	ea5ff06f          	j	8f44 <dir_register+0x4c>
    90a4:	00240413          	addi	s0,s0,2
    90a8:	01000693          	li	a3,16
    90ac:	00179613          	slli	a2,a5,0x1
    90b0:	00f61593          	slli	a1,a2,0xf
    90b4:	00177793          	andi	a5,a4,1
    90b8:	00c787b3          	add	a5,a5,a2
    90bc:	00175713          	srli	a4,a4,0x1
    90c0:	0005d463          	bgez	a1,90c8 <dir_register+0x1d0>
    90c4:	0157c7b3          	xor	a5,a5,s5
    90c8:	fff68693          	addi	a3,a3,-1
    90cc:	fe0690e3          	bnez	a3,90ac <dir_register+0x1b4>
    90d0:	00045703          	lhu	a4,0(s0)
    90d4:	fc0718e3          	bnez	a4,90a4 <dir_register+0x1ac>
    90d8:	01079793          	slli	a5,a5,0x10
    90dc:	ed5ff06f          	j	8fb0 <dir_register+0xb8>
    90e0:	000b8793          	mv	a5,s7
    90e4:	fedff06f          	j	90d0 <dir_register+0x1d8>
    90e8:	00070693          	mv	a3,a4
    90ec:	ed5ff06f          	j	8fc0 <dir_register+0xc8>
    90f0:	00100693          	li	a3,1
    90f4:	ef5ff06f          	j	8fe8 <dir_register+0xf0>
    90f8:	07f60613          	addi	a2,a2,127
    90fc:	0ff67613          	zext.b	a2,a2
    9100:	00c5e663          	bltu	a1,a2,910c <dir_register+0x214>
    9104:	f0f688e3          	beq	a3,a5,9014 <dir_register+0x11c>
    9108:	00178793          	addi	a5,a5,1
    910c:	00178793          	addi	a5,a5,1
    9110:	ef5ff06f          	j	9004 <dir_register+0x10c>
    9114:	000a0413          	mv	s0,s4
    9118:	1a80006f          	j	92c0 <dir_register+0x3c8>
    911c:	01c4a503          	lw	a0,28(s1)
    9120:	02000613          	li	a2,32
    9124:	00000593          	li	a1,0
    9128:	8acf70ef          	jal	1d4 <memset>
    912c:	01c4a503          	lw	a0,28(s1)
    9130:	00b00613          	li	a2,11
    9134:	00098593          	mv	a1,s3
    9138:	878f70ef          	jal	1b0 <memcpy>
    913c:	02b4c783          	lbu	a5,43(s1)
    9140:	01c4a703          	lw	a4,28(s1)
    9144:	0187f793          	andi	a5,a5,24
    9148:	00f70623          	sb	a5,12(a4)
    914c:	00100793          	li	a5,1
    9150:	00f90223          	sb	a5,4(s2)
    9154:	f11ff06f          	j	9064 <dir_register+0x16c>
    9158:	00040b93          	mv	s7,s0
    915c:	10040263          	beqz	s0,9260 <dir_register+0x368>
    9160:	0104a783          	lw	a5,16(s1)
    9164:	005b9593          	slli	a1,s7,0x5
    9168:	00048513          	mv	a0,s1
    916c:	40b785b3          	sub	a1,a5,a1
    9170:	c04ff0ef          	jal	8574 <dir_sdi>
    9174:	00050413          	mv	s0,a0
    9178:	ee0516e3          	bnez	a0,9064 <dir_register+0x16c>
    917c:	00098513          	mv	a0,s3
    9180:	f75fd0ef          	jal	70f4 <sum_sfn>
    9184:	00010c37          	lui	s8,0x10
    9188:	00020a37          	lui	s4,0x20
    918c:	00050c93          	mv	s9,a0
    9190:	00f00b13          	li	s6,15
    9194:	00d00a93          	li	s5,13
    9198:	fffc0c13          	addi	s8,s8,-1 # ffff <oem2uni950+0x274b>
    919c:	784a0a13          	addi	s4,s4,1924 # 20784 <LfnOfs>
    91a0:	0184a583          	lw	a1,24(s1)
    91a4:	00090513          	mv	a0,s2
    91a8:	c7cfe0ef          	jal	7624 <move_window>
    91ac:	00050413          	mv	s0,a0
    91b0:	ea051ae3          	bnez	a0,9064 <dir_register+0x16c>
    91b4:	0ffbf793          	zext.b	a5,s7
    91b8:	fff78793          	addi	a5,a5,-1
    91bc:	035787b3          	mul	a5,a5,s5
    91c0:	01c4a703          	lw	a4,28(s1)
    91c4:	00c92603          	lw	a2,12(s2)
    91c8:	000b8513          	mv	a0,s7
    91cc:	019706a3          	sb	s9,13(a4)
    91d0:	016705a3          	sb	s6,11(a4)
    91d4:	00070623          	sb	zero,12(a4)
    91d8:	00070d23          	sb	zero,26(a4)
    91dc:	00070da3          	sb	zero,27(a4)
    91e0:	00000693          	li	a3,0
    91e4:	01868a63          	beq	a3,s8,91f8 <dir_register+0x300>
    91e8:	00179693          	slli	a3,a5,0x1
    91ec:	00d606b3          	add	a3,a2,a3
    91f0:	0006d683          	lhu	a3,0(a3)
    91f4:	00178793          	addi	a5,a5,1
    91f8:	008a05b3          	add	a1,s4,s0
    91fc:	0005c583          	lbu	a1,0(a1)
    9200:	0086d813          	srli	a6,a3,0x8
    9204:	00b705b3          	add	a1,a4,a1
    9208:	00d58023          	sb	a3,0(a1)
    920c:	010580a3          	sb	a6,1(a1)
    9210:	00069463          	bnez	a3,9218 <dir_register+0x320>
    9214:	000c0693          	mv	a3,s8
    9218:	00140413          	addi	s0,s0,1
    921c:	fd5414e3          	bne	s0,s5,91e4 <dir_register+0x2ec>
    9220:	01868a63          	beq	a3,s8,9234 <dir_register+0x33c>
    9224:	00179793          	slli	a5,a5,0x1
    9228:	00f60633          	add	a2,a2,a5
    922c:	00065783          	lhu	a5,0(a2)
    9230:	00079463          	bnez	a5,9238 <dir_register+0x340>
    9234:	04056513          	ori	a0,a0,64
    9238:	00a70023          	sb	a0,0(a4)
    923c:	00100793          	li	a5,1
    9240:	00f90223          	sb	a5,4(s2)
    9244:	00000593          	li	a1,0
    9248:	00048513          	mv	a0,s1
    924c:	804ff0ef          	jal	8250 <dir_next>
    9250:	00050413          	mv	s0,a0
    9254:	e00518e3          	bnez	a0,9064 <dir_register+0x16c>
    9258:	fffb8b93          	addi	s7,s7,-1
    925c:	f40b92e3          	bnez	s7,91a0 <dir_register+0x2a8>
    9260:	0184a583          	lw	a1,24(s1)
    9264:	00090513          	mv	a0,s2
    9268:	bbcfe0ef          	jal	7624 <move_window>
    926c:	00050413          	mv	s0,a0
    9270:	ea0506e3          	beqz	a0,911c <dir_register+0x224>
    9274:	00100413          	li	s0,1
    9278:	dedff06f          	j	9064 <dir_register+0x16c>
    927c:	00400793          	li	a5,4
    9280:	def512e3          	bne	a0,a5,9064 <dir_register+0x16c>
    9284:	01f14783          	lbu	a5,31(sp)
    9288:	02f485a3          	sb	a5,43(s1)
    928c:	0027f793          	andi	a5,a5,2
    9290:	00100a93          	li	s5,1
    9294:	00078a63          	beqz	a5,92a8 <dir_register+0x3b0>
    9298:	00ca0a93          	addi	s5,s4,12
    929c:	00d00793          	li	a5,13
    92a0:	02fadab3          	divu	s5,s5,a5
    92a4:	001a8a93          	addi	s5,s5,1
    92a8:	00000593          	li	a1,0
    92ac:	00048513          	mv	a0,s1
    92b0:	0004ab03          	lw	s6,0(s1)
    92b4:	ac0ff0ef          	jal	8574 <dir_sdi>
    92b8:	00050413          	mv	s0,a0
    92bc:	da0514e3          	bnez	a0,9064 <dir_register+0x16c>
    92c0:	0184a583          	lw	a1,24(s1)
    92c4:	000b0513          	mv	a0,s6
    92c8:	b5cfe0ef          	jal	7624 <move_window>
    92cc:	00050a13          	mv	s4,a0
    92d0:	fa0512e3          	bnez	a0,9274 <dir_register+0x37c>
    92d4:	01c4a783          	lw	a5,28(s1)
    92d8:	0007c783          	lbu	a5,0(a5)
    92dc:	f1b78713          	addi	a4,a5,-229
    92e0:	00070463          	beqz	a4,92e8 <dir_register+0x3f0>
    92e4:	00079663          	bnez	a5,92f0 <dir_register+0x3f8>
    92e8:	00140a13          	addi	s4,s0,1
    92ec:	e74a86e3          	beq	s5,s4,9158 <dir_register+0x260>
    92f0:	00100593          	li	a1,1
    92f4:	00048513          	mv	a0,s1
    92f8:	f59fe0ef          	jal	8250 <dir_next>
    92fc:	00050413          	mv	s0,a0
    9300:	e0050ae3          	beqz	a0,9114 <dir_register+0x21c>
    9304:	00400793          	li	a5,4
    9308:	d4f50ce3          	beq	a0,a5,9060 <dir_register+0x168>
    930c:	d59ff06f          	j	9064 <dir_register+0x16c>

00009310 <f_mount>:
    9310:	fd010113          	addi	sp,sp,-48
    9314:	00a12623          	sw	a0,12(sp)
    9318:	01c10513          	addi	a0,sp,28
    931c:	02112623          	sw	ra,44(sp)
    9320:	00b12423          	sw	a1,8(sp)
    9324:	00c12223          	sw	a2,4(sp)
    9328:	00b12e23          	sw	a1,28(sp)
    932c:	df9fd0ef          	jal	7124 <get_ldnumber>
    9330:	fff00793          	li	a5,-1
    9334:	06f50263          	beq	a0,a5,9398 <f_mount+0x88>
    9338:	3000f7b7          	lui	a5,0x3000f
    933c:	00251693          	slli	a3,a0,0x2
    9340:	38078793          	addi	a5,a5,896 # 3000f380 <FatFs>
    9344:	00f685b3          	add	a1,a3,a5
    9348:	0005a703          	lw	a4,0(a1)
    934c:	00412603          	lw	a2,4(sp)
    9350:	00070663          	beqz	a4,935c <f_mount+0x4c>
    9354:	0005a023          	sw	zero,0(a1)
    9358:	00070023          	sb	zero,0(a4)
    935c:	00c12703          	lw	a4,12(sp)
    9360:	00070a63          	beqz	a4,9374 <f_mount+0x64>
    9364:	00d787b3          	add	a5,a5,a3
    9368:	00a700a3          	sb	a0,1(a4)
    936c:	00070023          	sb	zero,0(a4)
    9370:	00e7a023          	sw	a4,0(a5)
    9374:	00000513          	li	a0,0
    9378:	00060a63          	beqz	a2,938c <f_mount+0x7c>
    937c:	00000613          	li	a2,0
    9380:	00c10593          	addi	a1,sp,12
    9384:	00810513          	addi	a0,sp,8
    9388:	ec0fe0ef          	jal	7a48 <mount_volume>
    938c:	02c12083          	lw	ra,44(sp)
    9390:	03010113          	addi	sp,sp,48
    9394:	00008067          	ret
    9398:	00b00513          	li	a0,11
    939c:	ff1ff06f          	j	938c <f_mount+0x7c>

000093a0 <f_open>:
    93a0:	f8010113          	addi	sp,sp,-128
    93a4:	07312623          	sw	s3,108(sp)
    93a8:	06112e23          	sw	ra,124(sp)
    93ac:	06812c23          	sw	s0,120(sp)
    93b0:	06912a23          	sw	s1,116(sp)
    93b4:	07212823          	sw	s2,112(sp)
    93b8:	07412423          	sw	s4,104(sp)
    93bc:	07512223          	sw	s5,100(sp)
    93c0:	07612023          	sw	s6,96(sp)
    93c4:	05712e23          	sw	s7,92(sp)
    93c8:	00b12623          	sw	a1,12(sp)
    93cc:	00900993          	li	s3,9
    93d0:	08050463          	beqz	a0,9458 <f_open+0xb8>
    93d4:	03f67a13          	andi	s4,a2,63
    93d8:	00060913          	mv	s2,a2
    93dc:	00050413          	mv	s0,a0
    93e0:	000a0613          	mv	a2,s4
    93e4:	01c10593          	addi	a1,sp,28
    93e8:	00c10513          	addi	a0,sp,12
    93ec:	e5cfe0ef          	jal	7a48 <mount_volume>
    93f0:	00050993          	mv	s3,a0
    93f4:	00050793          	mv	a5,a0
    93f8:	04051c63          	bnez	a0,9450 <f_open+0xb0>
    93fc:	01c12483          	lw	s1,28(sp)
    9400:	00c12583          	lw	a1,12(sp)
    9404:	02010513          	addi	a0,sp,32
    9408:	00942023          	sw	s1,0(s0)
    940c:	02912023          	sw	s1,32(sp)
    9410:	d9cff0ef          	jal	89ac <follow_path>
    9414:	00050793          	mv	a5,a0
    9418:	00051863          	bnez	a0,9428 <f_open+0x88>
    941c:	04b10703          	lb	a4,75(sp)
    9420:	00075463          	bgez	a4,9428 <f_open+0x88>
    9424:	00600793          	li	a5,6
    9428:	01c97713          	andi	a4,s2,28
    942c:	1e070c63          	beqz	a4,9624 <f_open+0x284>
    9430:	04078c63          	beqz	a5,9488 <f_open+0xe8>
    9434:	00400713          	li	a4,4
    9438:	00e79c63          	bne	a5,a4,9450 <f_open+0xb0>
    943c:	02010513          	addi	a0,sp,32
    9440:	ab9ff0ef          	jal	8ef8 <dir_register>
    9444:	00050793          	mv	a5,a0
    9448:	008a6a13          	ori	s4,s4,8
    944c:	04050c63          	beqz	a0,94a4 <f_open+0x104>
    9450:	00042023          	sw	zero,0(s0)
    9454:	00078993          	mv	s3,a5
    9458:	07c12083          	lw	ra,124(sp)
    945c:	07812403          	lw	s0,120(sp)
    9460:	07412483          	lw	s1,116(sp)
    9464:	07012903          	lw	s2,112(sp)
    9468:	06812a03          	lw	s4,104(sp)
    946c:	06412a83          	lw	s5,100(sp)
    9470:	06012b03          	lw	s6,96(sp)
    9474:	05c12b83          	lw	s7,92(sp)
    9478:	00098513          	mv	a0,s3
    947c:	06c12983          	lw	s3,108(sp)
    9480:	08010113          	addi	sp,sp,128
    9484:	00008067          	ret
    9488:	00497793          	andi	a5,s2,4
    948c:	1e079463          	bnez	a5,9674 <f_open+0x2d4>
    9490:	02614783          	lbu	a5,38(sp)
    9494:	0117f793          	andi	a5,a5,17
    9498:	1a079663          	bnez	a5,9644 <f_open+0x2a4>
    949c:	00897913          	andi	s2,s2,8
    94a0:	0a090c63          	beqz	s2,9558 <f_open+0x1b8>
    94a4:	03c12783          	lw	a5,60(sp)
    94a8:	02100693          	li	a3,33
    94ac:	05c00713          	li	a4,92
    94b0:	00d78823          	sb	a3,16(a5)
    94b4:	00e788a3          	sb	a4,17(a5)
    94b8:	00078723          	sb	zero,14(a5)
    94bc:	000787a3          	sb	zero,15(a5)
    94c0:	03c12783          	lw	a5,60(sp)
    94c4:	00d78c23          	sb	a3,24(a5)
    94c8:	00e78ca3          	sb	a4,25(a5)
    94cc:	00078b23          	sb	zero,22(a5)
    94d0:	00078ba3          	sb	zero,23(a5)
    94d4:	03c12a83          	lw	s5,60(sp)
    94d8:	0004c503          	lbu	a0,0(s1)
    94dc:	000a8593          	mv	a1,s5
    94e0:	939fe0ef          	jal	7e18 <ld_clust.isra.0>
    94e4:	02000793          	li	a5,32
    94e8:	00fa85a3          	sb	a5,11(s5)
    94ec:	03c12583          	lw	a1,60(sp)
    94f0:	00050913          	mv	s2,a0
    94f4:	00000613          	li	a2,0
    94f8:	00048513          	mv	a0,s1
    94fc:	8fcfe0ef          	jal	75f8 <st_clust>
    9500:	03c12783          	lw	a5,60(sp)
    9504:	00078e23          	sb	zero,28(a5)
    9508:	00078ea3          	sb	zero,29(a5)
    950c:	00078f23          	sb	zero,30(a5)
    9510:	00078fa3          	sb	zero,31(a5)
    9514:	00100793          	li	a5,1
    9518:	00f48223          	sb	a5,4(s1)
    951c:	02090c63          	beqz	s2,9554 <f_open+0x1b4>
    9520:	00000613          	li	a2,0
    9524:	00090593          	mv	a1,s2
    9528:	02010513          	addi	a0,sp,32
    952c:	0244aa83          	lw	s5,36(s1)
    9530:	a79fe0ef          	jal	7fa8 <remove_chain>
    9534:	00050793          	mv	a5,a0
    9538:	f0051ce3          	bnez	a0,9450 <f_open+0xb0>
    953c:	000a8593          	mv	a1,s5
    9540:	00048513          	mv	a0,s1
    9544:	fff90913          	addi	s2,s2,-1
    9548:	8dcfe0ef          	jal	7624 <move_window>
    954c:	0124a823          	sw	s2,16(s1)
    9550:	0c051663          	bnez	a0,961c <f_open+0x27c>
    9554:	040a6a13          	ori	s4,s4,64
    9558:	0244a783          	lw	a5,36(s1)
    955c:	03c12903          	lw	s2,60(sp)
    9560:	02f42023          	sw	a5,32(s0)
    9564:	03242223          	sw	s2,36(s0)
    9568:	0004c503          	lbu	a0,0(s1)
    956c:	00090593          	mv	a1,s2
    9570:	8a9fe0ef          	jal	7e18 <ld_clust.isra.0>
    9574:	00a42423          	sw	a0,8(s0)
    9578:	01c90513          	addi	a0,s2,28
    957c:	b01fd0ef          	jal	707c <ld_32>
    9580:	0064d783          	lhu	a5,6(s1)
    9584:	00a42623          	sw	a0,12(s0)
    9588:	01440823          	sb	s4,16(s0)
    958c:	00f41223          	sh	a5,4(s0)
    9590:	000408a3          	sb	zero,17(s0)
    9594:	00042e23          	sw	zero,28(s0)
    9598:	00042a23          	sw	zero,20(s0)
    959c:	00001637          	lui	a2,0x1
    95a0:	00000593          	li	a1,0
    95a4:	02840513          	addi	a0,s0,40
    95a8:	020a7a13          	andi	s4,s4,32
    95ac:	c29f60ef          	jal	1d4 <memset>
    95b0:	ea0a04e3          	beqz	s4,9458 <f_open+0xb8>
    95b4:	00c42903          	lw	s2,12(s0)
    95b8:	ea0900e3          	beqz	s2,9458 <f_open+0xb8>
    95bc:	00a4da03          	lhu	s4,10(s1)
    95c0:	00842583          	lw	a1,8(s0)
    95c4:	01242a23          	sw	s2,20(s0)
    95c8:	00ca1a13          	slli	s4,s4,0xc
    95cc:	00100a93          	li	s5,1
    95d0:	fff00b13          	li	s6,-1
    95d4:	072a6c63          	bltu	s4,s2,964c <f_open+0x2ac>
    95d8:	00000793          	li	a5,0
    95dc:	00b42c23          	sw	a1,24(s0)
    95e0:	e60798e3          	bnez	a5,9450 <f_open+0xb0>
    95e4:	01491793          	slli	a5,s2,0x14
    95e8:	e60788e3          	beqz	a5,9458 <f_open+0xb8>
    95ec:	00048513          	mv	a0,s1
    95f0:	ad9fd0ef          	jal	70c8 <clst2sect>
    95f4:	00200793          	li	a5,2
    95f8:	e4050ce3          	beqz	a0,9450 <f_open+0xb0>
    95fc:	00c95613          	srli	a2,s2,0xc
    9600:	00a60633          	add	a2,a2,a0
    9604:	00c42e23          	sw	a2,28(s0)
    9608:	0014c503          	lbu	a0,1(s1)
    960c:	00100693          	li	a3,1
    9610:	02840593          	addi	a1,s0,40
    9614:	8c1fd0ef          	jal	6ed4 <disk_read>
    9618:	e40500e3          	beqz	a0,9458 <f_open+0xb8>
    961c:	00100793          	li	a5,1
    9620:	e31ff06f          	j	9450 <f_open+0xb0>
    9624:	e20796e3          	bnez	a5,9450 <f_open+0xb0>
    9628:	02614783          	lbu	a5,38(sp)
    962c:	0107f713          	andi	a4,a5,16
    9630:	04071663          	bnez	a4,967c <f_open+0x2dc>
    9634:	00297913          	andi	s2,s2,2
    9638:	f20900e3          	beqz	s2,9558 <f_open+0x1b8>
    963c:	0017f793          	andi	a5,a5,1
    9640:	f0078ce3          	beqz	a5,9558 <f_open+0x1b8>
    9644:	00700793          	li	a5,7
    9648:	e09ff06f          	j	9450 <f_open+0xb0>
    964c:	00042503          	lw	a0,0(s0)
    9650:	41490933          	sub	s2,s2,s4
    9654:	ffcfe0ef          	jal	7e50 <get_fat.isra.0>
    9658:	00050593          	mv	a1,a0
    965c:	00aaf863          	bgeu	s5,a0,966c <f_open+0x2cc>
    9660:	f7651ae3          	bne	a0,s6,95d4 <f_open+0x234>
    9664:	00100793          	li	a5,1
    9668:	f75ff06f          	j	95dc <f_open+0x23c>
    966c:	00200793          	li	a5,2
    9670:	f6dff06f          	j	95dc <f_open+0x23c>
    9674:	00800793          	li	a5,8
    9678:	dd9ff06f          	j	9450 <f_open+0xb0>
    967c:	00400793          	li	a5,4
    9680:	dd1ff06f          	j	9450 <f_open+0xb0>

00009684 <f_read>:
    9684:	fa010113          	addi	sp,sp,-96
    9688:	04812c23          	sw	s0,88(sp)
    968c:	04912a23          	sw	s1,84(sp)
    9690:	05412423          	sw	s4,72(sp)
    9694:	05512223          	sw	s5,68(sp)
    9698:	04112e23          	sw	ra,92(sp)
    969c:	05212823          	sw	s2,80(sp)
    96a0:	05312623          	sw	s3,76(sp)
    96a4:	05612023          	sw	s6,64(sp)
    96a8:	03712e23          	sw	s7,60(sp)
    96ac:	03812c23          	sw	s8,56(sp)
    96b0:	03912a23          	sw	s9,52(sp)
    96b4:	03a12823          	sw	s10,48(sp)
    96b8:	03b12623          	sw	s11,44(sp)
    96bc:	00058a13          	mv	s4,a1
    96c0:	0006a023          	sw	zero,0(a3)
    96c4:	01c10593          	addi	a1,sp,28
    96c8:	00050413          	mv	s0,a0
    96cc:	00c12623          	sw	a2,12(sp)
    96d0:	00068a93          	mv	s5,a3
    96d4:	aadfd0ef          	jal	7180 <validate>
    96d8:	00900493          	li	s1,9
    96dc:	08051063          	bnez	a0,975c <f_read+0xd8>
    96e0:	01144483          	lbu	s1,17(s0)
    96e4:	06049c63          	bnez	s1,975c <f_read+0xd8>
    96e8:	01044783          	lbu	a5,16(s0)
    96ec:	00700493          	li	s1,7
    96f0:	0017f793          	andi	a5,a5,1
    96f4:	06078463          	beqz	a5,975c <f_read+0xd8>
    96f8:	00c42483          	lw	s1,12(s0)
    96fc:	01442783          	lw	a5,20(s0)
    9700:	00c12603          	lw	a2,12(sp)
    9704:	40f484b3          	sub	s1,s1,a5
    9708:	00967463          	bgeu	a2,s1,9710 <f_read+0x8c>
    970c:	00060493          	mv	s1,a2
    9710:	00001b37          	lui	s6,0x1
    9714:	02840c13          	addi	s8,s0,40
    9718:	00100c93          	li	s9,1
    971c:	fff00d13          	li	s10,-1
    9720:	02048e63          	beqz	s1,975c <f_read+0xd8>
    9724:	01442703          	lw	a4,20(s0)
    9728:	01471793          	slli	a5,a4,0x14
    972c:	16079a63          	bnez	a5,98a0 <f_read+0x21c>
    9730:	01c12b83          	lw	s7,28(sp)
    9734:	00c75693          	srli	a3,a4,0xc
    9738:	00abdd83          	lhu	s11,10(s7)
    973c:	fffd8d93          	addi	s11,s11,-1
    9740:	00ddfdb3          	and	s11,s11,a3
    9744:	060d9c63          	bnez	s11,97bc <f_read+0x138>
    9748:	04071a63          	bnez	a4,979c <f_read+0x118>
    974c:	00842503          	lw	a0,8(s0)
    9750:	04acee63          	bltu	s9,a0,97ac <f_read+0x128>
    9754:	00200493          	li	s1,2
    9758:	009408a3          	sb	s1,17(s0)
    975c:	05c12083          	lw	ra,92(sp)
    9760:	05812403          	lw	s0,88(sp)
    9764:	05012903          	lw	s2,80(sp)
    9768:	04c12983          	lw	s3,76(sp)
    976c:	04812a03          	lw	s4,72(sp)
    9770:	04412a83          	lw	s5,68(sp)
    9774:	04012b03          	lw	s6,64(sp)
    9778:	03c12b83          	lw	s7,60(sp)
    977c:	03812c03          	lw	s8,56(sp)
    9780:	03412c83          	lw	s9,52(sp)
    9784:	03012d03          	lw	s10,48(sp)
    9788:	02c12d83          	lw	s11,44(sp)
    978c:	00048513          	mv	a0,s1
    9790:	05412483          	lw	s1,84(sp)
    9794:	06010113          	addi	sp,sp,96
    9798:	00008067          	ret
    979c:	01842583          	lw	a1,24(s0)
    97a0:	00042503          	lw	a0,0(s0)
    97a4:	eacfe0ef          	jal	7e50 <get_fat.isra.0>
    97a8:	fa9ff06f          	j	9750 <f_read+0xcc>
    97ac:	01a51663          	bne	a0,s10,97b8 <f_read+0x134>
    97b0:	00100493          	li	s1,1
    97b4:	fa5ff06f          	j	9758 <f_read+0xd4>
    97b8:	00a42c23          	sw	a0,24(s0)
    97bc:	01842583          	lw	a1,24(s0)
    97c0:	000b8513          	mv	a0,s7
    97c4:	905fd0ef          	jal	70c8 <clst2sect>
    97c8:	f80506e3          	beqz	a0,9754 <f_read+0xd0>
    97cc:	00c4d913          	srli	s2,s1,0xc
    97d0:	00ad89b3          	add	s3,s11,a0
    97d4:	06090e63          	beqz	s2,9850 <f_read+0x1cc>
    97d8:	00abd703          	lhu	a4,10(s7)
    97dc:	012d86b3          	add	a3,s11,s2
    97e0:	00d77463          	bgeu	a4,a3,97e8 <f_read+0x164>
    97e4:	41b70933          	sub	s2,a4,s11
    97e8:	001bc503          	lbu	a0,1(s7)
    97ec:	00090693          	mv	a3,s2
    97f0:	00098613          	mv	a2,s3
    97f4:	000a0593          	mv	a1,s4
    97f8:	edcfd0ef          	jal	6ed4 <disk_read>
    97fc:	fa051ae3          	bnez	a0,97b0 <f_read+0x12c>
    9800:	01040783          	lb	a5,16(s0)
    9804:	0207d263          	bgez	a5,9828 <f_read+0x1a4>
    9808:	01c42503          	lw	a0,28(s0)
    980c:	41350533          	sub	a0,a0,s3
    9810:	01257c63          	bgeu	a0,s2,9828 <f_read+0x1a4>
    9814:	00c51513          	slli	a0,a0,0xc
    9818:	00001637          	lui	a2,0x1
    981c:	02840593          	addi	a1,s0,40
    9820:	00aa0533          	add	a0,s4,a0
    9824:	98df60ef          	jal	1b0 <memcpy>
    9828:	00c91913          	slli	s2,s2,0xc
    982c:	000aa783          	lw	a5,0(s5)
    9830:	412484b3          	sub	s1,s1,s2
    9834:	012a0a33          	add	s4,s4,s2
    9838:	012787b3          	add	a5,a5,s2
    983c:	00faa023          	sw	a5,0(s5)
    9840:	01442783          	lw	a5,20(s0)
    9844:	012787b3          	add	a5,a5,s2
    9848:	00f42a23          	sw	a5,20(s0)
    984c:	ed5ff06f          	j	9720 <f_read+0x9c>
    9850:	01c42603          	lw	a2,28(s0)
    9854:	05360463          	beq	a2,s3,989c <f_read+0x218>
    9858:	01040703          	lb	a4,16(s0)
    985c:	02840593          	addi	a1,s0,40
    9860:	02075463          	bgez	a4,9888 <f_read+0x204>
    9864:	001bc503          	lbu	a0,1(s7)
    9868:	00100693          	li	a3,1
    986c:	00b12623          	sw	a1,12(sp)
    9870:	f10fd0ef          	jal	6f80 <disk_write>
    9874:	f2051ee3          	bnez	a0,97b0 <f_read+0x12c>
    9878:	01044703          	lbu	a4,16(s0)
    987c:	00c12583          	lw	a1,12(sp)
    9880:	07f77713          	andi	a4,a4,127
    9884:	00e40823          	sb	a4,16(s0)
    9888:	001bc503          	lbu	a0,1(s7)
    988c:	00100693          	li	a3,1
    9890:	00098613          	mv	a2,s3
    9894:	e40fd0ef          	jal	6ed4 <disk_read>
    9898:	f0051ce3          	bnez	a0,97b0 <f_read+0x12c>
    989c:	01342e23          	sw	s3,28(s0)
    98a0:	01442583          	lw	a1,20(s0)
    98a4:	000017b7          	lui	a5,0x1
    98a8:	fff78793          	addi	a5,a5,-1 # fff <hal_sys_putchar+0x3>
    98ac:	00f5f5b3          	and	a1,a1,a5
    98b0:	40bb0933          	sub	s2,s6,a1
    98b4:	0124f463          	bgeu	s1,s2,98bc <f_read+0x238>
    98b8:	00048913          	mv	s2,s1
    98bc:	00090613          	mv	a2,s2
    98c0:	00bc05b3          	add	a1,s8,a1
    98c4:	000a0513          	mv	a0,s4
    98c8:	8e9f60ef          	jal	1b0 <memcpy>
    98cc:	f61ff06f          	j	982c <f_read+0x1a8>

000098d0 <f_write>:
    98d0:	fa010113          	addi	sp,sp,-96
    98d4:	04812c23          	sw	s0,88(sp)
    98d8:	04912a23          	sw	s1,84(sp)
    98dc:	05212823          	sw	s2,80(sp)
    98e0:	05412423          	sw	s4,72(sp)
    98e4:	05512223          	sw	s5,68(sp)
    98e8:	04112e23          	sw	ra,92(sp)
    98ec:	05312623          	sw	s3,76(sp)
    98f0:	05612023          	sw	s6,64(sp)
    98f4:	03712e23          	sw	s7,60(sp)
    98f8:	03812c23          	sw	s8,56(sp)
    98fc:	03912a23          	sw	s9,52(sp)
    9900:	03a12823          	sw	s10,48(sp)
    9904:	03b12623          	sw	s11,44(sp)
    9908:	00058a13          	mv	s4,a1
    990c:	0006a023          	sw	zero,0(a3)
    9910:	01c10593          	addi	a1,sp,28
    9914:	00050413          	mv	s0,a0
    9918:	00060913          	mv	s2,a2
    991c:	00068a93          	mv	s5,a3
    9920:	861fd0ef          	jal	7180 <validate>
    9924:	00900493          	li	s1,9
    9928:	08051e63          	bnez	a0,99c4 <f_write+0xf4>
    992c:	01144483          	lbu	s1,17(s0)
    9930:	08049a63          	bnez	s1,99c4 <f_write+0xf4>
    9934:	01044783          	lbu	a5,16(s0)
    9938:	0027f793          	andi	a5,a5,2
    993c:	22078663          	beqz	a5,9b68 <f_write+0x298>
    9940:	01442783          	lw	a5,20(s0)
    9944:	01278733          	add	a4,a5,s2
    9948:	00f77463          	bgeu	a4,a5,9950 <f_write+0x80>
    994c:	fff7c913          	not	s2,a5
    9950:	00001b37          	lui	s6,0x1
    9954:	02840c13          	addi	s8,s0,40
    9958:	00100c93          	li	s9,1
    995c:	fff00d13          	li	s10,-1
    9960:	04090c63          	beqz	s2,99b8 <f_write+0xe8>
    9964:	01442783          	lw	a5,20(s0)
    9968:	01479713          	slli	a4,a5,0x14
    996c:	1c071063          	bnez	a4,9b2c <f_write+0x25c>
    9970:	01c12d83          	lw	s11,28(sp)
    9974:	00c7d713          	srli	a4,a5,0xc
    9978:	00add983          	lhu	s3,10(s11)
    997c:	fff98993          	addi	s3,s3,-1
    9980:	00e9f9b3          	and	s3,s3,a4
    9984:	08099e63          	bnez	s3,9a20 <f_write+0x150>
    9988:	02079063          	bnez	a5,99a8 <f_write+0xd8>
    998c:	00842503          	lw	a0,8(s0)
    9990:	00000593          	li	a1,0
    9994:	00050c63          	beqz	a0,99ac <f_write+0xdc>
    9998:	07951663          	bne	a0,s9,9a04 <f_write+0x134>
    999c:	00200493          	li	s1,2
    99a0:	009408a3          	sb	s1,17(s0)
    99a4:	0200006f          	j	99c4 <f_write+0xf4>
    99a8:	01842583          	lw	a1,24(s0)
    99ac:	00040513          	mv	a0,s0
    99b0:	ef0fe0ef          	jal	80a0 <create_chain>
    99b4:	fe0512e3          	bnez	a0,9998 <f_write+0xc8>
    99b8:	01044783          	lbu	a5,16(s0)
    99bc:	0407e793          	ori	a5,a5,64
    99c0:	00f40823          	sb	a5,16(s0)
    99c4:	05c12083          	lw	ra,92(sp)
    99c8:	05812403          	lw	s0,88(sp)
    99cc:	05012903          	lw	s2,80(sp)
    99d0:	04c12983          	lw	s3,76(sp)
    99d4:	04812a03          	lw	s4,72(sp)
    99d8:	04412a83          	lw	s5,68(sp)
    99dc:	04012b03          	lw	s6,64(sp)
    99e0:	03c12b83          	lw	s7,60(sp)
    99e4:	03812c03          	lw	s8,56(sp)
    99e8:	03412c83          	lw	s9,52(sp)
    99ec:	03012d03          	lw	s10,48(sp)
    99f0:	02c12d83          	lw	s11,44(sp)
    99f4:	00048513          	mv	a0,s1
    99f8:	05412483          	lw	s1,84(sp)
    99fc:	06010113          	addi	sp,sp,96
    9a00:	00008067          	ret
    9a04:	01a51663          	bne	a0,s10,9a10 <f_write+0x140>
    9a08:	00100493          	li	s1,1
    9a0c:	f95ff06f          	j	99a0 <f_write+0xd0>
    9a10:	00842783          	lw	a5,8(s0)
    9a14:	00a42c23          	sw	a0,24(s0)
    9a18:	00079463          	bnez	a5,9a20 <f_write+0x150>
    9a1c:	00a42423          	sw	a0,8(s0)
    9a20:	01040783          	lb	a5,16(s0)
    9a24:	0207d463          	bgez	a5,9a4c <f_write+0x17c>
    9a28:	01c42603          	lw	a2,28(s0)
    9a2c:	001dc503          	lbu	a0,1(s11)
    9a30:	00100693          	li	a3,1
    9a34:	02840593          	addi	a1,s0,40
    9a38:	d48fd0ef          	jal	6f80 <disk_write>
    9a3c:	fc0516e3          	bnez	a0,9a08 <f_write+0x138>
    9a40:	01044783          	lbu	a5,16(s0)
    9a44:	07f7f793          	andi	a5,a5,127
    9a48:	00f40823          	sb	a5,16(s0)
    9a4c:	01842583          	lw	a1,24(s0)
    9a50:	000d8513          	mv	a0,s11
    9a54:	e74fd0ef          	jal	70c8 <clst2sect>
    9a58:	f40502e3          	beqz	a0,999c <f_write+0xcc>
    9a5c:	00c95b93          	srli	s7,s2,0xc
    9a60:	00a98633          	add	a2,s3,a0
    9a64:	080b8a63          	beqz	s7,9af8 <f_write+0x228>
    9a68:	00add783          	lhu	a5,10(s11)
    9a6c:	01798733          	add	a4,s3,s7
    9a70:	00e7f463          	bgeu	a5,a4,9a78 <f_write+0x1a8>
    9a74:	41378bb3          	sub	s7,a5,s3
    9a78:	001dc503          	lbu	a0,1(s11)
    9a7c:	000b8693          	mv	a3,s7
    9a80:	000a0593          	mv	a1,s4
    9a84:	00c12623          	sw	a2,12(sp)
    9a88:	cf8fd0ef          	jal	6f80 <disk_write>
    9a8c:	f6051ee3          	bnez	a0,9a08 <f_write+0x138>
    9a90:	01c42583          	lw	a1,28(s0)
    9a94:	00c12603          	lw	a2,12(sp)
    9a98:	40c585b3          	sub	a1,a1,a2
    9a9c:	0375f263          	bgeu	a1,s7,9ac0 <f_write+0x1f0>
    9aa0:	00c59593          	slli	a1,a1,0xc
    9aa4:	00001637          	lui	a2,0x1
    9aa8:	00ba05b3          	add	a1,s4,a1
    9aac:	02840513          	addi	a0,s0,40
    9ab0:	f00f60ef          	jal	1b0 <memcpy>
    9ab4:	01044783          	lbu	a5,16(s0)
    9ab8:	07f7f793          	andi	a5,a5,127
    9abc:	00f40823          	sb	a5,16(s0)
    9ac0:	00cb9993          	slli	s3,s7,0xc
    9ac4:	000aa783          	lw	a5,0(s5)
    9ac8:	41390933          	sub	s2,s2,s3
    9acc:	013a0a33          	add	s4,s4,s3
    9ad0:	013787b3          	add	a5,a5,s3
    9ad4:	00faa023          	sw	a5,0(s5)
    9ad8:	01442783          	lw	a5,20(s0)
    9adc:	00f98633          	add	a2,s3,a5
    9ae0:	00c42783          	lw	a5,12(s0)
    9ae4:	00c42a23          	sw	a2,20(s0)
    9ae8:	00c7f463          	bgeu	a5,a2,9af0 <f_write+0x220>
    9aec:	00060793          	mv	a5,a2
    9af0:	00f42623          	sw	a5,12(s0)
    9af4:	e6dff06f          	j	9960 <f_write+0x90>
    9af8:	01c42783          	lw	a5,28(s0)
    9afc:	02c78663          	beq	a5,a2,9b28 <f_write+0x258>
    9b00:	00c42703          	lw	a4,12(s0)
    9b04:	01442783          	lw	a5,20(s0)
    9b08:	02e7f063          	bgeu	a5,a4,9b28 <f_write+0x258>
    9b0c:	001dc503          	lbu	a0,1(s11)
    9b10:	00100693          	li	a3,1
    9b14:	02840593          	addi	a1,s0,40
    9b18:	00c12623          	sw	a2,12(sp)
    9b1c:	bb8fd0ef          	jal	6ed4 <disk_read>
    9b20:	00c12603          	lw	a2,12(sp)
    9b24:	ee0512e3          	bnez	a0,9a08 <f_write+0x138>
    9b28:	00c42e23          	sw	a2,28(s0)
    9b2c:	01442503          	lw	a0,20(s0)
    9b30:	000017b7          	lui	a5,0x1
    9b34:	fff78793          	addi	a5,a5,-1 # fff <hal_sys_putchar+0x3>
    9b38:	00f57533          	and	a0,a0,a5
    9b3c:	40ab09b3          	sub	s3,s6,a0
    9b40:	01397463          	bgeu	s2,s3,9b48 <f_write+0x278>
    9b44:	00090993          	mv	s3,s2
    9b48:	00098613          	mv	a2,s3
    9b4c:	000a0593          	mv	a1,s4
    9b50:	00ac0533          	add	a0,s8,a0
    9b54:	e5cf60ef          	jal	1b0 <memcpy>
    9b58:	01044783          	lbu	a5,16(s0)
    9b5c:	f807e793          	ori	a5,a5,-128
    9b60:	00f40823          	sb	a5,16(s0)
    9b64:	f61ff06f          	j	9ac4 <f_write+0x1f4>
    9b68:	00700493          	li	s1,7
    9b6c:	e59ff06f          	j	99c4 <f_write+0xf4>

00009b70 <putc_bfd>:
    9b70:	00452783          	lw	a5,4(a0)
    9b74:	0607cc63          	bltz	a5,9bec <putc_bfd+0x7c>
    9b78:	fd010113          	addi	sp,sp,-48
    9b7c:	02812423          	sw	s0,40(sp)
    9b80:	02912223          	sw	s1,36(sp)
    9b84:	02112623          	sw	ra,44(sp)
    9b88:	00178613          	addi	a2,a5,1
    9b8c:	00f507b3          	add	a5,a0,a5
    9b90:	00852483          	lw	s1,8(a0)
    9b94:	00b78623          	sb	a1,12(a5)
    9b98:	03b00793          	li	a5,59
    9b9c:	00050413          	mv	s0,a0
    9ba0:	02c7d663          	bge	a5,a2,9bcc <putc_bfd+0x5c>
    9ba4:	00c50593          	addi	a1,a0,12
    9ba8:	00052503          	lw	a0,0(a0)
    9bac:	01c10693          	addi	a3,sp,28
    9bb0:	00c12623          	sw	a2,12(sp)
    9bb4:	d1dff0ef          	jal	98d0 <f_write>
    9bb8:	00c12603          	lw	a2,12(sp)
    9bbc:	01c12783          	lw	a5,28(sp)
    9bc0:	40c787b3          	sub	a5,a5,a2
    9bc4:	00f037b3          	snez	a5,a5
    9bc8:	40f00633          	neg	a2,a5
    9bcc:	00148493          	addi	s1,s1,1
    9bd0:	00942423          	sw	s1,8(s0)
    9bd4:	02c12083          	lw	ra,44(sp)
    9bd8:	00c42223          	sw	a2,4(s0)
    9bdc:	02812403          	lw	s0,40(sp)
    9be0:	02412483          	lw	s1,36(sp)
    9be4:	03010113          	addi	sp,sp,48
    9be8:	00008067          	ret
    9bec:	00008067          	ret

00009bf0 <putc_flush>:
    9bf0:	00452603          	lw	a2,4(a0)
    9bf4:	02065063          	bgez	a2,9c14 <putc_flush+0x24>
    9bf8:	fff00513          	li	a0,-1
    9bfc:	00008067          	ret
    9c00:	fff00513          	li	a0,-1
    9c04:	01c12083          	lw	ra,28(sp)
    9c08:	01812403          	lw	s0,24(sp)
    9c0c:	02010113          	addi	sp,sp,32
    9c10:	00008067          	ret
    9c14:	fe010113          	addi	sp,sp,-32
    9c18:	00812c23          	sw	s0,24(sp)
    9c1c:	00c50593          	addi	a1,a0,12
    9c20:	00050413          	mv	s0,a0
    9c24:	00052503          	lw	a0,0(a0)
    9c28:	00c10693          	addi	a3,sp,12
    9c2c:	00112e23          	sw	ra,28(sp)
    9c30:	ca1ff0ef          	jal	98d0 <f_write>
    9c34:	fc0516e3          	bnez	a0,9c00 <putc_flush+0x10>
    9c38:	00442703          	lw	a4,4(s0)
    9c3c:	00c12783          	lw	a5,12(sp)
    9c40:	fcf710e3          	bne	a4,a5,9c00 <putc_flush+0x10>
    9c44:	00842503          	lw	a0,8(s0)
    9c48:	fbdff06f          	j	9c04 <putc_flush+0x14>

00009c4c <f_sync>:
    9c4c:	fe010113          	addi	sp,sp,-32
    9c50:	00c10593          	addi	a1,sp,12
    9c54:	00812c23          	sw	s0,24(sp)
    9c58:	00112e23          	sw	ra,28(sp)
    9c5c:	00912a23          	sw	s1,20(sp)
    9c60:	01212823          	sw	s2,16(sp)
    9c64:	00050413          	mv	s0,a0
    9c68:	d18fd0ef          	jal	7180 <validate>
    9c6c:	0c051e63          	bnez	a0,9d48 <f_sync+0xfc>
    9c70:	01044783          	lbu	a5,16(s0)
    9c74:	0407f713          	andi	a4,a5,64
    9c78:	02070863          	beqz	a4,9ca8 <f_sync+0x5c>
    9c7c:	01879793          	slli	a5,a5,0x18
    9c80:	4187d793          	srai	a5,a5,0x18
    9c84:	00c12903          	lw	s2,12(sp)
    9c88:	0407d263          	bgez	a5,9ccc <f_sync+0x80>
    9c8c:	01c42603          	lw	a2,28(s0)
    9c90:	00194503          	lbu	a0,1(s2)
    9c94:	00100693          	li	a3,1
    9c98:	02840593          	addi	a1,s0,40
    9c9c:	ae4fd0ef          	jal	6f80 <disk_write>
    9ca0:	02050063          	beqz	a0,9cc0 <f_sync+0x74>
    9ca4:	00100513          	li	a0,1
    9ca8:	01c12083          	lw	ra,28(sp)
    9cac:	01812403          	lw	s0,24(sp)
    9cb0:	01412483          	lw	s1,20(sp)
    9cb4:	01012903          	lw	s2,16(sp)
    9cb8:	02010113          	addi	sp,sp,32
    9cbc:	00008067          	ret
    9cc0:	01044783          	lbu	a5,16(s0)
    9cc4:	07f7f793          	andi	a5,a5,127
    9cc8:	00f40823          	sb	a5,16(s0)
    9ccc:	02042583          	lw	a1,32(s0)
    9cd0:	00090513          	mv	a0,s2
    9cd4:	951fd0ef          	jal	7624 <move_window>
    9cd8:	fc0516e3          	bnez	a0,9ca4 <f_sync+0x58>
    9cdc:	02442483          	lw	s1,36(s0)
    9ce0:	00b4c783          	lbu	a5,11(s1)
    9ce4:	00048593          	mv	a1,s1
    9ce8:	0207e793          	ori	a5,a5,32
    9cec:	00f485a3          	sb	a5,11(s1)
    9cf0:	00842603          	lw	a2,8(s0)
    9cf4:	00042503          	lw	a0,0(s0)
    9cf8:	901fd0ef          	jal	75f8 <st_clust>
    9cfc:	00c42583          	lw	a1,12(s0)
    9d00:	01c48513          	addi	a0,s1,28
    9d04:	ba4fd0ef          	jal	70a8 <st_32>
    9d08:	02100793          	li	a5,33
    9d0c:	00f48c23          	sb	a5,24(s1)
    9d10:	05c00793          	li	a5,92
    9d14:	00f48ca3          	sb	a5,25(s1)
    9d18:	00048b23          	sb	zero,22(s1)
    9d1c:	00100793          	li	a5,1
    9d20:	00048ba3          	sb	zero,23(s1)
    9d24:	00048923          	sb	zero,18(s1)
    9d28:	000489a3          	sb	zero,19(s1)
    9d2c:	00f90223          	sb	a5,4(s2)
    9d30:	00090513          	mv	a0,s2
    9d34:	fd4fd0ef          	jal	7508 <sync_fs>
    9d38:	01044783          	lbu	a5,16(s0)
    9d3c:	fbf7f793          	andi	a5,a5,-65
    9d40:	00f40823          	sb	a5,16(s0)
    9d44:	f65ff06f          	j	9ca8 <f_sync+0x5c>
    9d48:	00900513          	li	a0,9
    9d4c:	f5dff06f          	j	9ca8 <f_sync+0x5c>

00009d50 <f_close>:
    9d50:	fe010113          	addi	sp,sp,-32
    9d54:	00812c23          	sw	s0,24(sp)
    9d58:	00112e23          	sw	ra,28(sp)
    9d5c:	00050413          	mv	s0,a0
    9d60:	eedff0ef          	jal	9c4c <f_sync>
    9d64:	00051c63          	bnez	a0,9d7c <f_close+0x2c>
    9d68:	00c10593          	addi	a1,sp,12
    9d6c:	00040513          	mv	a0,s0
    9d70:	c10fd0ef          	jal	7180 <validate>
    9d74:	00051c63          	bnez	a0,9d8c <f_close+0x3c>
    9d78:	00042023          	sw	zero,0(s0)
    9d7c:	01c12083          	lw	ra,28(sp)
    9d80:	01812403          	lw	s0,24(sp)
    9d84:	02010113          	addi	sp,sp,32
    9d88:	00008067          	ret
    9d8c:	00900513          	li	a0,9
    9d90:	fedff06f          	j	9d7c <f_close+0x2c>

00009d94 <f_chdrive>:
    9d94:	fe010113          	addi	sp,sp,-32
    9d98:	00a12623          	sw	a0,12(sp)
    9d9c:	00c10513          	addi	a0,sp,12
    9da0:	00112e23          	sw	ra,28(sp)
    9da4:	b80fd0ef          	jal	7124 <get_ldnumber>
    9da8:	fff00793          	li	a5,-1
    9dac:	00f50e63          	beq	a0,a5,9dc8 <f_chdrive+0x34>
    9db0:	3000f7b7          	lui	a5,0x3000f
    9db4:	36a78e23          	sb	a0,892(a5) # 3000f37c <CurrVol>
    9db8:	00000513          	li	a0,0
    9dbc:	01c12083          	lw	ra,28(sp)
    9dc0:	02010113          	addi	sp,sp,32
    9dc4:	00008067          	ret
    9dc8:	00b00513          	li	a0,11
    9dcc:	ff1ff06f          	j	9dbc <f_chdrive+0x28>

00009dd0 <f_chdir>:
    9dd0:	fa010113          	addi	sp,sp,-96
    9dd4:	00a12623          	sw	a0,12(sp)
    9dd8:	00000613          	li	a2,0
    9ddc:	01c10593          	addi	a1,sp,28
    9de0:	00c10513          	addi	a0,sp,12
    9de4:	04812c23          	sw	s0,88(sp)
    9de8:	04112e23          	sw	ra,92(sp)
    9dec:	04912a23          	sw	s1,84(sp)
    9df0:	c59fd0ef          	jal	7a48 <mount_volume>
    9df4:	00050413          	mv	s0,a0
    9df8:	02051863          	bnez	a0,9e28 <f_chdir+0x58>
    9dfc:	01c12483          	lw	s1,28(sp)
    9e00:	00c12583          	lw	a1,12(sp)
    9e04:	02010513          	addi	a0,sp,32
    9e08:	02912023          	sw	s1,32(sp)
    9e0c:	ba1fe0ef          	jal	89ac <follow_path>
    9e10:	00050413          	mv	s0,a0
    9e14:	04051663          	bnez	a0,9e60 <f_chdir+0x90>
    9e18:	04b10783          	lb	a5,75(sp)
    9e1c:	0207d263          	bgez	a5,9e40 <f_chdir+0x70>
    9e20:	02812783          	lw	a5,40(sp)
    9e24:	00f4ac23          	sw	a5,24(s1)
    9e28:	05c12083          	lw	ra,92(sp)
    9e2c:	00040513          	mv	a0,s0
    9e30:	05812403          	lw	s0,88(sp)
    9e34:	05412483          	lw	s1,84(sp)
    9e38:	06010113          	addi	sp,sp,96
    9e3c:	00008067          	ret
    9e40:	02614783          	lbu	a5,38(sp)
    9e44:	0107f793          	andi	a5,a5,16
    9e48:	02078063          	beqz	a5,9e68 <f_chdir+0x98>
    9e4c:	03c12583          	lw	a1,60(sp)
    9e50:	0004c503          	lbu	a0,0(s1)
    9e54:	fc5fd0ef          	jal	7e18 <ld_clust.isra.0>
    9e58:	00a4ac23          	sw	a0,24(s1)
    9e5c:	fcdff06f          	j	9e28 <f_chdir+0x58>
    9e60:	00400793          	li	a5,4
    9e64:	fcf512e3          	bne	a0,a5,9e28 <f_chdir+0x58>
    9e68:	00500413          	li	s0,5
    9e6c:	fbdff06f          	j	9e28 <f_chdir+0x58>

00009e70 <f_getcwd>:
    9e70:	e7010113          	addi	sp,sp,-400
    9e74:	19212023          	sw	s2,384(sp)
    9e78:	17512a23          	sw	s5,372(sp)
    9e7c:	18112623          	sw	ra,396(sp)
    9e80:	18812423          	sw	s0,392(sp)
    9e84:	18912223          	sw	s1,388(sp)
    9e88:	17312e23          	sw	s3,380(sp)
    9e8c:	17412c23          	sw	s4,376(sp)
    9e90:	17612823          	sw	s6,368(sp)
    9e94:	17712623          	sw	s7,364(sp)
    9e98:	17812423          	sw	s8,360(sp)
    9e9c:	00a12623          	sw	a0,12(sp)
    9ea0:	00050023          	sb	zero,0(a0)
    9ea4:	00058a93          	mv	s5,a1
    9ea8:	00000613          	li	a2,0
    9eac:	01410593          	addi	a1,sp,20
    9eb0:	00c10513          	addi	a0,sp,12
    9eb4:	b95fd0ef          	jal	7a48 <mount_volume>
    9eb8:	00050913          	mv	s2,a0
    9ebc:	06051c63          	bnez	a0,9f34 <f_getcwd+0xc4>
    9ec0:	01412a03          	lw	s4,20(sp)
    9ec4:	00c12983          	lw	s3,12(sp)
    9ec8:	000a8493          	mv	s1,s5
    9ecc:	018a2903          	lw	s2,24(s4)
    9ed0:	01412c23          	sw	s4,24(sp)
    9ed4:	04810b13          	addi	s6,sp,72
    9ed8:	02f00b93          	li	s7,47
    9edc:	08091663          	bnez	s2,9f68 <f_getcwd+0xf8>
    9ee0:	01549a63          	bne	s1,s5,9ef4 <f_getcwd+0x84>
    9ee4:	fff48493          	addi	s1,s1,-1
    9ee8:	009987b3          	add	a5,s3,s1
    9eec:	02f00713          	li	a4,47
    9ef0:	00e78023          	sb	a4,0(a5)
    9ef4:	00098793          	mv	a5,s3
    9ef8:	413486b3          	sub	a3,s1,s3
    9efc:	00978733          	add	a4,a5,s1
    9f00:	00074703          	lbu	a4,0(a4)
    9f04:	00178793          	addi	a5,a5,1
    9f08:	fee78fa3          	sb	a4,-1(a5)
    9f0c:	00d78733          	add	a4,a5,a3
    9f10:	ff5766e3          	bltu	a4,s5,9efc <f_getcwd+0x8c>
    9f14:	00148713          	addi	a4,s1,1
    9f18:	00000793          	li	a5,0
    9f1c:	00eae663          	bltu	s5,a4,9f28 <f_getcwd+0xb8>
    9f20:	fffa8793          	addi	a5,s5,-1
    9f24:	409787b3          	sub	a5,a5,s1
    9f28:	00198993          	addi	s3,s3,1
    9f2c:	013789b3          	add	s3,a5,s3
    9f30:	00098023          	sb	zero,0(s3)
    9f34:	18c12083          	lw	ra,396(sp)
    9f38:	18812403          	lw	s0,392(sp)
    9f3c:	18412483          	lw	s1,388(sp)
    9f40:	17c12983          	lw	s3,380(sp)
    9f44:	17812a03          	lw	s4,376(sp)
    9f48:	17412a83          	lw	s5,372(sp)
    9f4c:	17012b03          	lw	s6,368(sp)
    9f50:	16c12b83          	lw	s7,364(sp)
    9f54:	16812c03          	lw	s8,360(sp)
    9f58:	00090513          	mv	a0,s2
    9f5c:	18012903          	lw	s2,384(sp)
    9f60:	19010113          	addi	sp,sp,400
    9f64:	00008067          	ret
    9f68:	02000593          	li	a1,32
    9f6c:	01810513          	addi	a0,sp,24
    9f70:	03212023          	sw	s2,32(sp)
    9f74:	03812a23          	sw	s8,52(sp)
    9f78:	dfcfe0ef          	jal	8574 <dir_sdi>
    9f7c:	00050413          	mv	s0,a0
    9f80:	08051e63          	bnez	a0,a01c <f_getcwd+0x1ac>
    9f84:	03012583          	lw	a1,48(sp)
    9f88:	000a0513          	mv	a0,s4
    9f8c:	03412c03          	lw	s8,52(sp)
    9f90:	e94fd0ef          	jal	7624 <move_window>
    9f94:	00050413          	mv	s0,a0
    9f98:	08051263          	bnez	a0,a01c <f_getcwd+0x1ac>
    9f9c:	000a4503          	lbu	a0,0(s4)
    9fa0:	000c0593          	mv	a1,s8
    9fa4:	e75fd0ef          	jal	7e18 <ld_clust.isra.0>
    9fa8:	02a12023          	sw	a0,32(sp)
    9fac:	00000593          	li	a1,0
    9fb0:	01810513          	addi	a0,sp,24
    9fb4:	dc0fe0ef          	jal	8574 <dir_sdi>
    9fb8:	00050413          	mv	s0,a0
    9fbc:	06051063          	bnez	a0,a01c <f_getcwd+0x1ac>
    9fc0:	02012703          	lw	a4,32(sp)
    9fc4:	03412783          	lw	a5,52(sp)
    9fc8:	01810513          	addi	a0,sp,24
    9fcc:	02e12023          	sw	a4,32(sp)
    9fd0:	02f12a23          	sw	a5,52(sp)
    9fd4:	bc4fe0ef          	jal	8398 <dir_read.constprop.0>
    9fd8:	00050413          	mv	s0,a0
    9fdc:	02051a63          	bnez	a0,a010 <f_getcwd+0x1a0>
    9fe0:	03412c03          	lw	s8,52(sp)
    9fe4:	000a4503          	lbu	a0,0(s4)
    9fe8:	000c0593          	mv	a1,s8
    9fec:	e2dfd0ef          	jal	7e18 <ld_clust.isra.0>
    9ff0:	05250863          	beq	a0,s2,a040 <f_getcwd+0x1d0>
    9ff4:	00000593          	li	a1,0
    9ff8:	01810513          	addi	a0,sp,24
    9ffc:	a54fe0ef          	jal	8250 <dir_next>
    a000:	02012703          	lw	a4,32(sp)
    a004:	03412783          	lw	a5,52(sp)
    a008:	00050413          	mv	s0,a0
    a00c:	fa050ee3          	beqz	a0,9fc8 <f_getcwd+0x158>
    a010:	00400793          	li	a5,4
    a014:	00f41463          	bne	s0,a5,a01c <f_getcwd+0x1ac>
    a018:	00200413          	li	s0,2
    a01c:	00040913          	mv	s2,s0
    a020:	f11ff06f          	j	9f30 <f_getcwd+0xc0>
    a024:	0157c603          	lbu	a2,21(a5)
    a028:	fff68693          	addi	a3,a3,-1
    a02c:	fff78793          	addi	a5,a5,-1
    a030:	00c68023          	sb	a2,0(a3)
    a034:	0400006f          	j	a074 <f_getcwd+0x204>
    a038:	01100413          	li	s0,17
    a03c:	fe1ff06f          	j	a01c <f_getcwd+0x1ac>
    a040:	000b0593          	mv	a1,s6
    a044:	01810513          	addi	a0,sp,24
    a048:	02012903          	lw	s2,32(sp)
    a04c:	a40fd0ef          	jal	728c <get_fileinfo>
    a050:	000b0793          	mv	a5,s6
    a054:	0167c683          	lbu	a3,22(a5)
    a058:	00040713          	mv	a4,s0
    a05c:	00178793          	addi	a5,a5,1
    a060:	00140413          	addi	s0,s0,1
    a064:	fe0698e3          	bnez	a3,a054 <f_getcwd+0x1e4>
    a068:	fc84e8e3          	bltu	s1,s0,a038 <f_getcwd+0x1c8>
    a06c:	00eb07b3          	add	a5,s6,a4
    a070:	009986b3          	add	a3,s3,s1
    a074:	fafb18e3          	bne	s6,a5,a024 <f_getcwd+0x1b4>
    a078:	fff48793          	addi	a5,s1,-1
    a07c:	40e784b3          	sub	s1,a5,a4
    a080:	00f987b3          	add	a5,s3,a5
    a084:	40e787b3          	sub	a5,a5,a4
    a088:	01778023          	sb	s7,0(a5)
    a08c:	e51ff06f          	j	9edc <f_getcwd+0x6c>

0000a090 <f_lseek>:
    a090:	fb010113          	addi	sp,sp,-80
    a094:	05212023          	sw	s2,64(sp)
    a098:	00058913          	mv	s2,a1
    a09c:	01c10593          	addi	a1,sp,28
    a0a0:	04812423          	sw	s0,72(sp)
    a0a4:	03312e23          	sw	s3,60(sp)
    a0a8:	04112623          	sw	ra,76(sp)
    a0ac:	04912223          	sw	s1,68(sp)
    a0b0:	03412c23          	sw	s4,56(sp)
    a0b4:	03512a23          	sw	s5,52(sp)
    a0b8:	03612823          	sw	s6,48(sp)
    a0bc:	03712623          	sw	s7,44(sp)
    a0c0:	00050413          	mv	s0,a0
    a0c4:	8bcfd0ef          	jal	7180 <validate>
    a0c8:	00900993          	li	s3,9
    a0cc:	14051a63          	bnez	a0,a220 <f_lseek+0x190>
    a0d0:	01144983          	lbu	s3,17(s0)
    a0d4:	14099663          	bnez	s3,a220 <f_lseek+0x190>
    a0d8:	00c42703          	lw	a4,12(s0)
    a0dc:	01277a63          	bgeu	a4,s2,a0f0 <f_lseek+0x60>
    a0e0:	01044783          	lbu	a5,16(s0)
    a0e4:	0027f793          	andi	a5,a5,2
    a0e8:	00079463          	bnez	a5,a0f0 <f_lseek+0x60>
    a0ec:	00070913          	mv	s2,a4
    a0f0:	01442783          	lw	a5,20(s0)
    a0f4:	00042a23          	sw	zero,20(s0)
    a0f8:	08091263          	bnez	s2,a17c <f_lseek+0xec>
    a0fc:	00000493          	li	s1,0
    a100:	01442783          	lw	a5,20(s0)
    a104:	00c42703          	lw	a4,12(s0)
    a108:	00f77a63          	bgeu	a4,a5,a11c <f_lseek+0x8c>
    a10c:	01044703          	lbu	a4,16(s0)
    a110:	00f42623          	sw	a5,12(s0)
    a114:	04076713          	ori	a4,a4,64
    a118:	00e40823          	sb	a4,16(s0)
    a11c:	01479793          	slli	a5,a5,0x14
    a120:	10078063          	beqz	a5,a220 <f_lseek+0x190>
    a124:	01c42603          	lw	a2,28(s0)
    a128:	0e960c63          	beq	a2,s1,a220 <f_lseek+0x190>
    a12c:	01040783          	lb	a5,16(s0)
    a130:	01c12903          	lw	s2,28(sp)
    a134:	02840593          	addi	a1,s0,40
    a138:	0207d463          	bgez	a5,a160 <f_lseek+0xd0>
    a13c:	00194503          	lbu	a0,1(s2)
    a140:	00100693          	li	a3,1
    a144:	00b12623          	sw	a1,12(sp)
    a148:	e39fc0ef          	jal	6f80 <disk_write>
    a14c:	10051663          	bnez	a0,a258 <f_lseek+0x1c8>
    a150:	01044783          	lbu	a5,16(s0)
    a154:	00c12583          	lw	a1,12(sp)
    a158:	07f7f793          	andi	a5,a5,127
    a15c:	00f40823          	sb	a5,16(s0)
    a160:	00194503          	lbu	a0,1(s2)
    a164:	00100693          	li	a3,1
    a168:	00048613          	mv	a2,s1
    a16c:	d69fc0ef          	jal	6ed4 <disk_read>
    a170:	0e051463          	bnez	a0,a258 <f_lseek+0x1c8>
    a174:	00942e23          	sw	s1,28(s0)
    a178:	0a80006f          	j	a220 <f_lseek+0x190>
    a17c:	01c12a83          	lw	s5,28(sp)
    a180:	00aada03          	lhu	s4,10(s5)
    a184:	00ca1a13          	slli	s4,s4,0xc
    a188:	02078a63          	beqz	a5,a1bc <f_lseek+0x12c>
    a18c:	fff78793          	addi	a5,a5,-1
    a190:	fff90713          	addi	a4,s2,-1
    a194:	03475733          	divu	a4,a4,s4
    a198:	0347d6b3          	divu	a3,a5,s4
    a19c:	02d76063          	bltu	a4,a3,a1bc <f_lseek+0x12c>
    a1a0:	41400733          	neg	a4,s4
    a1a4:	01842583          	lw	a1,24(s0)
    a1a8:	00f777b3          	and	a5,a4,a5
    a1ac:	00f42a23          	sw	a5,20(s0)
    a1b0:	40f90933          	sub	s2,s2,a5
    a1b4:	f40584e3          	beqz	a1,a0fc <f_lseek+0x6c>
    a1b8:	0100006f          	j	a1c8 <f_lseek+0x138>
    a1bc:	00842583          	lw	a1,8(s0)
    a1c0:	04058263          	beqz	a1,a204 <f_lseek+0x174>
    a1c4:	00b42c23          	sw	a1,24(s0)
    a1c8:	fff00b13          	li	s6,-1
    a1cc:	00100b93          	li	s7,1
    a1d0:	092a6e63          	bltu	s4,s2,a26c <f_lseek+0x1dc>
    a1d4:	00090493          	mv	s1,s2
    a1d8:	01442783          	lw	a5,20(s0)
    a1dc:	009787b3          	add	a5,a5,s1
    a1e0:	00f42a23          	sw	a5,20(s0)
    a1e4:	01449793          	slli	a5,s1,0x14
    a1e8:	f0078ae3          	beqz	a5,a0fc <f_lseek+0x6c>
    a1ec:	000a8513          	mv	a0,s5
    a1f0:	ed9fc0ef          	jal	70c8 <clst2sect>
    a1f4:	02050263          	beqz	a0,a218 <f_lseek+0x188>
    a1f8:	00c4d493          	srli	s1,s1,0xc
    a1fc:	00a484b3          	add	s1,s1,a0
    a200:	f01ff06f          	j	a100 <f_lseek+0x70>
    a204:	00040513          	mv	a0,s0
    a208:	e99fd0ef          	jal	80a0 <create_chain>
    a20c:	00100793          	li	a5,1
    a210:	00050593          	mv	a1,a0
    a214:	02f51e63          	bne	a0,a5,a250 <f_lseek+0x1c0>
    a218:	00200993          	li	s3,2
    a21c:	013408a3          	sb	s3,17(s0)
    a220:	04c12083          	lw	ra,76(sp)
    a224:	04812403          	lw	s0,72(sp)
    a228:	04412483          	lw	s1,68(sp)
    a22c:	04012903          	lw	s2,64(sp)
    a230:	03812a03          	lw	s4,56(sp)
    a234:	03412a83          	lw	s5,52(sp)
    a238:	03012b03          	lw	s6,48(sp)
    a23c:	02c12b83          	lw	s7,44(sp)
    a240:	00098513          	mv	a0,s3
    a244:	03c12983          	lw	s3,60(sp)
    a248:	05010113          	addi	sp,sp,80
    a24c:	00008067          	ret
    a250:	fff00793          	li	a5,-1
    a254:	00f51663          	bne	a0,a5,a260 <f_lseek+0x1d0>
    a258:	00100993          	li	s3,1
    a25c:	fc1ff06f          	j	a21c <f_lseek+0x18c>
    a260:	00a42423          	sw	a0,8(s0)
    a264:	00a42c23          	sw	a0,24(s0)
    a268:	f4dff06f          	j	a1b4 <f_lseek+0x124>
    a26c:	01442783          	lw	a5,20(s0)
    a270:	014787b3          	add	a5,a5,s4
    a274:	00f42a23          	sw	a5,20(s0)
    a278:	01044783          	lbu	a5,16(s0)
    a27c:	0027f793          	andi	a5,a5,2
    a280:	00078e63          	beqz	a5,a29c <f_lseek+0x20c>
    a284:	00040513          	mv	a0,s0
    a288:	e19fd0ef          	jal	80a0 <create_chain>
    a28c:	00050493          	mv	s1,a0
    a290:	00051c63          	bnez	a0,a2a8 <f_lseek+0x218>
    a294:	00000593          	li	a1,0
    a298:	f41ff06f          	j	a1d8 <f_lseek+0x148>
    a29c:	00042503          	lw	a0,0(s0)
    a2a0:	bb1fd0ef          	jal	7e50 <get_fat.isra.0>
    a2a4:	00050493          	mv	s1,a0
    a2a8:	fb6488e3          	beq	s1,s6,a258 <f_lseek+0x1c8>
    a2ac:	f69bf6e3          	bgeu	s7,s1,a218 <f_lseek+0x188>
    a2b0:	01caa783          	lw	a5,28(s5)
    a2b4:	f6f4f2e3          	bgeu	s1,a5,a218 <f_lseek+0x188>
    a2b8:	41490933          	sub	s2,s2,s4
    a2bc:	00942c23          	sw	s1,24(s0)
    a2c0:	00048593          	mv	a1,s1
    a2c4:	f0dff06f          	j	a1d0 <f_lseek+0x140>

0000a2c8 <f_opendir>:
    a2c8:	fd010113          	addi	sp,sp,-48
    a2cc:	02112623          	sw	ra,44(sp)
    a2d0:	02812423          	sw	s0,40(sp)
    a2d4:	02912223          	sw	s1,36(sp)
    a2d8:	00b12623          	sw	a1,12(sp)
    a2dc:	08050c63          	beqz	a0,a374 <f_opendir+0xac>
    a2e0:	00050413          	mv	s0,a0
    a2e4:	00000613          	li	a2,0
    a2e8:	01c10593          	addi	a1,sp,28
    a2ec:	00c10513          	addi	a0,sp,12
    a2f0:	f58fd0ef          	jal	7a48 <mount_volume>
    a2f4:	04051c63          	bnez	a0,a34c <f_opendir+0x84>
    a2f8:	01c12483          	lw	s1,28(sp)
    a2fc:	00c12583          	lw	a1,12(sp)
    a300:	00040513          	mv	a0,s0
    a304:	00942023          	sw	s1,0(s0)
    a308:	ea4fe0ef          	jal	89ac <follow_path>
    a30c:	04051c63          	bnez	a0,a364 <f_opendir+0x9c>
    a310:	02b40783          	lb	a5,43(s0)
    a314:	0207c063          	bltz	a5,a334 <f_opendir+0x6c>
    a318:	00644783          	lbu	a5,6(s0)
    a31c:	0107f793          	andi	a5,a5,16
    a320:	04078663          	beqz	a5,a36c <f_opendir+0xa4>
    a324:	0004c503          	lbu	a0,0(s1)
    a328:	01c42583          	lw	a1,28(s0)
    a32c:	aedfd0ef          	jal	7e18 <ld_clust.isra.0>
    a330:	00a42423          	sw	a0,8(s0)
    a334:	0064d783          	lhu	a5,6(s1)
    a338:	00000593          	li	a1,0
    a33c:	00040513          	mv	a0,s0
    a340:	00f41223          	sh	a5,4(s0)
    a344:	a30fe0ef          	jal	8574 <dir_sdi>
    a348:	00050463          	beqz	a0,a350 <f_opendir+0x88>
    a34c:	00042023          	sw	zero,0(s0)
    a350:	02c12083          	lw	ra,44(sp)
    a354:	02812403          	lw	s0,40(sp)
    a358:	02412483          	lw	s1,36(sp)
    a35c:	03010113          	addi	sp,sp,48
    a360:	00008067          	ret
    a364:	00400793          	li	a5,4
    a368:	fef512e3          	bne	a0,a5,a34c <f_opendir+0x84>
    a36c:	00500513          	li	a0,5
    a370:	fddff06f          	j	a34c <f_opendir+0x84>
    a374:	00900513          	li	a0,9
    a378:	fd9ff06f          	j	a350 <f_opendir+0x88>

0000a37c <f_closedir>:
    a37c:	fe010113          	addi	sp,sp,-32
    a380:	00c10593          	addi	a1,sp,12
    a384:	00812c23          	sw	s0,24(sp)
    a388:	00112e23          	sw	ra,28(sp)
    a38c:	00050413          	mv	s0,a0
    a390:	df1fc0ef          	jal	7180 <validate>
    a394:	00051463          	bnez	a0,a39c <f_closedir+0x20>
    a398:	00042023          	sw	zero,0(s0)
    a39c:	01c12083          	lw	ra,28(sp)
    a3a0:	01812403          	lw	s0,24(sp)
    a3a4:	02010113          	addi	sp,sp,32
    a3a8:	00008067          	ret

0000a3ac <f_readdir>:
    a3ac:	fe010113          	addi	sp,sp,-32
    a3b0:	00812c23          	sw	s0,24(sp)
    a3b4:	00058413          	mv	s0,a1
    a3b8:	00c10593          	addi	a1,sp,12
    a3bc:	00912a23          	sw	s1,20(sp)
    a3c0:	00112e23          	sw	ra,28(sp)
    a3c4:	00050493          	mv	s1,a0
    a3c8:	db9fc0ef          	jal	7180 <validate>
    a3cc:	06051063          	bnez	a0,a42c <f_readdir+0x80>
    a3d0:	02041063          	bnez	s0,a3f0 <f_readdir+0x44>
    a3d4:	01812403          	lw	s0,24(sp)
    a3d8:	01c12083          	lw	ra,28(sp)
    a3dc:	00048513          	mv	a0,s1
    a3e0:	01412483          	lw	s1,20(sp)
    a3e4:	00000593          	li	a1,0
    a3e8:	02010113          	addi	sp,sp,32
    a3ec:	988fe06f          	j	8574 <dir_sdi>
    a3f0:	00040b23          	sb	zero,22(s0)
    a3f4:	00048513          	mv	a0,s1
    a3f8:	fa1fd0ef          	jal	8398 <dir_read.constprop.0>
    a3fc:	ffb57793          	andi	a5,a0,-5
    a400:	04079663          	bnez	a5,a44c <f_readdir+0xa0>
    a404:	00040593          	mv	a1,s0
    a408:	00048513          	mv	a0,s1
    a40c:	e81fc0ef          	jal	728c <get_fileinfo>
    a410:	00000593          	li	a1,0
    a414:	00048513          	mv	a0,s1
    a418:	e39fd0ef          	jal	8250 <dir_next>
    a41c:	00400793          	li	a5,4
    a420:	02f51463          	bne	a0,a5,a448 <f_readdir+0x9c>
    a424:	00000513          	li	a0,0
    a428:	00c0006f          	j	a434 <f_readdir+0x88>
    a42c:	00900513          	li	a0,9
    a430:	00041e63          	bnez	s0,a44c <f_readdir+0xa0>
    a434:	01c12083          	lw	ra,28(sp)
    a438:	01812403          	lw	s0,24(sp)
    a43c:	01412483          	lw	s1,20(sp)
    a440:	02010113          	addi	sp,sp,32
    a444:	00008067          	ret
    a448:	fe0506e3          	beqz	a0,a434 <f_readdir+0x88>
    a44c:	00040b23          	sb	zero,22(s0)
    a450:	fe5ff06f          	j	a434 <f_readdir+0x88>

0000a454 <f_stat>:
    a454:	fb010113          	addi	sp,sp,-80
    a458:	04912223          	sw	s1,68(sp)
    a45c:	00a12623          	sw	a0,12(sp)
    a460:	00058493          	mv	s1,a1
    a464:	00000613          	li	a2,0
    a468:	01010593          	addi	a1,sp,16
    a46c:	00c10513          	addi	a0,sp,12
    a470:	04812423          	sw	s0,72(sp)
    a474:	04112623          	sw	ra,76(sp)
    a478:	dd0fd0ef          	jal	7a48 <mount_volume>
    a47c:	00050413          	mv	s0,a0
    a480:	04051663          	bnez	a0,a4cc <f_stat+0x78>
    a484:	00c12583          	lw	a1,12(sp)
    a488:	01010513          	addi	a0,sp,16
    a48c:	d20fe0ef          	jal	89ac <follow_path>
    a490:	00050413          	mv	s0,a0
    a494:	02051c63          	bnez	a0,a4cc <f_stat+0x78>
    a498:	03b10783          	lb	a5,59(sp)
    a49c:	0207c663          	bltz	a5,a4c8 <f_stat+0x74>
    a4a0:	00048863          	beqz	s1,a4b0 <f_stat+0x5c>
    a4a4:	00048593          	mv	a1,s1
    a4a8:	01010513          	addi	a0,sp,16
    a4ac:	de1fc0ef          	jal	728c <get_fileinfo>
    a4b0:	04c12083          	lw	ra,76(sp)
    a4b4:	00040513          	mv	a0,s0
    a4b8:	04812403          	lw	s0,72(sp)
    a4bc:	04412483          	lw	s1,68(sp)
    a4c0:	05010113          	addi	sp,sp,80
    a4c4:	00008067          	ret
    a4c8:	00600413          	li	s0,6
    a4cc:	fe0482e3          	beqz	s1,a4b0 <f_stat+0x5c>
    a4d0:	00048b23          	sb	zero,22(s1)
    a4d4:	fddff06f          	j	a4b0 <f_stat+0x5c>

0000a4d8 <f_getfree>:
    a4d8:	fb010113          	addi	sp,sp,-80
    a4dc:	04912223          	sw	s1,68(sp)
    a4e0:	03612823          	sw	s6,48(sp)
    a4e4:	00a12623          	sw	a0,12(sp)
    a4e8:	00058b13          	mv	s6,a1
    a4ec:	00060493          	mv	s1,a2
    a4f0:	01c10593          	addi	a1,sp,28
    a4f4:	00000613          	li	a2,0
    a4f8:	00c10513          	addi	a0,sp,12
    a4fc:	03312e23          	sw	s3,60(sp)
    a500:	04112623          	sw	ra,76(sp)
    a504:	04812423          	sw	s0,72(sp)
    a508:	05212023          	sw	s2,64(sp)
    a50c:	03412c23          	sw	s4,56(sp)
    a510:	03512a23          	sw	s5,52(sp)
    a514:	03712623          	sw	s7,44(sp)
    a518:	03812423          	sw	s8,40(sp)
    a51c:	03912223          	sw	s9,36(sp)
    a520:	03a12023          	sw	s10,32(sp)
    a524:	d24fd0ef          	jal	7a48 <mount_volume>
    a528:	00050993          	mv	s3,a0
    a52c:	02051063          	bnez	a0,a54c <f_getfree+0x74>
    a530:	01c12403          	lw	s0,28(sp)
    a534:	01c42d03          	lw	s10,28(s0)
    a538:	01442783          	lw	a5,20(s0)
    a53c:	0084a023          	sw	s0,0(s1)
    a540:	ffed0713          	addi	a4,s10,-2
    a544:	04f76263          	bltu	a4,a5,a588 <f_getfree+0xb0>
    a548:	00fb2023          	sw	a5,0(s6) # 1000 <hal_sys_putchar+0x4>
    a54c:	04c12083          	lw	ra,76(sp)
    a550:	04812403          	lw	s0,72(sp)
    a554:	04412483          	lw	s1,68(sp)
    a558:	04012903          	lw	s2,64(sp)
    a55c:	03812a03          	lw	s4,56(sp)
    a560:	03412a83          	lw	s5,52(sp)
    a564:	03012b03          	lw	s6,48(sp)
    a568:	02c12b83          	lw	s7,44(sp)
    a56c:	02812c03          	lw	s8,40(sp)
    a570:	02412c83          	lw	s9,36(sp)
    a574:	02012d03          	lw	s10,32(sp)
    a578:	00098513          	mv	a0,s3
    a57c:	03c12983          	lw	s3,60(sp)
    a580:	05010113          	addi	sp,sp,80
    a584:	00008067          	ret
    a588:	00044a03          	lbu	s4,0(s0)
    a58c:	00100793          	li	a5,1
    a590:	04fa1863          	bne	s4,a5,a5e0 <f_getfree+0x108>
    a594:	00000493          	li	s1,0
    a598:	00200913          	li	s2,2
    a59c:	fff00a93          	li	s5,-1
    a5a0:	00090593          	mv	a1,s2
    a5a4:	00040513          	mv	a0,s0
    a5a8:	8a9fd0ef          	jal	7e50 <get_fat.isra.0>
    a5ac:	0d550263          	beq	a0,s5,a670 <f_getfree+0x198>
    a5b0:	0d450463          	beq	a0,s4,a678 <f_getfree+0x1a0>
    a5b4:	01c42783          	lw	a5,28(s0)
    a5b8:	00153513          	seqz	a0,a0
    a5bc:	00190913          	addi	s2,s2,1
    a5c0:	00a484b3          	add	s1,s1,a0
    a5c4:	fcf96ee3          	bltu	s2,a5,a5a0 <f_getfree+0xc8>
    a5c8:	009b2023          	sw	s1,0(s6)
    a5cc:	00544783          	lbu	a5,5(s0)
    a5d0:	00942a23          	sw	s1,20(s0)
    a5d4:	0017e793          	ori	a5,a5,1
    a5d8:	00f402a3          	sb	a5,5(s0)
    a5dc:	f71ff06f          	j	a54c <f_getfree+0x74>
    a5e0:	02c42c83          	lw	s9,44(s0)
    a5e4:	10000ab7          	lui	s5,0x10000
    a5e8:	00001a37          	lui	s4,0x1
    a5ec:	00000913          	li	s2,0
    a5f0:	00000493          	li	s1,0
    a5f4:	00200b93          	li	s7,2
    a5f8:	03840c13          	addi	s8,s0,56
    a5fc:	fffa8a93          	addi	s5,s5,-1 # fffffff <_etext+0xffddc3b>
    a600:	fffa0a13          	addi	s4,s4,-1 # fff <hal_sys_putchar+0x3>
    a604:	00091c63          	bnez	s2,a61c <f_getfree+0x144>
    a608:	000c8593          	mv	a1,s9
    a60c:	00040513          	mv	a0,s0
    a610:	814fd0ef          	jal	7624 <move_window>
    a614:	04051e63          	bnez	a0,a670 <f_getfree+0x198>
    a618:	001c8c93          	addi	s9,s9,1
    a61c:	00044783          	lbu	a5,0(s0)
    a620:	03779a63          	bne	a5,s7,a654 <f_getfree+0x17c>
    a624:	012407b3          	add	a5,s0,s2
    a628:	0387c703          	lbu	a4,56(a5)
    a62c:	0397c783          	lbu	a5,57(a5)
    a630:	00290913          	addi	s2,s2,2
    a634:	00879793          	slli	a5,a5,0x8
    a638:	00e7e7b3          	or	a5,a5,a4
    a63c:	0017b793          	seqz	a5,a5
    a640:	00f484b3          	add	s1,s1,a5
    a644:	fffd0d13          	addi	s10,s10,-1
    a648:	01497933          	and	s2,s2,s4
    a64c:	fa0d1ce3          	bnez	s10,a604 <f_getfree+0x12c>
    a650:	f79ff06f          	j	a5c8 <f_getfree+0xf0>
    a654:	012c0533          	add	a0,s8,s2
    a658:	a25fc0ef          	jal	707c <ld_32>
    a65c:	01557533          	and	a0,a0,s5
    a660:	00153513          	seqz	a0,a0
    a664:	00a484b3          	add	s1,s1,a0
    a668:	00490913          	addi	s2,s2,4
    a66c:	fd9ff06f          	j	a644 <f_getfree+0x16c>
    a670:	00100993          	li	s3,1
    a674:	ed9ff06f          	j	a54c <f_getfree+0x74>
    a678:	00200993          	li	s3,2
    a67c:	ed1ff06f          	j	a54c <f_getfree+0x74>

0000a680 <f_truncate>:
    a680:	fe010113          	addi	sp,sp,-32
    a684:	00c10593          	addi	a1,sp,12
    a688:	00812c23          	sw	s0,24(sp)
    a68c:	00912a23          	sw	s1,20(sp)
    a690:	00112e23          	sw	ra,28(sp)
    a694:	00050413          	mv	s0,a0
    a698:	ae9fc0ef          	jal	7180 <validate>
    a69c:	00900493          	li	s1,9
    a6a0:	08051663          	bnez	a0,a72c <f_truncate+0xac>
    a6a4:	01144483          	lbu	s1,17(s0)
    a6a8:	08049263          	bnez	s1,a72c <f_truncate+0xac>
    a6ac:	01044783          	lbu	a5,16(s0)
    a6b0:	0027f793          	andi	a5,a5,2
    a6b4:	0e078663          	beqz	a5,a7a0 <f_truncate+0x120>
    a6b8:	01442783          	lw	a5,20(s0)
    a6bc:	00c42703          	lw	a4,12(s0)
    a6c0:	06e7f663          	bgeu	a5,a4,a72c <f_truncate+0xac>
    a6c4:	08079063          	bnez	a5,a744 <f_truncate+0xc4>
    a6c8:	00842583          	lw	a1,8(s0)
    a6cc:	00000613          	li	a2,0
    a6d0:	00040513          	mv	a0,s0
    a6d4:	8d5fd0ef          	jal	7fa8 <remove_chain>
    a6d8:	00050793          	mv	a5,a0
    a6dc:	00042423          	sw	zero,8(s0)
    a6e0:	01442703          	lw	a4,20(s0)
    a6e4:	00e42623          	sw	a4,12(s0)
    a6e8:	01044703          	lbu	a4,16(s0)
    a6ec:	04076713          	ori	a4,a4,64
    a6f0:	00e40823          	sb	a4,16(s0)
    a6f4:	0a079063          	bnez	a5,a794 <f_truncate+0x114>
    a6f8:	01871713          	slli	a4,a4,0x18
    a6fc:	41875713          	srai	a4,a4,0x18
    a700:	02075663          	bgez	a4,a72c <f_truncate+0xac>
    a704:	00c12783          	lw	a5,12(sp)
    a708:	01c42603          	lw	a2,28(s0)
    a70c:	00100693          	li	a3,1
    a710:	0017c503          	lbu	a0,1(a5)
    a714:	02840593          	addi	a1,s0,40
    a718:	869fc0ef          	jal	6f80 <disk_write>
    a71c:	06051a63          	bnez	a0,a790 <f_truncate+0x110>
    a720:	01044783          	lbu	a5,16(s0)
    a724:	07f7f793          	andi	a5,a5,127
    a728:	00f40823          	sb	a5,16(s0)
    a72c:	01c12083          	lw	ra,28(sp)
    a730:	01812403          	lw	s0,24(sp)
    a734:	00048513          	mv	a0,s1
    a738:	01412483          	lw	s1,20(sp)
    a73c:	02010113          	addi	sp,sp,32
    a740:	00008067          	ret
    a744:	01842583          	lw	a1,24(s0)
    a748:	00042503          	lw	a0,0(s0)
    a74c:	f04fd0ef          	jal	7e50 <get_fat.isra.0>
    a750:	00100713          	li	a4,1
    a754:	fff00693          	li	a3,-1
    a758:	00050593          	mv	a1,a0
    a75c:	00070793          	mv	a5,a4
    a760:	f8d500e3          	beq	a0,a3,a6e0 <f_truncate+0x60>
    a764:	00200793          	li	a5,2
    a768:	f6e50ce3          	beq	a0,a4,a6e0 <f_truncate+0x60>
    a76c:	00c12783          	lw	a5,12(sp)
    a770:	01c7a703          	lw	a4,28(a5)
    a774:	00000793          	li	a5,0
    a778:	f6e574e3          	bgeu	a0,a4,a6e0 <f_truncate+0x60>
    a77c:	01842603          	lw	a2,24(s0)
    a780:	00040513          	mv	a0,s0
    a784:	825fd0ef          	jal	7fa8 <remove_chain>
    a788:	00050793          	mv	a5,a0
    a78c:	f55ff06f          	j	a6e0 <f_truncate+0x60>
    a790:	00100793          	li	a5,1
    a794:	00f408a3          	sb	a5,17(s0)
    a798:	00078493          	mv	s1,a5
    a79c:	f91ff06f          	j	a72c <f_truncate+0xac>
    a7a0:	00700493          	li	s1,7
    a7a4:	f89ff06f          	j	a72c <f_truncate+0xac>

0000a7a8 <f_unlink>:
    a7a8:	f7010113          	addi	sp,sp,-144
    a7ac:	00a12623          	sw	a0,12(sp)
    a7b0:	00200613          	li	a2,2
    a7b4:	01c10593          	addi	a1,sp,28
    a7b8:	00c10513          	addi	a0,sp,12
    a7bc:	08112623          	sw	ra,140(sp)
    a7c0:	08812423          	sw	s0,136(sp)
    a7c4:	08912223          	sw	s1,132(sp)
    a7c8:	09212023          	sw	s2,128(sp)
    a7cc:	a7cfd0ef          	jal	7a48 <mount_volume>
    a7d0:	02051e63          	bnez	a0,a80c <f_unlink+0x64>
    a7d4:	01c12403          	lw	s0,28(sp)
    a7d8:	00c12583          	lw	a1,12(sp)
    a7dc:	02010513          	addi	a0,sp,32
    a7e0:	02812023          	sw	s0,32(sp)
    a7e4:	9c8fe0ef          	jal	89ac <follow_path>
    a7e8:	02051263          	bnez	a0,a80c <f_unlink+0x64>
    a7ec:	04b14783          	lbu	a5,75(sp)
    a7f0:	00600513          	li	a0,6
    a7f4:	0a07f793          	andi	a5,a5,160
    a7f8:	00079a63          	bnez	a5,a80c <f_unlink+0x64>
    a7fc:	02614903          	lbu	s2,38(sp)
    a800:	00197793          	andi	a5,s2,1
    a804:	02078063          	beqz	a5,a824 <f_unlink+0x7c>
    a808:	00700513          	li	a0,7
    a80c:	08c12083          	lw	ra,140(sp)
    a810:	08812403          	lw	s0,136(sp)
    a814:	08412483          	lw	s1,132(sp)
    a818:	08012903          	lw	s2,128(sp)
    a81c:	09010113          	addi	sp,sp,144
    a820:	00008067          	ret
    a824:	03c12583          	lw	a1,60(sp)
    a828:	00044503          	lbu	a0,0(s0)
    a82c:	01097913          	andi	s2,s2,16
    a830:	de8fd0ef          	jal	7e18 <ld_clust.isra.0>
    a834:	00050493          	mv	s1,a0
    a838:	02091063          	bnez	s2,a858 <f_unlink+0xb0>
    a83c:	02010513          	addi	a0,sp,32
    a840:	e61fd0ef          	jal	86a0 <dir_remove>
    a844:	fc0514e3          	bnez	a0,a80c <f_unlink+0x64>
    a848:	04049463          	bnez	s1,a890 <f_unlink+0xe8>
    a84c:	00040513          	mv	a0,s0
    a850:	cb9fc0ef          	jal	7508 <sync_fs>
    a854:	fb9ff06f          	j	a80c <f_unlink+0x64>
    a858:	01842783          	lw	a5,24(s0)
    a85c:	faa786e3          	beq	a5,a0,a808 <f_unlink+0x60>
    a860:	04a12c23          	sw	a0,88(sp)
    a864:	00000593          	li	a1,0
    a868:	05010513          	addi	a0,sp,80
    a86c:	04812823          	sw	s0,80(sp)
    a870:	d05fd0ef          	jal	8574 <dir_sdi>
    a874:	f8051ce3          	bnez	a0,a80c <f_unlink+0x64>
    a878:	05010513          	addi	a0,sp,80
    a87c:	b1dfd0ef          	jal	8398 <dir_read.constprop.0>
    a880:	f80504e3          	beqz	a0,a808 <f_unlink+0x60>
    a884:	00400793          	li	a5,4
    a888:	f8f512e3          	bne	a0,a5,a80c <f_unlink+0x64>
    a88c:	fb1ff06f          	j	a83c <f_unlink+0x94>
    a890:	00000613          	li	a2,0
    a894:	00048593          	mv	a1,s1
    a898:	02010513          	addi	a0,sp,32
    a89c:	f0cfd0ef          	jal	7fa8 <remove_chain>
    a8a0:	f60516e3          	bnez	a0,a80c <f_unlink+0x64>
    a8a4:	fa9ff06f          	j	a84c <f_unlink+0xa4>

0000a8a8 <f_mkdir>:
    a8a8:	f7010113          	addi	sp,sp,-144
    a8ac:	00a12623          	sw	a0,12(sp)
    a8b0:	00200613          	li	a2,2
    a8b4:	01c10593          	addi	a1,sp,28
    a8b8:	00c10513          	addi	a0,sp,12
    a8bc:	08812423          	sw	s0,136(sp)
    a8c0:	08112623          	sw	ra,140(sp)
    a8c4:	08912223          	sw	s1,132(sp)
    a8c8:	09212023          	sw	s2,128(sp)
    a8cc:	07312e23          	sw	s3,124(sp)
    a8d0:	07412c23          	sw	s4,120(sp)
    a8d4:	07512a23          	sw	s5,116(sp)
    a8d8:	07612823          	sw	s6,112(sp)
    a8dc:	07712623          	sw	s7,108(sp)
    a8e0:	968fd0ef          	jal	7a48 <mount_volume>
    a8e4:	00050413          	mv	s0,a0
    a8e8:	02051a63          	bnez	a0,a91c <f_mkdir+0x74>
    a8ec:	01c12483          	lw	s1,28(sp)
    a8f0:	00c12583          	lw	a1,12(sp)
    a8f4:	03010513          	addi	a0,sp,48
    a8f8:	02912823          	sw	s1,48(sp)
    a8fc:	8b0fe0ef          	jal	89ac <follow_path>
    a900:	00050413          	mv	s0,a0
    a904:	04051463          	bnez	a0,a94c <f_mkdir+0xa4>
    a908:	05b14503          	lbu	a0,91(sp)
    a90c:	0a057513          	andi	a0,a0,160
    a910:	00153513          	seqz	a0,a0
    a914:	00151413          	slli	s0,a0,0x1
    a918:	00640413          	addi	s0,s0,6
    a91c:	08c12083          	lw	ra,140(sp)
    a920:	00040513          	mv	a0,s0
    a924:	08812403          	lw	s0,136(sp)
    a928:	08412483          	lw	s1,132(sp)
    a92c:	08012903          	lw	s2,128(sp)
    a930:	07c12983          	lw	s3,124(sp)
    a934:	07812a03          	lw	s4,120(sp)
    a938:	07412a83          	lw	s5,116(sp)
    a93c:	07012b03          	lw	s6,112(sp)
    a940:	06c12b83          	lw	s7,108(sp)
    a944:	09010113          	addi	sp,sp,144
    a948:	00008067          	ret
    a94c:	00400793          	li	a5,4
    a950:	fcf516e3          	bne	a0,a5,a91c <f_mkdir+0x74>
    a954:	00000593          	li	a1,0
    a958:	02010513          	addi	a0,sp,32
    a95c:	02912023          	sw	s1,32(sp)
    a960:	f40fd0ef          	jal	80a0 <create_chain>
    a964:	00050913          	mv	s2,a0
    a968:	10050c63          	beqz	a0,aa80 <f_mkdir+0x1d8>
    a96c:	00100993          	li	s3,1
    a970:	11350c63          	beq	a0,s3,aa88 <f_mkdir+0x1e0>
    a974:	fff00793          	li	a5,-1
    a978:	00f51e63          	bne	a0,a5,a994 <f_mkdir+0xec>
    a97c:	00100413          	li	s0,1
    a980:	00000613          	li	a2,0
    a984:	00090593          	mv	a1,s2
    a988:	02010513          	addi	a0,sp,32
    a98c:	e1cfd0ef          	jal	7fa8 <remove_chain>
    a990:	f8dff06f          	j	a91c <f_mkdir+0x74>
    a994:	00050593          	mv	a1,a0
    a998:	00048513          	mv	a0,s1
    a99c:	808fd0ef          	jal	79a4 <dir_clear>
    a9a0:	fc051ee3          	bnez	a0,a97c <f_mkdir+0xd4>
    a9a4:	03848413          	addi	s0,s1,56
    a9a8:	00b00613          	li	a2,11
    a9ac:	02000593          	li	a1,32
    a9b0:	00040513          	mv	a0,s0
    a9b4:	821f50ef          	jal	1d4 <memset>
    a9b8:	02e00b93          	li	s7,46
    a9bc:	01000a93          	li	s5,16
    a9c0:	02100b13          	li	s6,33
    a9c4:	05c00a13          	li	s4,92
    a9c8:	00040593          	mv	a1,s0
    a9cc:	00090613          	mv	a2,s2
    a9d0:	00048513          	mv	a0,s1
    a9d4:	03748c23          	sb	s7,56(s1)
    a9d8:	055481a3          	sb	s5,67(s1)
    a9dc:	04048723          	sb	zero,78(s1)
    a9e0:	040487a3          	sb	zero,79(s1)
    a9e4:	05648823          	sb	s6,80(s1)
    a9e8:	054488a3          	sb	s4,81(s1)
    a9ec:	c0dfc0ef          	jal	75f8 <st_clust>
    a9f0:	00040593          	mv	a1,s0
    a9f4:	05848413          	addi	s0,s1,88
    a9f8:	02000613          	li	a2,32
    a9fc:	00040513          	mv	a0,s0
    aa00:	fb0f50ef          	jal	1b0 <memcpy>
    aa04:	03812603          	lw	a2,56(sp)
    aa08:	00040593          	mv	a1,s0
    aa0c:	00048513          	mv	a0,s1
    aa10:	05748ca3          	sb	s7,89(s1)
    aa14:	be5fc0ef          	jal	75f8 <st_clust>
    aa18:	03010513          	addi	a0,sp,48
    aa1c:	01348223          	sb	s3,4(s1)
    aa20:	cd8fe0ef          	jal	8ef8 <dir_register>
    aa24:	00050413          	mv	s0,a0
    aa28:	f4051ce3          	bnez	a0,a980 <f_mkdir+0xd8>
    aa2c:	04c12783          	lw	a5,76(sp)
    aa30:	00090613          	mv	a2,s2
    aa34:	00048513          	mv	a0,s1
    aa38:	00078723          	sb	zero,14(a5)
    aa3c:	000787a3          	sb	zero,15(a5)
    aa40:	01678823          	sb	s6,16(a5)
    aa44:	014788a3          	sb	s4,17(a5)
    aa48:	04c12783          	lw	a5,76(sp)
    aa4c:	00078b23          	sb	zero,22(a5)
    aa50:	00078ba3          	sb	zero,23(a5)
    aa54:	01678c23          	sb	s6,24(a5)
    aa58:	01478ca3          	sb	s4,25(a5)
    aa5c:	04c12583          	lw	a1,76(sp)
    aa60:	b99fc0ef          	jal	75f8 <st_clust>
    aa64:	04c12783          	lw	a5,76(sp)
    aa68:	00048513          	mv	a0,s1
    aa6c:	015785a3          	sb	s5,11(a5)
    aa70:	01348223          	sb	s3,4(s1)
    aa74:	a95fc0ef          	jal	7508 <sync_fs>
    aa78:	00050413          	mv	s0,a0
    aa7c:	ea1ff06f          	j	a91c <f_mkdir+0x74>
    aa80:	00700413          	li	s0,7
    aa84:	efdff06f          	j	a980 <f_mkdir+0xd8>
    aa88:	00200413          	li	s0,2
    aa8c:	ef5ff06f          	j	a980 <f_mkdir+0xd8>

0000aa90 <f_rename>:
    aa90:	f5010113          	addi	sp,sp,-176
    aa94:	00a12623          	sw	a0,12(sp)
    aa98:	00810513          	addi	a0,sp,8
    aa9c:	0a112623          	sw	ra,172(sp)
    aaa0:	0a812423          	sw	s0,168(sp)
    aaa4:	0a912223          	sw	s1,164(sp)
    aaa8:	0b212023          	sw	s2,160(sp)
    aaac:	00b12423          	sw	a1,8(sp)
    aab0:	e74fc0ef          	jal	7124 <get_ldnumber>
    aab4:	00200613          	li	a2,2
    aab8:	01c10593          	addi	a1,sp,28
    aabc:	00c10513          	addi	a0,sp,12
    aac0:	f89fc0ef          	jal	7a48 <mount_volume>
    aac4:	12051e63          	bnez	a0,ac00 <f_rename+0x170>
    aac8:	01c12403          	lw	s0,28(sp)
    aacc:	00c12583          	lw	a1,12(sp)
    aad0:	04010513          	addi	a0,sp,64
    aad4:	04812023          	sw	s0,64(sp)
    aad8:	ed5fd0ef          	jal	89ac <follow_path>
    aadc:	12051263          	bnez	a0,ac00 <f_rename+0x170>
    aae0:	06b14783          	lbu	a5,107(sp)
    aae4:	00600513          	li	a0,6
    aae8:	0a07f793          	andi	a5,a5,160
    aaec:	10079a63          	bnez	a5,ac00 <f_rename+0x170>
    aaf0:	05c12583          	lw	a1,92(sp)
    aaf4:	02000613          	li	a2,32
    aaf8:	00c10533          	add	a0,sp,a2
    aafc:	eb4f50ef          	jal	1b0 <memcpy>
    ab00:	04010593          	addi	a1,sp,64
    ab04:	03000613          	li	a2,48
    ab08:	07010513          	addi	a0,sp,112
    ab0c:	ea4f50ef          	jal	1b0 <memcpy>
    ab10:	00812583          	lw	a1,8(sp)
    ab14:	07010513          	addi	a0,sp,112
    ab18:	e95fd0ef          	jal	89ac <follow_path>
    ab1c:	0c051e63          	bnez	a0,abf8 <f_rename+0x168>
    ab20:	07812703          	lw	a4,120(sp)
    ab24:	04812783          	lw	a5,72(sp)
    ab28:	00800513          	li	a0,8
    ab2c:	0cf71a63          	bne	a4,a5,ac00 <f_rename+0x170>
    ab30:	08012703          	lw	a4,128(sp)
    ab34:	05012783          	lw	a5,80(sp)
    ab38:	0cf71463          	bne	a4,a5,ac00 <f_rename+0x170>
    ab3c:	07010513          	addi	a0,sp,112
    ab40:	bb8fe0ef          	jal	8ef8 <dir_register>
    ab44:	0a051e63          	bnez	a0,ac00 <f_rename+0x170>
    ab48:	08c12483          	lw	s1,140(sp)
    ab4c:	01300613          	li	a2,19
    ab50:	02d10593          	addi	a1,sp,45
    ab54:	00d48513          	addi	a0,s1,13
    ab58:	e58f50ef          	jal	1b0 <memcpy>
    ab5c:	02b14783          	lbu	a5,43(sp)
    ab60:	0107f713          	andi	a4,a5,16
    ab64:	00071463          	bnez	a4,ab6c <f_rename+0xdc>
    ab68:	0207e793          	ori	a5,a5,32
    ab6c:	00f485a3          	sb	a5,11(s1)
    ab70:	00100913          	li	s2,1
    ab74:	01240223          	sb	s2,4(s0)
    ab78:	00b4c783          	lbu	a5,11(s1)
    ab7c:	0107f793          	andi	a5,a5,16
    ab80:	06078063          	beqz	a5,abe0 <f_rename+0x150>
    ab84:	04812703          	lw	a4,72(sp)
    ab88:	07812783          	lw	a5,120(sp)
    ab8c:	04f70a63          	beq	a4,a5,abe0 <f_rename+0x150>
    ab90:	00044503          	lbu	a0,0(s0)
    ab94:	00048593          	mv	a1,s1
    ab98:	a80fd0ef          	jal	7e18 <ld_clust.isra.0>
    ab9c:	00050593          	mv	a1,a0
    aba0:	00040513          	mv	a0,s0
    aba4:	d24fc0ef          	jal	70c8 <clst2sect>
    aba8:	00050593          	mv	a1,a0
    abac:	00200513          	li	a0,2
    abb0:	04058863          	beqz	a1,ac00 <f_rename+0x170>
    abb4:	00040513          	mv	a0,s0
    abb8:	a6dfc0ef          	jal	7624 <move_window>
    abbc:	04051263          	bnez	a0,ac00 <f_rename+0x170>
    abc0:	05944703          	lbu	a4,89(s0)
    abc4:	02e00793          	li	a5,46
    abc8:	00f71c63          	bne	a4,a5,abe0 <f_rename+0x150>
    abcc:	07812603          	lw	a2,120(sp)
    abd0:	05840593          	addi	a1,s0,88
    abd4:	00040513          	mv	a0,s0
    abd8:	a21fc0ef          	jal	75f8 <st_clust>
    abdc:	01240223          	sb	s2,4(s0)
    abe0:	04010513          	addi	a0,sp,64
    abe4:	abdfd0ef          	jal	86a0 <dir_remove>
    abe8:	00051c63          	bnez	a0,ac00 <f_rename+0x170>
    abec:	00040513          	mv	a0,s0
    abf0:	919fc0ef          	jal	7508 <sync_fs>
    abf4:	00c0006f          	j	ac00 <f_rename+0x170>
    abf8:	00400793          	li	a5,4
    abfc:	f4f500e3          	beq	a0,a5,ab3c <f_rename+0xac>
    ac00:	0ac12083          	lw	ra,172(sp)
    ac04:	0a812403          	lw	s0,168(sp)
    ac08:	0a412483          	lw	s1,164(sp)
    ac0c:	0a012903          	lw	s2,160(sp)
    ac10:	0b010113          	addi	sp,sp,176
    ac14:	00008067          	ret

0000ac18 <f_mkfs>:
    ac18:	f8010113          	addi	sp,sp,-128
    ac1c:	00a12e23          	sw	a0,28(sp)
    ac20:	01c10513          	addi	a0,sp,28
    ac24:	06912a23          	sw	s1,116(sp)
    ac28:	07212823          	sw	s2,112(sp)
    ac2c:	05812c23          	sw	s8,88(sp)
    ac30:	06112e23          	sw	ra,124(sp)
    ac34:	06812c23          	sw	s0,120(sp)
    ac38:	07312623          	sw	s3,108(sp)
    ac3c:	07412423          	sw	s4,104(sp)
    ac40:	07512223          	sw	s5,100(sp)
    ac44:	07612023          	sw	s6,96(sp)
    ac48:	05712e23          	sw	s7,92(sp)
    ac4c:	05912a23          	sw	s9,84(sp)
    ac50:	05a12823          	sw	s10,80(sp)
    ac54:	05b12623          	sw	s11,76(sp)
    ac58:	00058493          	mv	s1,a1
    ac5c:	00060c13          	mv	s8,a2
    ac60:	00068913          	mv	s2,a3
    ac64:	cc0fc0ef          	jal	7124 <get_ldnumber>
    ac68:	fff00713          	li	a4,-1
    ac6c:	12e50ae3          	beq	a0,a4,b5a0 <f_mkfs+0x988>
    ac70:	3000f6b7          	lui	a3,0x3000f
    ac74:	00251713          	slli	a4,a0,0x2
    ac78:	38068693          	addi	a3,a3,896 # 3000f380 <FatFs>
    ac7c:	00d70733          	add	a4,a4,a3
    ac80:	00072703          	lw	a4,0(a4)
    ac84:	00070463          	beqz	a4,ac8c <f_mkfs+0x74>
    ac88:	00070023          	sb	zero,0(a4)
    ac8c:	0ff57793          	zext.b	a5,a0
    ac90:	00078513          	mv	a0,a5
    ac94:	00f12623          	sw	a5,12(sp)
    ac98:	9b0fc0ef          	jal	6e48 <disk_initialize>
    ac9c:	00157693          	andi	a3,a0,1
    aca0:	00050713          	mv	a4,a0
    aca4:	00300513          	li	a0,3
    aca8:	12069c63          	bnez	a3,ade0 <f_mkfs+0x1c8>
    acac:	00477713          	andi	a4,a4,4
    acb0:	00a00513          	li	a0,10
    acb4:	12071663          	bnez	a4,ade0 <f_mkfs+0x1c8>
    acb8:	00049663          	bnez	s1,acc4 <f_mkfs+0xac>
    acbc:	000204b7          	lui	s1,0x20
    acc0:	79448493          	addi	s1,s1,1940 # 20794 <defopt.2>
    acc4:	0044a703          	lw	a4,4(s1)
    acc8:	02e12623          	sw	a4,44(sp)
    accc:	00071a63          	bnez	a4,ace0 <f_mkfs+0xc8>
    acd0:	00c12503          	lw	a0,12(sp)
    acd4:	02c10613          	addi	a2,sp,44
    acd8:	00300593          	li	a1,3
    acdc:	b50fc0ef          	jal	702c <disk_ioctl>
    ace0:	02c12703          	lw	a4,44(sp)
    ace4:	00008637          	lui	a2,0x8
    ace8:	fff70693          	addi	a3,a4,-1
    acec:	00c6f663          	bgeu	a3,a2,acf8 <f_mkfs+0xe0>
    acf0:	00d77733          	and	a4,a4,a3
    acf4:	00070663          	beqz	a4,ad00 <f_mkfs+0xe8>
    acf8:	00100713          	li	a4,1
    acfc:	02e12623          	sw	a4,44(sp)
    ad00:	0014cb03          	lbu	s6,1(s1)
    ad04:	00100693          	li	a3,1
    ad08:	fffb0713          	addi	a4,s6,-1
    ad0c:	0ff77713          	zext.b	a4,a4
    ad10:	00e6f463          	bgeu	a3,a4,ad18 <f_mkfs+0x100>
    ad14:	00068b13          	mv	s6,a3
    ad18:	0084ad03          	lw	s10,8(s1)
    ad1c:	00008737          	lui	a4,0x8
    ad20:	fffd0693          	addi	a3,s10,-1
    ad24:	00e6f663          	bgeu	a3,a4,ad30 <f_mkfs+0x118>
    ad28:	07fd7713          	andi	a4,s10,127
    ad2c:	00070463          	beqz	a4,ad34 <f_mkfs+0x11c>
    ad30:	20000d13          	li	s10,512
    ad34:	00c4a403          	lw	s0,12(s1)
    ad38:	01000737          	lui	a4,0x1000
    ad3c:	0e876063          	bltu	a4,s0,ae1c <f_mkfs+0x204>
    ad40:	fff40713          	addi	a4,s0,-1
    ad44:	00877733          	and	a4,a4,s0
    ad48:	00173713          	seqz	a4,a4
    ad4c:	40e00733          	neg	a4,a4
    ad50:	00e47433          	and	s0,s0,a4
    ad54:	00c95793          	srli	a5,s2,0xc
    ad58:	00f12823          	sw	a5,16(sp)
    ad5c:	040786e3          	beqz	a5,b5a8 <f_mkfs+0x990>
    ad60:	040c04e3          	beqz	s8,b5a8 <f_mkfs+0x990>
    ad64:	00c12503          	lw	a0,12(sp)
    ad68:	03010613          	addi	a2,sp,48
    ad6c:	00100593          	li	a1,1
    ad70:	0004c483          	lbu	s1,0(s1)
    ad74:	02012823          	sw	zero,48(sp)
    ad78:	ab4fc0ef          	jal	702c <disk_ioctl>
    ad7c:	66051263          	bnez	a0,b3e0 <f_mkfs+0x7c8>
    ad80:	0084f793          	andi	a5,s1,8
    ad84:	00f12a23          	sw	a5,20(sp)
    ad88:	00000b93          	li	s7,0
    ad8c:	00079e63          	bnez	a5,ada8 <f_mkfs+0x190>
    ad90:	03012703          	lw	a4,48(sp)
    ad94:	03f00693          	li	a3,63
    ad98:	00e6f863          	bgeu	a3,a4,ada8 <f_mkfs+0x190>
    ad9c:	fc170713          	addi	a4,a4,-63 # ffffc1 <_etext+0xfddbfd>
    ada0:	02e12823          	sw	a4,48(sp)
    ada4:	00068b93          	mv	s7,a3
    ada8:	03012c83          	lw	s9,48(sp)
    adac:	07f00713          	li	a4,127
    adb0:	07976a63          	bltu	a4,s9,ae24 <f_mkfs+0x20c>
    adb4:	000027b7          	lui	a5,0x2
    adb8:	81978793          	addi	a5,a5,-2023 # 1819 <hal_qspi_send_cmd+0x5d>
    adbc:	00022737          	lui	a4,0x22
    adc0:	f9470713          	addi	a4,a4,-108 # 21f94 <log_level_colors+0x17ac>
    adc4:	000226b7          	lui	a3,0x22
    adc8:	00300513          	li	a0,3
    adcc:	fac68693          	addi	a3,a3,-84 # 21fac <log_level_colors+0x17c4>
    add0:	00078613          	mv	a2,a5
    add4:	00070593          	mv	a1,a4
    add8:	2f8010ef          	jal	c0d0 <log_print>
    addc:	00e00513          	li	a0,14
    ade0:	07c12083          	lw	ra,124(sp)
    ade4:	07812403          	lw	s0,120(sp)
    ade8:	07412483          	lw	s1,116(sp)
    adec:	07012903          	lw	s2,112(sp)
    adf0:	06c12983          	lw	s3,108(sp)
    adf4:	06812a03          	lw	s4,104(sp)
    adf8:	06412a83          	lw	s5,100(sp)
    adfc:	06012b03          	lw	s6,96(sp)
    ae00:	05c12b83          	lw	s7,92(sp)
    ae04:	05812c03          	lw	s8,88(sp)
    ae08:	05412c83          	lw	s9,84(sp)
    ae0c:	05012d03          	lw	s10,80(sp)
    ae10:	04c12d83          	lw	s11,76(sp)
    ae14:	08010113          	addi	sp,sp,128
    ae18:	00008067          	ret
    ae1c:	00000413          	li	s0,0
    ae20:	f35ff06f          	j	ad54 <f_mkfs+0x13c>
    ae24:	0024f613          	andi	a2,s1,2
    ae28:	0014f493          	andi	s1,s1,1
    ae2c:	0e060463          	beqz	a2,af14 <f_mkfs+0x2fc>
    ae30:	00300693          	li	a3,3
    ae34:	409686b3          	sub	a3,a3,s1
    ae38:	0ff6f693          	zext.b	a3,a3
    ae3c:	00c45413          	srli	s0,s0,0xc
    ae40:	08000593          	li	a1,128
    ae44:	00040713          	mv	a4,s0
    ae48:	0085f463          	bgeu	a1,s0,ae50 <f_mkfs+0x238>
    ae4c:	00058713          	mv	a4,a1
    ae50:	00300593          	li	a1,3
    ae54:	18b69c63          	bne	a3,a1,afec <f_mkfs+0x3d4>
    ae58:	00070593          	mv	a1,a4
    ae5c:	02041263          	bnez	s0,ae80 <f_mkfs+0x268>
    ae60:	000206b7          	lui	a3,0x20
    ae64:	011cd513          	srli	a0,s9,0x11
    ae68:	7a468693          	addi	a3,a3,1956 # 207a4 <cst32.1>
    ae6c:	00100713          	li	a4,1
    ae70:	0006d583          	lhu	a1,0(a3)
    ae74:	00058463          	beqz	a1,ae7c <f_mkfs+0x264>
    ae78:	0ab57663          	bgeu	a0,a1,af24 <f_mkfs+0x30c>
    ae7c:	00000593          	li	a1,0
    ae80:	02ecd433          	divu	s0,s9,a4
    ae84:	ffff06b7          	lui	a3,0xffff0
    ae88:	00a68693          	addi	a3,a3,10 # ffff000a <_stack_point+0xcffd000a>
    ae8c:	0fff0537          	lui	a0,0xfff0
    ae90:	00d406b3          	add	a3,s0,a3
    ae94:	08a6fe63          	bgeu	a3,a0,af30 <f_mkfs+0x318>
    ae98:	000016b7          	lui	a3,0x1
    ae9c:	00241413          	slli	s0,s0,0x2
    aea0:	00768693          	addi	a3,a3,7 # 1007 <hal_sys_putchar+0xb>
    aea4:	00d40433          	add	s0,s0,a3
    aea8:	00070913          	mv	s2,a4
    aeac:	00c45413          	srli	s0,s0,0xc
    aeb0:	00000993          	li	s3,0
    aeb4:	00058713          	mv	a4,a1
    aeb8:	02000d93          	li	s11,32
    aebc:	00300493          	li	s1,3
    aec0:	036405b3          	mul	a1,s0,s6
    aec4:	02c12503          	lw	a0,44(sp)
    aec8:	017d8a33          	add	s4,s11,s7
    aecc:	fff50693          	addi	a3,a0,-1 # ffeffff <_etext+0xffcdc3b>
    aed0:	40a00533          	neg	a0,a0
    aed4:	014585b3          	add	a1,a1,s4
    aed8:	013585b3          	add	a1,a1,s3
    aedc:	00b686b3          	add	a3,a3,a1
    aee0:	00a6f6b3          	and	a3,a3,a0
    aee4:	00300513          	li	a0,3
    aee8:	40b686b3          	sub	a3,a3,a1
    aeec:	06a49c63          	bne	s1,a0,af64 <f_mkfs+0x34c>
    aef0:	00dd8db3          	add	s11,s11,a3
    aef4:	00da0a33          	add	s4,s4,a3
    aef8:	00491693          	slli	a3,s2,0x4
    aefc:	417686b3          	sub	a3,a3,s7
    af00:	00b686b3          	add	a3,a3,a1
    af04:	08dcf063          	bgeu	s9,a3,af84 <f_mkfs+0x36c>
    af08:	000027b7          	lui	a5,0x2
    af0c:	90178793          	addi	a5,a5,-1791 # 1901 <hal_qspi_write+0xd5>
    af10:	eadff06f          	j	adbc <f_mkfs+0x1a4>
    af14:	01300513          	li	a0,19
    af18:	ec0484e3          	beqz	s1,ade0 <f_mkfs+0x1c8>
    af1c:	00200693          	li	a3,2
    af20:	f1dff06f          	j	ae3c <f_mkfs+0x224>
    af24:	00268693          	addi	a3,a3,2
    af28:	00171713          	slli	a4,a4,0x1
    af2c:	f45ff06f          	j	ae70 <f_mkfs+0x258>
    af30:	000027b7          	lui	a5,0x2
    af34:	8e178793          	addi	a5,a5,-1823 # 18e1 <hal_qspi_write+0xb5>
    af38:	e85ff06f          	j	adbc <f_mkfs+0x1a4>
    af3c:	00268693          	addi	a3,a3,2
    af40:	00191913          	slli	s2,s2,0x1
    af44:	0c00006f          	j	b004 <f_mkfs+0x3ec>
    af48:	00300693          	li	a3,3
    af4c:	02d40433          	mul	s0,s0,a3
    af50:	00100493          	li	s1,1
    af54:	00140413          	addi	s0,s0,1
    af58:	00145413          	srli	s0,s0,0x1
    af5c:	00d40433          	add	s0,s0,a3
    af60:	0d00006f          	j	b030 <f_mkfs+0x418>
    af64:	0366f533          	remu	a0,a3,s6
    af68:	00050863          	beqz	a0,af78 <f_mkfs+0x360>
    af6c:	fff68693          	addi	a3,a3,-1
    af70:	001d8d93          	addi	s11,s11,1
    af74:	001a0a13          	addi	s4,s4,1
    af78:	0366d6b3          	divu	a3,a3,s6
    af7c:	00d40433          	add	s0,s0,a3
    af80:	f79ff06f          	j	aef8 <f_mkfs+0x2e0>
    af84:	036406b3          	mul	a3,s0,s6
    af88:	413c8ab3          	sub	s5,s9,s3
    af8c:	41ba8ab3          	sub	s5,s5,s11
    af90:	40da8ab3          	sub	s5,s5,a3
    af94:	00300693          	li	a3,3
    af98:	032adab3          	divu	s5,s5,s2
    af9c:	02d49663          	bne	s1,a3,afc8 <f_mkfs+0x3b0>
    afa0:	000106b7          	lui	a3,0x10
    afa4:	ff568693          	addi	a3,a3,-11 # fff5 <oem2uni950+0x2741>
    afa8:	0d56e863          	bltu	a3,s5,b078 <f_mkfs+0x460>
    afac:	00071863          	bnez	a4,afbc <f_mkfs+0x3a4>
    afb0:	00195713          	srli	a4,s2,0x1
    afb4:	00070593          	mv	a1,a4
    afb8:	ec0714e3          	bnez	a4,ae80 <f_mkfs+0x268>
    afbc:	000027b7          	lui	a5,0x2
    afc0:	90678793          	addi	a5,a5,-1786 # 1906 <hal_qspi_write+0xda>
    afc4:	df9ff06f          	j	adbc <f_mkfs+0x1a4>
    afc8:	00200693          	li	a3,2
    afcc:	0ad49463          	bne	s1,a3,b074 <f_mkfs+0x45c>
    afd0:	000106b7          	lui	a3,0x10
    afd4:	ff568693          	addi	a3,a3,-11 # fff5 <oem2uni950+0x2741>
    afd8:	0756fa63          	bgeu	a3,s5,b04c <f_mkfs+0x434>
    afdc:	5e071863          	bnez	a4,b5cc <f_mkfs+0x9b4>
    afe0:	00191713          	slli	a4,s2,0x1
    afe4:	04000693          	li	a3,64
    afe8:	5ce6e463          	bltu	a3,a4,b5b0 <f_mkfs+0x998>
    afec:	00070913          	mv	s2,a4
    aff0:	02071063          	bnez	a4,b010 <f_mkfs+0x3f8>
    aff4:	000206b7          	lui	a3,0x20
    aff8:	00ccd513          	srli	a0,s9,0xc
    affc:	7b468693          	addi	a3,a3,1972 # 207b4 <cst.0>
    b000:	00100913          	li	s2,1
    b004:	0006d583          	lhu	a1,0(a3)
    b008:	00058463          	beqz	a1,b010 <f_mkfs+0x3f8>
    b00c:	f2b578e3          	bgeu	a0,a1,af3c <f_mkfs+0x324>
    b010:	032cd433          	divu	s0,s9,s2
    b014:	000016b7          	lui	a3,0x1
    b018:	ff568693          	addi	a3,a3,-11 # ff5 <hal_sys_uart_init+0x9>
    b01c:	005d1993          	slli	s3,s10,0x5
    b020:	f286f4e3          	bgeu	a3,s0,af48 <f_mkfs+0x330>
    b024:	00240413          	addi	s0,s0,2
    b028:	00141413          	slli	s0,s0,0x1
    b02c:	00200493          	li	s1,2
    b030:	000016b7          	lui	a3,0x1
    b034:	fff68693          	addi	a3,a3,-1 # fff <hal_sys_putchar+0x3>
    b038:	00d40433          	add	s0,s0,a3
    b03c:	00c45413          	srli	s0,s0,0xc
    b040:	00c9d993          	srli	s3,s3,0xc
    b044:	00100d93          	li	s11,1
    b048:	e79ff06f          	j	aec0 <f_mkfs+0x2a8>
    b04c:	000016b7          	lui	a3,0x1
    b050:	ff568693          	addi	a3,a3,-11 # ff5 <hal_sys_uart_init+0x9>
    b054:	0356e263          	bltu	a3,s5,b078 <f_mkfs+0x460>
    b058:	00071863          	bnez	a4,b068 <f_mkfs+0x450>
    b05c:	00191713          	slli	a4,s2,0x1
    b060:	08000693          	li	a3,128
    b064:	f8e6f4e3          	bgeu	a3,a4,afec <f_mkfs+0x3d4>
    b068:	000027b7          	lui	a5,0x2
    b06c:	91678793          	addi	a5,a5,-1770 # 1916 <hal_qspi_write+0xea>
    b070:	d4dff06f          	j	adbc <f_mkfs+0x1a4>
    b074:	00100493          	li	s1,1
    b078:	fff48793          	addi	a5,s1,-1
    b07c:	00001737          	lui	a4,0x1
    b080:	00f12c23          	sw	a5,24(sp)
    b084:	ff570713          	addi	a4,a4,-11 # ff5 <hal_sys_uart_init+0x9>
    b088:	01577a63          	bgeu	a4,s5,b09c <f_mkfs+0x484>
    b08c:	00079863          	bnez	a5,b09c <f_mkfs+0x484>
    b090:	000027b7          	lui	a5,0x2
    b094:	91978793          	addi	a5,a5,-1767 # 1919 <hal_qspi_write+0xed>
    b098:	d25ff06f          	j	adbc <f_mkfs+0x1a4>
    b09c:	5c210737          	lui	a4,0x5c210
    b0a0:	00001637          	lui	a2,0x1
    b0a4:	00000593          	li	a1,0
    b0a8:	000c0513          	mv	a0,s8
    b0ac:	00ec8cb3          	add	s9,s9,a4
    b0b0:	924f50ef          	jal	1d4 <memset>
    b0b4:	000225b7          	lui	a1,0x22
    b0b8:	00b00613          	li	a2,11
    b0bc:	fc858593          	addi	a1,a1,-56 # 21fc8 <log_level_colors+0x17e0>
    b0c0:	000c0513          	mv	a0,s8
    b0c4:	8ecf50ef          	jal	1b0 <memcpy>
    b0c8:	01000713          	li	a4,16
    b0cc:	01bc0723          	sb	s11,14(s8)
    b0d0:	008ddd93          	srli	s11,s11,0x8
    b0d4:	00ec0623          	sb	a4,12(s8)
    b0d8:	000c05a3          	sb	zero,11(s8)
    b0dc:	012c06a3          	sb	s2,13(s8)
    b0e0:	01bc07a3          	sb	s11,15(s8)
    b0e4:	016c0823          	sb	s6,16(s8)
    b0e8:	00300713          	li	a4,3
    b0ec:	00e49463          	bne	s1,a4,b0f4 <f_mkfs+0x4dc>
    b0f0:	00000d13          	li	s10,0
    b0f4:	03012583          	lw	a1,48(sp)
    b0f8:	01ac08a3          	sb	s10,17(s8)
    b0fc:	008d5d13          	srli	s10,s10,0x8
    b100:	01ac0923          	sb	s10,18(s8)
    b104:	00010737          	lui	a4,0x10
    b108:	2ee5f063          	bgeu	a1,a4,b3e8 <f_mkfs+0x7d0>
    b10c:	00bc09a3          	sb	a1,19(s8)
    b110:	0085d593          	srli	a1,a1,0x8
    b114:	00bc0a23          	sb	a1,20(s8)
    b118:	ff800713          	li	a4,-8
    b11c:	00ec0aa3          	sb	a4,21(s8)
    b120:	03f00713          	li	a4,63
    b124:	00ec0c23          	sb	a4,24(s8)
    b128:	fff00713          	li	a4,-1
    b12c:	00ec0d23          	sb	a4,26(s8)
    b130:	000b8593          	mv	a1,s7
    b134:	000c0ca3          	sb	zero,25(s8)
    b138:	000c0da3          	sb	zero,27(s8)
    b13c:	01cc0513          	addi	a0,s8,28
    b140:	f69fb0ef          	jal	70a8 <st_32>
    b144:	00300713          	li	a4,3
    b148:	000c8593          	mv	a1,s9
    b14c:	2ae49463          	bne	s1,a4,b3f4 <f_mkfs+0x7dc>
    b150:	043c0513          	addi	a0,s8,67
    b154:	f55fb0ef          	jal	70a8 <st_32>
    b158:	00040593          	mv	a1,s0
    b15c:	024c0513          	addi	a0,s8,36
    b160:	f49fb0ef          	jal	70a8 <st_32>
    b164:	00200713          	li	a4,2
    b168:	02ec0623          	sb	a4,44(s8)
    b16c:	00100713          	li	a4,1
    b170:	02ec0823          	sb	a4,48(s8)
    b174:	00600713          	li	a4,6
    b178:	02ec0923          	sb	a4,50(s8)
    b17c:	f8000713          	li	a4,-128
    b180:	04ec0023          	sb	a4,64(s8)
    b184:	000225b7          	lui	a1,0x22
    b188:	02900713          	li	a4,41
    b18c:	020c06a3          	sb	zero,45(s8)
    b190:	020c0723          	sb	zero,46(s8)
    b194:	020c07a3          	sb	zero,47(s8)
    b198:	020c08a3          	sb	zero,49(s8)
    b19c:	020c09a3          	sb	zero,51(s8)
    b1a0:	04ec0123          	sb	a4,66(s8)
    b1a4:	01300613          	li	a2,19
    b1a8:	fd458593          	addi	a1,a1,-44 # 21fd4 <log_level_colors+0x17ec>
    b1ac:	047c0513          	addi	a0,s8,71
    b1b0:	800f50ef          	jal	1b0 <memcpy>
    b1b4:	00c12503          	lw	a0,12(sp)
    b1b8:	05500d13          	li	s10,85
    b1bc:	faa00d93          	li	s11,-86
    b1c0:	1fac0f23          	sb	s10,510(s8)
    b1c4:	1fbc0fa3          	sb	s11,511(s8)
    b1c8:	00100693          	li	a3,1
    b1cc:	000b8613          	mv	a2,s7
    b1d0:	000c0593          	mv	a1,s8
    b1d4:	dadfb0ef          	jal	6f80 <disk_write>
    b1d8:	00050c93          	mv	s9,a0
    b1dc:	20051263          	bnez	a0,b3e0 <f_mkfs+0x7c8>
    b1e0:	00300713          	li	a4,3
    b1e4:	0ae49463          	bne	s1,a4,b28c <f_mkfs+0x674>
    b1e8:	00c12503          	lw	a0,12(sp)
    b1ec:	00100693          	li	a3,1
    b1f0:	006b8613          	addi	a2,s7,6
    b1f4:	000c0593          	mv	a1,s8
    b1f8:	d89fb0ef          	jal	6f80 <disk_write>
    b1fc:	00001637          	lui	a2,0x1
    b200:	00000593          	li	a1,0
    b204:	000c0513          	mv	a0,s8
    b208:	fcdf40ef          	jal	1d4 <memset>
    b20c:	05200713          	li	a4,82
    b210:	04100693          	li	a3,65
    b214:	07200613          	li	a2,114
    b218:	00ec0023          	sb	a4,0(s8)
    b21c:	00ec00a3          	sb	a4,1(s8)
    b220:	06100713          	li	a4,97
    b224:	00ec0123          	sb	a4,2(s8)
    b228:	00dc01a3          	sb	a3,3(s8)
    b22c:	1ecc0223          	sb	a2,484(s8)
    b230:	1ecc02a3          	sb	a2,485(s8)
    b234:	1edc0323          	sb	a3,486(s8)
    b238:	1eec03a3          	sb	a4,487(s8)
    b23c:	fffa8593          	addi	a1,s5,-1
    b240:	1e8c0513          	addi	a0,s8,488
    b244:	e65fb0ef          	jal	70a8 <st_32>
    b248:	00c12503          	lw	a0,12(sp)
    b24c:	00200713          	li	a4,2
    b250:	00100693          	li	a3,1
    b254:	007b8613          	addi	a2,s7,7
    b258:	000c0593          	mv	a1,s8
    b25c:	1eec0623          	sb	a4,492(s8)
    b260:	1e0c06a3          	sb	zero,493(s8)
    b264:	1e0c0723          	sb	zero,494(s8)
    b268:	1e0c07a3          	sb	zero,495(s8)
    b26c:	1fac0f23          	sb	s10,510(s8)
    b270:	1fbc0fa3          	sb	s11,511(s8)
    b274:	d0dfb0ef          	jal	6f80 <disk_write>
    b278:	00c12503          	lw	a0,12(sp)
    b27c:	00100693          	li	a3,1
    b280:	00db8633          	add	a2,s7,a3
    b284:	000c0593          	mv	a1,s8
    b288:	cf9fb0ef          	jal	6f80 <disk_write>
    b28c:	01012783          	lw	a5,16(sp)
    b290:	00000593          	li	a1,0
    b294:	000c0513          	mv	a0,s8
    b298:	00c79613          	slli	a2,a5,0xc
    b29c:	f39f40ef          	jal	1d4 <memset>
    b2a0:	fff48793          	addi	a5,s1,-1
    b2a4:	ff800a93          	li	s5,-8
    b2a8:	00079663          	bnez	a5,b2b4 <f_mkfs+0x69c>
    b2ac:	01000ab7          	lui	s5,0x1000
    b2b0:	ff8a8a93          	addi	s5,s5,-8 # fffff8 <_etext+0xfddc34>
    b2b4:	00300b93          	li	s7,3
    b2b8:	17749a63          	bne	s1,s7,b42c <f_mkfs+0x814>
    b2bc:	ff800713          	li	a4,-8
    b2c0:	00ec0023          	sb	a4,0(s8)
    b2c4:	fff00713          	li	a4,-1
    b2c8:	00ec00a3          	sb	a4,1(s8)
    b2cc:	00ec0123          	sb	a4,2(s8)
    b2d0:	00ec01a3          	sb	a4,3(s8)
    b2d4:	00ec0223          	sb	a4,4(s8)
    b2d8:	00ec02a3          	sb	a4,5(s8)
    b2dc:	00ec0323          	sb	a4,6(s8)
    b2e0:	00ec03a3          	sb	a4,7(s8)
    b2e4:	00ec0423          	sb	a4,8(s8)
    b2e8:	00ec04a3          	sb	a4,9(s8)
    b2ec:	00ec0523          	sb	a4,10(s8)
    b2f0:	00f00713          	li	a4,15
    b2f4:	00ec05a3          	sb	a4,11(s8)
    b2f8:	00040d13          	mv	s10,s0
    b2fc:	01012783          	lw	a5,16(sp)
    b300:	000d0d93          	mv	s11,s10
    b304:	01a7f463          	bgeu	a5,s10,b30c <f_mkfs+0x6f4>
    b308:	00078d93          	mv	s11,a5
    b30c:	00c12503          	lw	a0,12(sp)
    b310:	000d8693          	mv	a3,s11
    b314:	000a0613          	mv	a2,s4
    b318:	000c0593          	mv	a1,s8
    b31c:	c65fb0ef          	jal	6f80 <disk_write>
    b320:	0c051063          	bnez	a0,b3e0 <f_mkfs+0x7c8>
    b324:	00001637          	lui	a2,0x1
    b328:	00000593          	li	a1,0
    b32c:	000c0513          	mv	a0,s8
    b330:	41bd0d33          	sub	s10,s10,s11
    b334:	ea1f40ef          	jal	1d4 <memset>
    b338:	01ba0a33          	add	s4,s4,s11
    b33c:	fc0d10e3          	bnez	s10,b2fc <f_mkfs+0x6e4>
    b340:	001c8713          	addi	a4,s9,1
    b344:	00100c93          	li	s9,1
    b348:	f76768e3          	bltu	a4,s6,b2b8 <f_mkfs+0x6a0>
    b34c:	00300713          	li	a4,3
    b350:	00e49463          	bne	s1,a4,b358 <f_mkfs+0x740>
    b354:	00090993          	mv	s3,s2
    b358:	01012783          	lw	a5,16(sp)
    b35c:	00098413          	mv	s0,s3
    b360:	0137f463          	bgeu	a5,s3,b368 <f_mkfs+0x750>
    b364:	00078413          	mv	s0,a5
    b368:	00c12503          	lw	a0,12(sp)
    b36c:	00040693          	mv	a3,s0
    b370:	000a0613          	mv	a2,s4
    b374:	000c0593          	mv	a1,s8
    b378:	c09fb0ef          	jal	6f80 <disk_write>
    b37c:	06051263          	bnez	a0,b3e0 <f_mkfs+0x7c8>
    b380:	408989b3          	sub	s3,s3,s0
    b384:	008a0a33          	add	s4,s4,s0
    b388:	fc0998e3          	bnez	s3,b358 <f_mkfs+0x740>
    b38c:	00300713          	li	a4,3
    b390:	00c00a13          	li	s4,12
    b394:	02e48063          	beq	s1,a4,b3b4 <f_mkfs+0x79c>
    b398:	03215703          	lhu	a4,50(sp)
    b39c:	00600a13          	li	s4,6
    b3a0:	00071a63          	bnez	a4,b3b4 <f_mkfs+0x79c>
    b3a4:	00200713          	li	a4,2
    b3a8:	00100a13          	li	s4,1
    b3ac:	00e49463          	bne	s1,a4,b3b4 <f_mkfs+0x79c>
    b3b0:	00400a13          	li	s4,4
    b3b4:	01412783          	lw	a5,20(sp)
    b3b8:	1c079863          	bnez	a5,b588 <f_mkfs+0x970>
    b3bc:	03012703          	lw	a4,48(sp)
    b3c0:	00c12503          	lw	a0,12(sp)
    b3c4:	03410613          	addi	a2,sp,52
    b3c8:	00100593          	li	a1,1
    b3cc:	02e12c23          	sw	a4,56(sp)
    b3d0:	02012e23          	sw	zero,60(sp)
    b3d4:	c59fb0ef          	jal	702c <disk_ioctl>
    b3d8:	00050b93          	mv	s7,a0
    b3dc:	06050063          	beqz	a0,b43c <f_mkfs+0x824>
    b3e0:	00100513          	li	a0,1
    b3e4:	9fdff06f          	j	ade0 <f_mkfs+0x1c8>
    b3e8:	020c0513          	addi	a0,s8,32
    b3ec:	cbdfb0ef          	jal	70a8 <st_32>
    b3f0:	d29ff06f          	j	b118 <f_mkfs+0x500>
    b3f4:	027c0513          	addi	a0,s8,39
    b3f8:	cb1fb0ef          	jal	70a8 <st_32>
    b3fc:	00845713          	srli	a4,s0,0x8
    b400:	00ec0ba3          	sb	a4,23(s8)
    b404:	f8000713          	li	a4,-128
    b408:	02ec0223          	sb	a4,36(s8)
    b40c:	000225b7          	lui	a1,0x22
    b410:	02900713          	li	a4,41
    b414:	008c0b23          	sb	s0,22(s8)
    b418:	02ec0323          	sb	a4,38(s8)
    b41c:	01300613          	li	a2,19
    b420:	fe858593          	addi	a1,a1,-24 # 21fe8 <log_level_colors+0x1800>
    b424:	02bc0513          	addi	a0,s8,43
    b428:	d89ff06f          	j	b1b0 <f_mkfs+0x598>
    b42c:	000a8593          	mv	a1,s5
    b430:	000c0513          	mv	a0,s8
    b434:	c75fb0ef          	jal	70a8 <st_32>
    b438:	ec1ff06f          	j	b2f8 <f_mkfs+0x6e0>
    b43c:	03412a83          	lw	s5,52(sp)
    b440:	00010737          	lui	a4,0x10
    b444:	00500693          	li	a3,5
    b448:	00800913          	li	s2,8
    b44c:	c3e70713          	addi	a4,a4,-962 # fc3e <oem2uni950+0x238a>
    b450:	032ad633          	divu	a2,s5,s2
    b454:	0ec76463          	bltu	a4,a2,b53c <f_mkfs+0x924>
    b458:	00001637          	lui	a2,0x1
    b45c:	00000593          	li	a1,0
    b460:	000c0513          	mv	a0,s8
    b464:	03f00413          	li	s0,63
    b468:	d6df40ef          	jal	1d4 <memset>
    b46c:	1c6c0493          	addi	s1,s8,454
    b470:	03810c93          	addi	s9,sp,56
    b474:	06400d13          	li	s10,100
    b478:	00040d93          	mv	s11,s0
    b47c:	0f547263          	bgeu	s0,s5,b560 <f_mkfs+0x948>
    b480:	ffcb8713          	addi	a4,s7,-4
    b484:	0c070e63          	beqz	a4,b560 <f_mkfs+0x948>
    b488:	000ca983          	lw	s3,0(s9)
    b48c:	013d6863          	bltu	s10,s3,b49c <f_mkfs+0x884>
    b490:	0da98263          	beq	s3,s10,b554 <f_mkfs+0x93c>
    b494:	03aad733          	divu	a4,s5,s10
    b498:	02e989b3          	mul	s3,s3,a4
    b49c:	01340b33          	add	s6,s0,s3
    b4a0:	016ae463          	bltu	s5,s6,b4a8 <f_mkfs+0x890>
    b4a4:	0a8b7c63          	bgeu	s6,s0,b55c <f_mkfs+0x944>
    b4a8:	408a89b3          	sub	s3,s5,s0
    b4ac:	000a8b13          	mv	s6,s5
    b4b0:	00040593          	mv	a1,s0
    b4b4:	00048513          	mv	a0,s1
    b4b8:	bf1fb0ef          	jal	70a8 <st_32>
    b4bc:	00448513          	addi	a0,s1,4
    b4c0:	00098593          	mv	a1,s3
    b4c4:	be5fb0ef          	jal	70a8 <st_32>
    b4c8:	03b45733          	divu	a4,s0,s11
    b4cc:	ff448e23          	sb	s4,-4(s1)
    b4d0:	001b8b93          	addi	s7,s7,1
    b4d4:	01048493          	addi	s1,s1,16
    b4d8:	004c8c93          	addi	s9,s9,4
    b4dc:	032756b3          	divu	a3,a4,s2
    b4e0:	03277733          	remu	a4,a4,s2
    b4e4:	fed485a3          	sb	a3,-21(s1)
    b4e8:	03b47433          	remu	s0,s0,s11
    b4ec:	fee484a3          	sb	a4,-23(s1)
    b4f0:	0026d713          	srli	a4,a3,0x2
    b4f4:	fc077713          	andi	a4,a4,-64
    b4f8:	00140413          	addi	s0,s0,1
    b4fc:	00e46433          	or	s0,s0,a4
    b500:	fffb0713          	addi	a4,s6,-1
    b504:	03b756b3          	divu	a3,a4,s11
    b508:	fe848523          	sb	s0,-22(s1)
    b50c:	000b0413          	mv	s0,s6
    b510:	0326d633          	divu	a2,a3,s2
    b514:	0326f6b3          	remu	a3,a3,s2
    b518:	fec487a3          	sb	a2,-17(s1)
    b51c:	03b77733          	remu	a4,a4,s11
    b520:	fed486a3          	sb	a3,-19(s1)
    b524:	00265693          	srli	a3,a2,0x2
    b528:	fc06f693          	andi	a3,a3,-64
    b52c:	00170713          	addi	a4,a4,1
    b530:	00d76733          	or	a4,a4,a3
    b534:	fee48723          	sb	a4,-18(s1)
    b538:	f45ff06f          	j	b47c <f_mkfs+0x864>
    b53c:	00191913          	slli	s2,s2,0x1
    b540:	fff68693          	addi	a3,a3,-1
    b544:	0ff97913          	zext.b	s2,s2
    b548:	f00694e3          	bnez	a3,b450 <f_mkfs+0x838>
    b54c:	0ff00913          	li	s2,255
    b550:	f09ff06f          	j	b458 <f_mkfs+0x840>
    b554:	000a8993          	mv	s3,s5
    b558:	f45ff06f          	j	b49c <f_mkfs+0x884>
    b55c:	f4099ae3          	bnez	s3,b4b0 <f_mkfs+0x898>
    b560:	05500713          	li	a4,85
    b564:	00c12503          	lw	a0,12(sp)
    b568:	1eec0f23          	sb	a4,510(s8)
    b56c:	faa00713          	li	a4,-86
    b570:	1eec0fa3          	sb	a4,511(s8)
    b574:	00100693          	li	a3,1
    b578:	00000613          	li	a2,0
    b57c:	000c0593          	mv	a1,s8
    b580:	a01fb0ef          	jal	6f80 <disk_write>
    b584:	e4051ee3          	bnez	a0,b3e0 <f_mkfs+0x7c8>
    b588:	00c12503          	lw	a0,12(sp)
    b58c:	00000613          	li	a2,0
    b590:	00000593          	li	a1,0
    b594:	a99fb0ef          	jal	702c <disk_ioctl>
    b598:	00a03533          	snez	a0,a0
    b59c:	845ff06f          	j	ade0 <f_mkfs+0x1c8>
    b5a0:	00b00513          	li	a0,11
    b5a4:	83dff06f          	j	ade0 <f_mkfs+0x1c8>
    b5a8:	01100513          	li	a0,17
    b5ac:	835ff06f          	j	ade0 <f_mkfs+0x1c8>
    b5b0:	8a0618e3          	bnez	a2,ae60 <f_mkfs+0x248>
    b5b4:	08000693          	li	a3,128
    b5b8:	00070913          	mv	s2,a4
    b5bc:	a4e6fae3          	bgeu	a3,a4,b010 <f_mkfs+0x3f8>
    b5c0:	000027b7          	lui	a5,0x2
    b5c4:	91278793          	addi	a5,a5,-1774 # 1912 <hal_qspi_write+0xe6>
    b5c8:	ff4ff06f          	j	adbc <f_mkfs+0x1a4>
    b5cc:	00070593          	mv	a1,a4
    b5d0:	8a0618e3          	bnez	a2,ae80 <f_mkfs+0x268>
    b5d4:	fedff06f          	j	b5c0 <f_mkfs+0x9a8>

0000b5d8 <f_gets>:
    b5d8:	fd010113          	addi	sp,sp,-48
    b5dc:	02812423          	sw	s0,40(sp)
    b5e0:	02912223          	sw	s1,36(sp)
    b5e4:	03212023          	sw	s2,32(sp)
    b5e8:	01312e23          	sw	s3,28(sp)
    b5ec:	01412c23          	sw	s4,24(sp)
    b5f0:	01512a23          	sw	s5,20(sp)
    b5f4:	01612823          	sw	s6,16(sp)
    b5f8:	02112623          	sw	ra,44(sp)
    b5fc:	00050993          	mv	s3,a0
    b600:	00060b13          	mv	s6,a2
    b604:	fff58913          	addi	s2,a1,-1
    b608:	00050493          	mv	s1,a0
    b60c:	00000413          	li	s0,0
    b610:	00100a13          	li	s4,1
    b614:	00a00a93          	li	s5,10
    b618:	03245a63          	bge	s0,s2,b64c <f_gets+0x74>
    b61c:	00c10693          	addi	a3,sp,12
    b620:	00100613          	li	a2,1
    b624:	00810593          	addi	a1,sp,8
    b628:	000b0513          	mv	a0,s6
    b62c:	858fe0ef          	jal	9684 <f_read>
    b630:	00c12783          	lw	a5,12(sp)
    b634:	01479c63          	bne	a5,s4,b64c <f_gets+0x74>
    b638:	00814783          	lbu	a5,8(sp)
    b63c:	00148493          	addi	s1,s1,1
    b640:	00140413          	addi	s0,s0,1
    b644:	fef48fa3          	sb	a5,-1(s1)
    b648:	fd5798e3          	bne	a5,s5,b618 <f_gets+0x40>
    b64c:	00048023          	sb	zero,0(s1)
    b650:	02c12083          	lw	ra,44(sp)
    b654:	00803533          	snez	a0,s0
    b658:	02812403          	lw	s0,40(sp)
    b65c:	40a00533          	neg	a0,a0
    b660:	02412483          	lw	s1,36(sp)
    b664:	02012903          	lw	s2,32(sp)
    b668:	01812a03          	lw	s4,24(sp)
    b66c:	01412a83          	lw	s5,20(sp)
    b670:	01012b03          	lw	s6,16(sp)
    b674:	00a9f533          	and	a0,s3,a0
    b678:	01c12983          	lw	s3,28(sp)
    b67c:	03010113          	addi	sp,sp,48
    b680:	00008067          	ret

0000b684 <f_putc>:
    b684:	fa010113          	addi	sp,sp,-96
    b688:	04812c23          	sw	s0,88(sp)
    b68c:	04912a23          	sw	s1,84(sp)
    b690:	00050413          	mv	s0,a0
    b694:	00058493          	mv	s1,a1
    b698:	04c00613          	li	a2,76
    b69c:	00000593          	li	a1,0
    b6a0:	00410513          	addi	a0,sp,4
    b6a4:	04112e23          	sw	ra,92(sp)
    b6a8:	b2df40ef          	jal	1d4 <memset>
    b6ac:	00040593          	mv	a1,s0
    b6b0:	00410513          	addi	a0,sp,4
    b6b4:	00912223          	sw	s1,4(sp)
    b6b8:	cb8fe0ef          	jal	9b70 <putc_bfd>
    b6bc:	00410513          	addi	a0,sp,4
    b6c0:	d30fe0ef          	jal	9bf0 <putc_flush>
    b6c4:	05c12083          	lw	ra,92(sp)
    b6c8:	05812403          	lw	s0,88(sp)
    b6cc:	05412483          	lw	s1,84(sp)
    b6d0:	06010113          	addi	sp,sp,96
    b6d4:	00008067          	ret

0000b6d8 <f_puts>:
    b6d8:	fa010113          	addi	sp,sp,-96
    b6dc:	04812c23          	sw	s0,88(sp)
    b6e0:	04912a23          	sw	s1,84(sp)
    b6e4:	00050413          	mv	s0,a0
    b6e8:	00058493          	mv	s1,a1
    b6ec:	04c00613          	li	a2,76
    b6f0:	00000593          	li	a1,0
    b6f4:	00410513          	addi	a0,sp,4
    b6f8:	04112e23          	sw	ra,92(sp)
    b6fc:	ad9f40ef          	jal	1d4 <memset>
    b700:	00912223          	sw	s1,4(sp)
    b704:	00044583          	lbu	a1,0(s0)
    b708:	02059063          	bnez	a1,b728 <f_puts+0x50>
    b70c:	00410513          	addi	a0,sp,4
    b710:	ce0fe0ef          	jal	9bf0 <putc_flush>
    b714:	05c12083          	lw	ra,92(sp)
    b718:	05812403          	lw	s0,88(sp)
    b71c:	05412483          	lw	s1,84(sp)
    b720:	06010113          	addi	sp,sp,96
    b724:	00008067          	ret
    b728:	00410513          	addi	a0,sp,4
    b72c:	00140413          	addi	s0,s0,1
    b730:	c40fe0ef          	jal	9b70 <putc_bfd>
    b734:	fd1ff06f          	j	b704 <f_puts+0x2c>

0000b738 <f_printf>:
    b738:	f2010113          	addi	sp,sp,-224
    b73c:	0a812c23          	sw	s0,184(sp)
    b740:	0a912a23          	sw	s1,180(sp)
    b744:	0cc12423          	sw	a2,200(sp)
    b748:	00050493          	mv	s1,a0
    b74c:	00058413          	mv	s0,a1
    b750:	04c00613          	li	a2,76
    b754:	00000593          	li	a1,0
    b758:	03410513          	addi	a0,sp,52
    b75c:	0b212823          	sw	s2,176(sp)
    b760:	0b312623          	sw	s3,172(sp)
    b764:	0b412423          	sw	s4,168(sp)
    b768:	0b512223          	sw	s5,164(sp)
    b76c:	0b612023          	sw	s6,160(sp)
    b770:	0cf12a23          	sw	a5,212(sp)
    b774:	0a112e23          	sw	ra,188(sp)
    b778:	09712e23          	sw	s7,156(sp)
    b77c:	09812c23          	sw	s8,152(sp)
    b780:	09912a23          	sw	s9,148(sp)
    b784:	09a12823          	sw	s10,144(sp)
    b788:	09b12623          	sw	s11,140(sp)
    b78c:	0cd12623          	sw	a3,204(sp)
    b790:	0ce12823          	sw	a4,208(sp)
    b794:	0d012c23          	sw	a6,216(sp)
    b798:	0d112e23          	sw	a7,220(sp)
    b79c:	000107a3          	sb	zero,15(sp)
    b7a0:	a35f40ef          	jal	1d4 <memset>
    b7a4:	0c810793          	addi	a5,sp,200
    b7a8:	02912a23          	sw	s1,52(sp)
    b7ac:	00f12823          	sw	a5,16(sp)
    b7b0:	02500a93          	li	s5,37
    b7b4:	03000913          	li	s2,48
    b7b8:	02a00993          	li	s3,42
    b7bc:	02e00b13          	li	s6,46
    b7c0:	00a00a13          	li	s4,10
    b7c4:	00044583          	lbu	a1,0(s0)
    b7c8:	34058e63          	beqz	a1,bb24 <f_printf+0x3ec>
    b7cc:	01558a63          	beq	a1,s5,b7e0 <f_printf+0xa8>
    b7d0:	03410513          	addi	a0,sp,52
    b7d4:	00140413          	addi	s0,s0,1
    b7d8:	b98fe0ef          	jal	9b70 <putc_bfd>
    b7dc:	fe9ff06f          	j	b7c4 <f_printf+0x8c>
    b7e0:	00144783          	lbu	a5,1(s0)
    b7e4:	07279863          	bne	a5,s2,b854 <f_printf+0x11c>
    b7e8:	00244783          	lbu	a5,2(s0)
    b7ec:	00340c93          	addi	s9,s0,3
    b7f0:	00090b93          	mv	s7,s2
    b7f4:	00000713          	li	a4,0
    b7f8:	0b379463          	bne	a5,s3,b8a0 <f_printf+0x168>
    b7fc:	01012783          	lw	a5,16(sp)
    b800:	001c8c93          	addi	s9,s9,1
    b804:	00478693          	addi	a3,a5,4
    b808:	0007a483          	lw	s1,0(a5)
    b80c:	fffcc783          	lbu	a5,-1(s9)
    b810:	00d12823          	sw	a3,16(sp)
    b814:	fff00413          	li	s0,-1
    b818:	0b679663          	bne	a5,s6,b8c4 <f_printf+0x18c>
    b81c:	000cc783          	lbu	a5,0(s9)
    b820:	09378663          	beq	a5,s3,b8ac <f_printf+0x174>
    b824:	001c8c93          	addi	s9,s9,1
    b828:	00000413          	li	s0,0
    b82c:	00900613          	li	a2,9
    b830:	fd078693          	addi	a3,a5,-48
    b834:	0ff6f693          	zext.b	a3,a3
    b838:	08d66663          	bltu	a2,a3,b8c4 <f_printf+0x18c>
    b83c:	03440433          	mul	s0,s0,s4
    b840:	001c8c93          	addi	s9,s9,1
    b844:	00f40433          	add	s0,s0,a5
    b848:	fd040413          	addi	s0,s0,-48
    b84c:	fffcc783          	lbu	a5,-1(s9)
    b850:	fe1ff06f          	j	b830 <f_printf+0xf8>
    b854:	02d00713          	li	a4,45
    b858:	00e78863          	beq	a5,a4,b868 <f_printf+0x130>
    b85c:	00240c93          	addi	s9,s0,2
    b860:	02000b93          	li	s7,32
    b864:	f91ff06f          	j	b7f4 <f_printf+0xbc>
    b868:	00244783          	lbu	a5,2(s0)
    b86c:	00340c93          	addi	s9,s0,3
    b870:	02000b93          	li	s7,32
    b874:	00200713          	li	a4,2
    b878:	f81ff06f          	j	b7f8 <f_printf+0xc0>
    b87c:	034484b3          	mul	s1,s1,s4
    b880:	001c8c93          	addi	s9,s9,1
    b884:	00f484b3          	add	s1,s1,a5
    b888:	fffcc783          	lbu	a5,-1(s9)
    b88c:	fd048493          	addi	s1,s1,-48
    b890:	fd078693          	addi	a3,a5,-48
    b894:	0ff6f693          	zext.b	a3,a3
    b898:	fed672e3          	bgeu	a2,a3,b87c <f_printf+0x144>
    b89c:	f79ff06f          	j	b814 <f_printf+0xdc>
    b8a0:	00000493          	li	s1,0
    b8a4:	00900613          	li	a2,9
    b8a8:	fe9ff06f          	j	b890 <f_printf+0x158>
    b8ac:	01012783          	lw	a5,16(sp)
    b8b0:	002c8c93          	addi	s9,s9,2
    b8b4:	00478693          	addi	a3,a5,4
    b8b8:	0007a403          	lw	s0,0(a5)
    b8bc:	fffcc783          	lbu	a5,-1(s9)
    b8c0:	00d12823          	sw	a3,16(sp)
    b8c4:	06c00693          	li	a3,108
    b8c8:	00d79863          	bne	a5,a3,b8d8 <f_printf+0x1a0>
    b8cc:	000cc783          	lbu	a5,0(s9)
    b8d0:	00476713          	ori	a4,a4,4
    b8d4:	001c8c93          	addi	s9,s9,1
    b8d8:	24078663          	beqz	a5,bb24 <f_printf+0x3ec>
    b8dc:	06f00693          	li	a3,111
    b8e0:	10d78a63          	beq	a5,a3,b9f4 <f_printf+0x2bc>
    b8e4:	02f6ec63          	bltu	a3,a5,b91c <f_printf+0x1e4>
    b8e8:	06300693          	li	a3,99
    b8ec:	0ad78663          	beq	a5,a3,b998 <f_printf+0x260>
    b8f0:	02f6e063          	bltu	a3,a5,b910 <f_printf+0x1d8>
    b8f4:	05800693          	li	a3,88
    b8f8:	12d78e63          	beq	a5,a3,ba34 <f_printf+0x2fc>
    b8fc:	06200693          	li	a3,98
    b900:	00200813          	li	a6,2
    b904:	0ed78a63          	beq	a5,a3,b9f8 <f_printf+0x2c0>
    b908:	00078593          	mv	a1,a5
    b90c:	09c0006f          	j	b9a8 <f_printf+0x270>
    b910:	06400693          	li	a3,100
    b914:	00a00813          	li	a6,10
    b918:	fedff06f          	j	b904 <f_printf+0x1cc>
    b91c:	07500693          	li	a3,117
    b920:	10d78663          	beq	a5,a3,ba2c <f_printf+0x2f4>
    b924:	07800693          	li	a3,120
    b928:	10d78663          	beq	a5,a3,ba34 <f_printf+0x2fc>
    b92c:	07300693          	li	a3,115
    b930:	fcd79ce3          	bne	a5,a3,b908 <f_printf+0x1d0>
    b934:	01012783          	lw	a5,16(sp)
    b938:	0007ad03          	lw	s10,0(a5)
    b93c:	00478693          	addi	a3,a5,4
    b940:	00d12823          	sw	a3,16(sp)
    b944:	000d1463          	bnez	s10,b94c <f_printf+0x214>
    b948:	00f10d13          	addi	s10,sp,15
    b94c:	00000c13          	li	s8,0
    b950:	018d07b3          	add	a5,s10,s8
    b954:	0007c783          	lbu	a5,0(a5)
    b958:	04079e63          	bnez	a5,b9b4 <f_printf+0x27c>
    b95c:	00044663          	bltz	s0,b968 <f_printf+0x230>
    b960:	01847463          	bgeu	s0,s8,b968 <f_printf+0x230>
    b964:	00040c13          	mv	s8,s0
    b968:	00175d93          	srli	s11,a4,0x1
    b96c:	001dfd93          	andi	s11,s11,1
    b970:	001dcd93          	xori	s11,s11,1
    b974:	009c7463          	bgeu	s8,s1,b97c <f_printf+0x244>
    b978:	040d9263          	bnez	s11,b9bc <f_printf+0x284>
    b97c:	008d0433          	add	s0,s10,s0
    b980:	000d4583          	lbu	a1,0(s10)
    b984:	00058463          	beqz	a1,b98c <f_printf+0x254>
    b988:	048d1463          	bne	s10,s0,b9d0 <f_printf+0x298>
    b98c:	049c6a63          	bltu	s8,s1,b9e0 <f_printf+0x2a8>
    b990:	000c8413          	mv	s0,s9
    b994:	e31ff06f          	j	b7c4 <f_printf+0x8c>
    b998:	01012783          	lw	a5,16(sp)
    b99c:	0007c583          	lbu	a1,0(a5)
    b9a0:	00478713          	addi	a4,a5,4
    b9a4:	00e12823          	sw	a4,16(sp)
    b9a8:	03410513          	addi	a0,sp,52
    b9ac:	9c4fe0ef          	jal	9b70 <putc_bfd>
    b9b0:	fe1ff06f          	j	b990 <f_printf+0x258>
    b9b4:	001c0c13          	addi	s8,s8,1
    b9b8:	f99ff06f          	j	b950 <f_printf+0x218>
    b9bc:	000b8593          	mv	a1,s7
    b9c0:	03410513          	addi	a0,sp,52
    b9c4:	001c0c13          	addi	s8,s8,1
    b9c8:	9a8fe0ef          	jal	9b70 <putc_bfd>
    b9cc:	fa9ff06f          	j	b974 <f_printf+0x23c>
    b9d0:	03410513          	addi	a0,sp,52
    b9d4:	001d0d13          	addi	s10,s10,1
    b9d8:	998fe0ef          	jal	9b70 <putc_bfd>
    b9dc:	fa5ff06f          	j	b980 <f_printf+0x248>
    b9e0:	02000593          	li	a1,32
    b9e4:	03410513          	addi	a0,sp,52
    b9e8:	001c0c13          	addi	s8,s8,1
    b9ec:	984fe0ef          	jal	9b70 <putc_bfd>
    b9f0:	f9dff06f          	j	b98c <f_printf+0x254>
    b9f4:	00800813          	li	a6,8
    b9f8:	01012683          	lw	a3,16(sp)
    b9fc:	00477593          	andi	a1,a4,4
    ba00:	06400513          	li	a0,100
    ba04:	00468613          	addi	a2,a3,4
    ba08:	00c12823          	sw	a2,16(sp)
    ba0c:	02058863          	beqz	a1,ba3c <f_printf+0x304>
    ba10:	0006a603          	lw	a2,0(a3)
    ba14:	00060693          	mv	a3,a2
    ba18:	02a79c63          	bne	a5,a0,ba50 <f_printf+0x318>
    ba1c:	02065a63          	bgez	a2,ba50 <f_printf+0x318>
    ba20:	40c006b3          	neg	a3,a2
    ba24:	00176713          	ori	a4,a4,1
    ba28:	0280006f          	j	ba50 <f_printf+0x318>
    ba2c:	00a00813          	li	a6,10
    ba30:	fc9ff06f          	j	b9f8 <f_printf+0x2c0>
    ba34:	01000813          	li	a6,16
    ba38:	fc1ff06f          	j	b9f8 <f_printf+0x2c0>
    ba3c:	00a79863          	bne	a5,a0,ba4c <f_printf+0x314>
    ba40:	0006a603          	lw	a2,0(a3)
    ba44:	00060693          	mv	a3,a2
    ba48:	fd5ff06f          	j	ba1c <f_printf+0x2e4>
    ba4c:	0006a683          	lw	a3,0(a3)
    ba50:	f8878793          	addi	a5,a5,-120
    ba54:	00700613          	li	a2,7
    ba58:	00079463          	bnez	a5,ba60 <f_printf+0x328>
    ba5c:	02700613          	li	a2,39
    ba60:	01410593          	addi	a1,sp,20
    ba64:	00060513          	mv	a0,a2
    ba68:	00058c13          	mv	s8,a1
    ba6c:	00000613          	li	a2,0
    ba70:	03900313          	li	t1,57
    ba74:	02000893          	li	a7,32
    ba78:	0306f7b3          	remu	a5,a3,a6
    ba7c:	03078793          	addi	a5,a5,48
    ba80:	00f37463          	bgeu	t1,a5,ba88 <f_printf+0x350>
    ba84:	00f507b3          	add	a5,a0,a5
    ba88:	00f58023          	sb	a5,0(a1)
    ba8c:	00160d13          	addi	s10,a2,1 # 1001 <hal_sys_putchar+0x5>
    ba90:	0106ea63          	bltu	a3,a6,baa4 <f_printf+0x36c>
    ba94:	0306d6b3          	divu	a3,a3,a6
    ba98:	00158593          	addi	a1,a1,1
    ba9c:	071d1663          	bne	s10,a7,bb08 <f_printf+0x3d0>
    baa0:	01f00613          	li	a2,31
    baa4:	00177793          	andi	a5,a4,1
    baa8:	00078c63          	beqz	a5,bac0 <f_printf+0x388>
    baac:	080d0793          	addi	a5,s10,128
    bab0:	00278d33          	add	s10,a5,sp
    bab4:	02d00793          	li	a5,45
    bab8:	f8fd0a23          	sb	a5,-108(s10)
    babc:	00260d13          	addi	s10,a2,2
    bac0:	00175413          	srli	s0,a4,0x1
    bac4:	00147413          	andi	s0,s0,1
    bac8:	00144413          	xori	s0,s0,1
    bacc:	000d0d93          	mv	s11,s10
    bad0:	009df463          	bgeu	s11,s1,bad8 <f_printf+0x3a0>
    bad4:	02041e63          	bnez	s0,bb10 <f_printf+0x3d8>
    bad8:	fffd0d13          	addi	s10,s10,-1
    badc:	01ac07b3          	add	a5,s8,s10
    bae0:	0007c583          	lbu	a1,0(a5)
    bae4:	03410513          	addi	a0,sp,52
    bae8:	888fe0ef          	jal	9b70 <putc_bfd>
    baec:	fe0d16e3          	bnez	s10,bad8 <f_printf+0x3a0>
    baf0:	ea9df0e3          	bgeu	s11,s1,b990 <f_printf+0x258>
    baf4:	02000593          	li	a1,32
    baf8:	03410513          	addi	a0,sp,52
    bafc:	001d8d93          	addi	s11,s11,1
    bb00:	870fe0ef          	jal	9b70 <putc_bfd>
    bb04:	fedff06f          	j	baf0 <f_printf+0x3b8>
    bb08:	000d0613          	mv	a2,s10
    bb0c:	f6dff06f          	j	ba78 <f_printf+0x340>
    bb10:	000b8593          	mv	a1,s7
    bb14:	03410513          	addi	a0,sp,52
    bb18:	001d8d93          	addi	s11,s11,1
    bb1c:	854fe0ef          	jal	9b70 <putc_bfd>
    bb20:	fb1ff06f          	j	bad0 <f_printf+0x398>
    bb24:	03410513          	addi	a0,sp,52
    bb28:	8c8fe0ef          	jal	9bf0 <putc_flush>
    bb2c:	0bc12083          	lw	ra,188(sp)
    bb30:	0b812403          	lw	s0,184(sp)
    bb34:	0b412483          	lw	s1,180(sp)
    bb38:	0b012903          	lw	s2,176(sp)
    bb3c:	0ac12983          	lw	s3,172(sp)
    bb40:	0a812a03          	lw	s4,168(sp)
    bb44:	0a412a83          	lw	s5,164(sp)
    bb48:	0a012b03          	lw	s6,160(sp)
    bb4c:	09c12b83          	lw	s7,156(sp)
    bb50:	09812c03          	lw	s8,152(sp)
    bb54:	09412c83          	lw	s9,148(sp)
    bb58:	09012d03          	lw	s10,144(sp)
    bb5c:	08c12d83          	lw	s11,140(sp)
    bb60:	0e010113          	addi	sp,sp,224
    bb64:	00008067          	ret

0000bb68 <load_filesystem>:
    bb68:	fd010113          	addi	sp,sp,-48
    bb6c:	000205b7          	lui	a1,0x20
    bb70:	01000613          	li	a2,16
    bb74:	7c458593          	addi	a1,a1,1988 # 207c4 <cst.0+0x10>
    bb78:	00010513          	mv	a0,sp
    bb7c:	02812423          	sw	s0,40(sp)
    bb80:	01312e23          	sw	s3,28(sp)
    bb84:	01412c23          	sw	s4,24(sp)
    bb88:	01512a23          	sw	s5,20(sp)
    bb8c:	01612823          	sw	s6,16(sp)
    bb90:	02112623          	sw	ra,44(sp)
    bb94:	02912223          	sw	s1,36(sp)
    bb98:	03212023          	sw	s2,32(sp)
    bb9c:	e14f40ef          	jal	1b0 <memcpy>
    bba0:	000227b7          	lui	a5,0x22
    bba4:	04878a13          	addi	s4,a5,72 # 22048 <log_level_colors+0x1860>
    bba8:	000227b7          	lui	a5,0x22
    bbac:	06478993          	addi	s3,a5,100 # 22064 <log_level_colors+0x187c>
    bbb0:	300017b7          	lui	a5,0x30001
    bbb4:	43c78a93          	addi	s5,a5,1084 # 3000143c <fs_Flash>
    bbb8:	000227b7          	lui	a5,0x22
    bbbc:	00000413          	li	s0,0
    bbc0:	06878b13          	addi	s6,a5,104 # 22068 <log_level_colors+0x1880>
    bbc4:	000a0513          	mv	a0,s4
    bbc8:	be8f50ef          	jal	fb0 <printf>
    bbcc:	00100613          	li	a2,1
    bbd0:	00098593          	mv	a1,s3
    bbd4:	000a8513          	mv	a0,s5
    bbd8:	f38fd0ef          	jal	9310 <f_mount>
    bbdc:	3000f937          	lui	s2,0x3000f
    bbe0:	38a92223          	sw	a0,900(s2) # 3000f384 <res_Flash>
    bbe4:	00d00793          	li	a5,13
    bbe8:	0cf51663          	bne	a0,a5,bcb4 <load_filesystem+0x14c>
    bbec:	000224b7          	lui	s1,0x22
    bbf0:	000b0693          	mv	a3,s6
    bbf4:	01b00613          	li	a2,27
    bbf8:	02c48593          	addi	a1,s1,44 # 2202c <log_level_colors+0x1844>
    bbfc:	00300513          	li	a0,3
    bc00:	4d0000ef          	jal	c0d0 <log_print>
    bc04:	00022537          	lui	a0,0x22
    bc08:	08850513          	addi	a0,a0,136 # 22088 <log_level_colors+0x18a0>
    bc0c:	ba4f50ef          	jal	fb0 <printf>
    bc10:	30000637          	lui	a2,0x30000
    bc14:	000016b7          	lui	a3,0x1
    bc18:	43c60613          	addi	a2,a2,1084 # 3000043c <work_buf>
    bc1c:	00010593          	mv	a1,sp
    bc20:	00098513          	mv	a0,s3
    bc24:	ff5fe0ef          	jal	ac18 <f_mkfs>
    bc28:	38a92223          	sw	a0,900(s2)
    bc2c:	00e00793          	li	a5,14
    bc30:	04f51463          	bne	a0,a5,bc78 <load_filesystem+0x110>
    bc34:	000226b7          	lui	a3,0x22
    bc38:	0a468693          	addi	a3,a3,164 # 220a4 <log_level_colors+0x18bc>
    bc3c:	01f00613          	li	a2,31
    bc40:	02c48593          	addi	a1,s1,44
    bc44:	00400513          	li	a0,4
    bc48:	488000ef          	jal	c0d0 <log_print>
    bc4c:	00000513          	li	a0,0
    bc50:	02c12083          	lw	ra,44(sp)
    bc54:	02812403          	lw	s0,40(sp)
    bc58:	02412483          	lw	s1,36(sp)
    bc5c:	02012903          	lw	s2,32(sp)
    bc60:	01c12983          	lw	s3,28(sp)
    bc64:	01812a03          	lw	s4,24(sp)
    bc68:	01412a83          	lw	s5,20(sp)
    bc6c:	01012b03          	lw	s6,16(sp)
    bc70:	03010113          	addi	sp,sp,48
    bc74:	00008067          	ret
    bc78:	00022537          	lui	a0,0x22
    bc7c:	0d050513          	addi	a0,a0,208 # 220d0 <log_level_colors+0x18e8>
    bc80:	b30f50ef          	jal	fb0 <printf>
    bc84:	00140413          	addi	s0,s0,1
    bc88:	0ff47413          	zext.b	s0,s0
    bc8c:	00400513          	li	a0,4
    bc90:	faa40ee3          	beq	s0,a0,bc4c <load_filesystem+0xe4>
    bc94:	00300793          	li	a5,3
    bc98:	f2f416e3          	bne	s0,a5,bbc4 <load_filesystem+0x5c>
    bc9c:	000226b7          	lui	a3,0x22
    bca0:	ffc68693          	addi	a3,a3,-4 # 21ffc <log_level_colors+0x1814>
    bca4:	01500613          	li	a2,21
    bca8:	02c48593          	addi	a1,s1,44
    bcac:	424000ef          	jal	c0d0 <log_print>
    bcb0:	f15ff06f          	j	bbc4 <load_filesystem+0x5c>
    bcb4:	00022537          	lui	a0,0x22
    bcb8:	0fc50513          	addi	a0,a0,252 # 220fc <log_level_colors+0x1914>
    bcbc:	af4f50ef          	jal	fb0 <printf>
    bcc0:	00100513          	li	a0,1
    bcc4:	f8dff06f          	j	bc50 <load_filesystem+0xe8>

0000bcc8 <create_task>:
    bcc8:	ed010113          	addi	sp,sp,-304
    bccc:	12812423          	sw	s0,296(sp)
    bcd0:	12912223          	sw	s1,292(sp)
    bcd4:	13212023          	sw	s2,288(sp)
    bcd8:	00058413          	mv	s0,a1
    bcdc:	00050493          	mv	s1,a0
    bce0:	00060913          	mv	s2,a2
    bce4:	00000593          	li	a1,0
    bce8:	11000613          	li	a2,272
    bcec:	01010513          	addi	a0,sp,16
    bcf0:	12112623          	sw	ra,300(sp)
    bcf4:	00d12623          	sw	a3,12(sp)
    bcf8:	cdcf40ef          	jal	1d4 <memset>
    bcfc:	11000613          	li	a2,272
    bd00:	02c40733          	mul	a4,s0,a2
    bd04:	00c12683          	lw	a3,12(sp)
    bd08:	300027b7          	lui	a5,0x30002
    bd0c:	48c78793          	addi	a5,a5,1164 # 3000248c <avail_tasks>
    bd10:	01010593          	addi	a1,sp,16
    bd14:	00812823          	sw	s0,16(sp)
    bd18:	01212c23          	sw	s2,24(sp)
    bd1c:	00d12e23          	sw	a3,28(sp)
    bd20:	00e78533          	add	a0,a5,a4
    bd24:	c8cf40ef          	jal	1b0 <memcpy>
    bd28:	300025b7          	lui	a1,0x30002
    bd2c:	47458593          	addi	a1,a1,1140 # 30002474 <resume_tasks>
    bd30:	008585b3          	add	a1,a1,s0
    bd34:	3000f6b7          	lui	a3,0x3000f
    bd38:	00100713          	li	a4,1
    bd3c:	00e58023          	sb	a4,0(a1)
    bd40:	38c6a703          	lw	a4,908(a3) # 3000f38c <resume_cnt>
    bd44:	00058623          	sb	zero,12(a1)
    bd48:	11000613          	li	a2,272
    bd4c:	00170713          	addi	a4,a4,1
    bd50:	00050593          	mv	a1,a0
    bd54:	00048513          	mv	a0,s1
    bd58:	38e6a623          	sw	a4,908(a3)
    bd5c:	c54f40ef          	jal	1b0 <memcpy>
    bd60:	12c12083          	lw	ra,300(sp)
    bd64:	12812403          	lw	s0,296(sp)
    bd68:	12012903          	lw	s2,288(sp)
    bd6c:	00048513          	mv	a0,s1
    bd70:	12412483          	lw	s1,292(sp)
    bd74:	13010113          	addi	sp,sp,304
    bd78:	00008067          	ret

0000bd7c <delete_task>:
    bd7c:	00852783          	lw	a5,8(a0)
    bd80:	00079863          	bnez	a5,bd90 <delete_task+0x14>
    bd84:	00022537          	lui	a0,0x22
    bd88:	11850513          	addi	a0,a0,280 # 22118 <log_level_colors+0x1930>
    bd8c:	a24f506f          	j	fb0 <printf>
    bd90:	00052703          	lw	a4,0(a0)
    bd94:	11000693          	li	a3,272
    bd98:	300027b7          	lui	a5,0x30002
    bd9c:	02d706b3          	mul	a3,a4,a3
    bda0:	48c78793          	addi	a5,a5,1164 # 3000248c <avail_tasks>
    bda4:	00d787b3          	add	a5,a5,a3
    bda8:	0007a423          	sw	zero,8(a5)
    bdac:	300027b7          	lui	a5,0x30002
    bdb0:	47478793          	addi	a5,a5,1140 # 30002474 <resume_tasks>
    bdb4:	00e786b3          	add	a3,a5,a4
    bdb8:	0006c683          	lbu	a3,0(a3)
    bdbc:	02068463          	beqz	a3,bde4 <delete_task+0x68>
    bdc0:	3000f637          	lui	a2,0x3000f
    bdc4:	38c62683          	lw	a3,908(a2) # 3000f38c <resume_cnt>
    bdc8:	fff68693          	addi	a3,a3,-1
    bdcc:	38d62623          	sw	a3,908(a2)
    bdd0:	00e787b3          	add	a5,a5,a4
    bdd4:	00078023          	sb	zero,0(a5)
    bdd8:	00078623          	sb	zero,12(a5)
    bddc:	00052423          	sw	zero,8(a0)
    bde0:	00008067          	ret
    bde4:	3000f637          	lui	a2,0x3000f
    bde8:	38862683          	lw	a3,904(a2) # 3000f388 <suspend_cnt>
    bdec:	fff68693          	addi	a3,a3,-1
    bdf0:	38d62423          	sw	a3,904(a2)
    bdf4:	fddff06f          	j	bdd0 <delete_task+0x54>

0000bdf8 <suspend_task>:
    bdf8:	00052703          	lw	a4,0(a0)
    bdfc:	300027b7          	lui	a5,0x30002
    be00:	47478793          	addi	a5,a5,1140 # 30002474 <resume_tasks>
    be04:	00e787b3          	add	a5,a5,a4
    be08:	0007c703          	lbu	a4,0(a5)
    be0c:	02070863          	beqz	a4,be3c <suspend_task+0x44>
    be10:	00100713          	li	a4,1
    be14:	00e78623          	sb	a4,12(a5)
    be18:	3000f737          	lui	a4,0x3000f
    be1c:	00078023          	sb	zero,0(a5)
    be20:	38c72783          	lw	a5,908(a4) # 3000f38c <resume_cnt>
    be24:	fff78793          	addi	a5,a5,-1
    be28:	38f72623          	sw	a5,908(a4)
    be2c:	3000f737          	lui	a4,0x3000f
    be30:	38872783          	lw	a5,904(a4) # 3000f388 <suspend_cnt>
    be34:	00178793          	addi	a5,a5,1
    be38:	38f72423          	sw	a5,904(a4)
    be3c:	00008067          	ret

0000be40 <resume_task>:
    be40:	00052703          	lw	a4,0(a0)
    be44:	300027b7          	lui	a5,0x30002
    be48:	47478793          	addi	a5,a5,1140 # 30002474 <resume_tasks>
    be4c:	00e787b3          	add	a5,a5,a4
    be50:	00c7c703          	lbu	a4,12(a5)
    be54:	02070863          	beqz	a4,be84 <resume_task+0x44>
    be58:	00100713          	li	a4,1
    be5c:	00e78023          	sb	a4,0(a5)
    be60:	3000f737          	lui	a4,0x3000f
    be64:	00078623          	sb	zero,12(a5)
    be68:	38c72783          	lw	a5,908(a4) # 3000f38c <resume_cnt>
    be6c:	00178793          	addi	a5,a5,1
    be70:	38f72623          	sw	a5,908(a4)
    be74:	3000f737          	lui	a4,0x3000f
    be78:	38872783          	lw	a5,904(a4) # 3000f388 <suspend_cnt>
    be7c:	fff78793          	addi	a5,a5,-1
    be80:	38f72423          	sw	a5,904(a4)
    be84:	00008067          	ret

0000be88 <idleHook>:
    be88:	ef010113          	addi	sp,sp,-272
    be8c:	10000613          	li	a2,256
    be90:	00010593          	mv	a1,sp
    be94:	10112623          	sw	ra,268(sp)
    be98:	10812423          	sw	s0,264(sp)
    be9c:	00050413          	mv	s0,a0
    bea0:	208000ef          	jal	c0a8 <enter_load_from_ctx>
    bea4:	00040513          	mv	a0,s0
    bea8:	f99ff0ef          	jal	be40 <resume_task>
    beac:	00442783          	lw	a5,4(s0)
    beb0:	00079663          	bnez	a5,bebc <idleHook+0x34>
    beb4:	00040513          	mv	a0,s0
    beb8:	1e0000ef          	jal	c098 <ctx_init>
    bebc:	00022537          	lui	a0,0x22
    bec0:	13850513          	addi	a0,a0,312 # 22138 <log_level_colors+0x1950>
    bec4:	8ecf50ef          	jal	fb0 <printf>
    bec8:	3000f7b7          	lui	a5,0x3000f
    becc:	3887a583          	lw	a1,904(a5) # 3000f388 <suspend_cnt>
    bed0:	00022537          	lui	a0,0x22
    bed4:	14c50513          	addi	a0,a0,332 # 2214c <log_level_colors+0x1964>
    bed8:	8d8f50ef          	jal	fb0 <printf>
    bedc:	3000f7b7          	lui	a5,0x3000f
    bee0:	38c7a583          	lw	a1,908(a5) # 3000f38c <resume_cnt>
    bee4:	00022537          	lui	a0,0x22
    bee8:	16850513          	addi	a0,a0,360 # 22168 <log_level_colors+0x1980>
    beec:	8c4f50ef          	jal	fb0 <printf>
    bef0:	00022537          	lui	a0,0x22
    bef4:	18050513          	addi	a0,a0,384 # 22180 <log_level_colors+0x1998>
    bef8:	8b8f50ef          	jal	fb0 <printf>
    befc:	00010593          	mv	a1,sp
    bf00:	00040513          	mv	a0,s0
    bf04:	10000613          	li	a2,256
    bf08:	1b0000ef          	jal	c0b8 <exit_save_to_ctx>
    bf0c:	0000c7b7          	lui	a5,0xc
    bf10:	ebc78793          	addi	a5,a5,-324 # bebc <idleHook+0x34>
    bf14:	10c12083          	lw	ra,268(sp)
    bf18:	00f42223          	sw	a5,4(s0)
    bf1c:	10812403          	lw	s0,264(sp)
    bf20:	11010113          	addi	sp,sp,272
    bf24:	00008067          	ret

0000bf28 <task_scheduler>:
    bf28:	eb010113          	addi	sp,sp,-336
    bf2c:	0000c637          	lui	a2,0xc
    bf30:	13312e23          	sw	s3,316(sp)
    bf34:	00000693          	li	a3,0
    bf38:	00050993          	mv	s3,a0
    bf3c:	e8860613          	addi	a2,a2,-376 # be88 <idleHook>
    bf40:	00a00593          	li	a1,10
    bf44:	01010513          	addi	a0,sp,16
    bf48:	14112623          	sw	ra,332(sp)
    bf4c:	14812423          	sw	s0,328(sp)
    bf50:	14912223          	sw	s1,324(sp)
    bf54:	15212023          	sw	s2,320(sp)
    bf58:	13412c23          	sw	s4,312(sp)
    bf5c:	13512a23          	sw	s5,308(sp)
    bf60:	13612823          	sw	s6,304(sp)
    bf64:	13712623          	sw	s7,300(sp)
    bf68:	13812423          	sw	s8,296(sp)
    bf6c:	d5dff0ef          	jal	bcc8 <create_task>
    bf70:	fff00793          	li	a5,-1
    bf74:	04f98863          	beq	s3,a5,bfc4 <task_scheduler+0x9c>
    bf78:	300024b7          	lui	s1,0x30002
    bf7c:	47448493          	addi	s1,s1,1140 # 30002474 <resume_tasks>
    bf80:	00000913          	li	s2,0
    bf84:	30002a37          	lui	s4,0x30002
    bf88:	00c48a93          	addi	s5,s1,12
    bf8c:	3000fb37          	lui	s6,0x3000f
    bf90:	0b394263          	blt	s2,s3,c034 <task_scheduler+0x10c>
    bf94:	14c12083          	lw	ra,332(sp)
    bf98:	14812403          	lw	s0,328(sp)
    bf9c:	14412483          	lw	s1,324(sp)
    bfa0:	14012903          	lw	s2,320(sp)
    bfa4:	13c12983          	lw	s3,316(sp)
    bfa8:	13812a03          	lw	s4,312(sp)
    bfac:	13412a83          	lw	s5,308(sp)
    bfb0:	13012b03          	lw	s6,304(sp)
    bfb4:	12c12b83          	lw	s7,300(sp)
    bfb8:	12812c03          	lw	s8,296(sp)
    bfbc:	15010113          	addi	sp,sp,336
    bfc0:	00008067          	ret
    bfc4:	300024b7          	lui	s1,0x30002
    bfc8:	47448493          	addi	s1,s1,1140 # 30002474 <resume_tasks>
    bfcc:	30002937          	lui	s2,0x30002
    bfd0:	00c48993          	addi	s3,s1,12
    bfd4:	3000fa37          	lui	s4,0x3000f
    bfd8:	48c90b93          	addi	s7,s2,1164 # 3000248c <avail_tasks>
    bfdc:	00000413          	li	s0,0
    bfe0:	3000fb37          	lui	s6,0x3000f
    bfe4:	00b00a93          	li	s5,11
    bfe8:	008ba783          	lw	a5,8(s7)
    bfec:	02078c63          	beqz	a5,c024 <task_scheduler+0xfc>
    bff0:	00848733          	add	a4,s1,s0
    bff4:	00074703          	lbu	a4,0(a4)
    bff8:	02071263          	bnez	a4,c01c <task_scheduler+0xf4>
    bffc:	ff640713          	addi	a4,s0,-10
    c000:	00070e63          	beqz	a4,c01c <task_scheduler+0xf4>
    c004:	00898733          	add	a4,s3,s0
    c008:	00074703          	lbu	a4,0(a4)
    c00c:	00070c63          	beqz	a4,c024 <task_scheduler+0xfc>
    c010:	38ca2683          	lw	a3,908(s4) # 3000f38c <resume_cnt>
    c014:	388b2703          	lw	a4,904(s6) # 3000f388 <suspend_cnt>
    c018:	00d76663          	bltu	a4,a3,c024 <task_scheduler+0xfc>
    c01c:	000b8513          	mv	a0,s7
    c020:	000780e7          	jalr	a5
    c024:	00140413          	addi	s0,s0,1
    c028:	110b8b93          	addi	s7,s7,272
    c02c:	fb541ee3          	bne	s0,s5,bfe8 <task_scheduler+0xc0>
    c030:	fa9ff06f          	j	bfd8 <task_scheduler+0xb0>
    c034:	48ca0513          	addi	a0,s4,1164
    c038:	00000413          	li	s0,0
    c03c:	3000fc37          	lui	s8,0x3000f
    c040:	00b00b93          	li	s7,11
    c044:	00852783          	lw	a5,8(a0)
    c048:	02078e63          	beqz	a5,c084 <task_scheduler+0x15c>
    c04c:	00848733          	add	a4,s1,s0
    c050:	00074703          	lbu	a4,0(a4)
    c054:	02071263          	bnez	a4,c078 <task_scheduler+0x150>
    c058:	ff640713          	addi	a4,s0,-10
    c05c:	00070e63          	beqz	a4,c078 <task_scheduler+0x150>
    c060:	008a8733          	add	a4,s5,s0
    c064:	00074703          	lbu	a4,0(a4)
    c068:	00070e63          	beqz	a4,c084 <task_scheduler+0x15c>
    c06c:	38cb2683          	lw	a3,908(s6)
    c070:	388c2703          	lw	a4,904(s8) # 3000f388 <suspend_cnt>
    c074:	00d76863          	bltu	a4,a3,c084 <task_scheduler+0x15c>
    c078:	00a12623          	sw	a0,12(sp)
    c07c:	000780e7          	jalr	a5
    c080:	00c12503          	lw	a0,12(sp)
    c084:	00140413          	addi	s0,s0,1
    c088:	11050513          	addi	a0,a0,272
    c08c:	fb741ce3          	bne	s0,s7,c044 <task_scheduler+0x11c>
    c090:	00190913          	addi	s2,s2,1
    c094:	efdff06f          	j	bf90 <task_scheduler+0x68>

0000c098 <ctx_init>:
    c098:	10000613          	li	a2,256
    c09c:	00000593          	li	a1,0
    c0a0:	01050513          	addi	a0,a0,16
    c0a4:	930f406f          	j	1d4 <memset>

0000c0a8 <enter_load_from_ctx>:
    c0a8:	00058793          	mv	a5,a1
    c0ac:	01050593          	addi	a1,a0,16
    c0b0:	00078513          	mv	a0,a5
    c0b4:	8fcf406f          	j	1b0 <memcpy>

0000c0b8 <exit_save_to_ctx>:
    c0b8:	01050513          	addi	a0,a0,16
    c0bc:	8f4f406f          	j	1b0 <memcpy>

0000c0c0 <log_init>:
    c0c0:	300007b7          	lui	a5,0x30000
    c0c4:	06a7ac23          	sw	a0,120(a5) # 30000078 <g_log_level>
    c0c8:	00008067          	ret

0000c0cc <log_close>:
    c0cc:	00008067          	ret

0000c0d0 <log_print>:
    c0d0:	fd010113          	addi	sp,sp,-48
    c0d4:	02f12223          	sw	a5,36(sp)
    c0d8:	300007b7          	lui	a5,0x30000
    c0dc:	0787a783          	lw	a5,120(a5) # 30000078 <g_log_level>
    c0e0:	00112e23          	sw	ra,28(sp)
    c0e4:	00812c23          	sw	s0,24(sp)
    c0e8:	00912a23          	sw	s1,20(sp)
    c0ec:	02e12023          	sw	a4,32(sp)
    c0f0:	03012423          	sw	a6,40(sp)
    c0f4:	03112623          	sw	a7,44(sp)
    c0f8:	06f56663          	bltu	a0,a5,c164 <log_print+0x94>
    c0fc:	02010793          	addi	a5,sp,32
    c100:	00020837          	lui	a6,0x20
    c104:	00f12623          	sw	a5,12(sp)
    c108:	7d480813          	addi	a6,a6,2004 # 207d4 <log_level_strings>
    c10c:	00251793          	slli	a5,a0,0x2
    c110:	00f80833          	add	a6,a6,a5
    c114:	00060713          	mv	a4,a2
    c118:	00068493          	mv	s1,a3
    c11c:	00082603          	lw	a2,0(a6)
    c120:	00058693          	mv	a3,a1
    c124:	01482583          	lw	a1,20(a6)
    c128:	00050413          	mv	s0,a0
    c12c:	000227b7          	lui	a5,0x22
    c130:	00022537          	lui	a0,0x22
    c134:	19478793          	addi	a5,a5,404 # 22194 <log_level_colors+0x19ac>
    c138:	19c50513          	addi	a0,a0,412 # 2219c <log_level_colors+0x19b4>
    c13c:	e75f40ef          	jal	fb0 <printf>
    c140:	00c12583          	lw	a1,12(sp)
    c144:	00048513          	mv	a0,s1
    c148:	fc0f40ef          	jal	908 <vprintf>
    c14c:	00022537          	lui	a0,0x22
    c150:	f1050513          	addi	a0,a0,-240 # 21f10 <log_level_colors+0x1728>
    c154:	e5df40ef          	jal	fb0 <printf>
    c158:	00400793          	li	a5,4
    c15c:	00f41463          	bne	s0,a5,c164 <log_print+0x94>
    c160:	0000006f          	j	c160 <log_print+0x90>
    c164:	01c12083          	lw	ra,28(sp)
    c168:	01812403          	lw	s0,24(sp)
    c16c:	01412483          	lw	s1,20(sp)
    c170:	03010113          	addi	sp,sp,48
    c174:	00008067          	ret

0000c178 <editor_save.constprop.0>:
    c178:	fc010113          	addi	sp,sp,-64
    c17c:	02812c23          	sw	s0,56(sp)
    c180:	02912a23          	sw	s1,52(sp)
    c184:	02112e23          	sw	ra,60(sp)
    c188:	03212823          	sw	s2,48(sp)
    c18c:	80010113          	addi	sp,sp,-2048
    c190:	80010113          	addi	sp,sp,-2048
    c194:	3000f5b7          	lui	a1,0x3000f
    c198:	00a00613          	li	a2,10
    c19c:	14658593          	addi	a1,a1,326 # 3000f146 <editor+0xc10a>
    c1a0:	00810513          	addi	a0,sp,8
    c1a4:	3000f437          	lui	s0,0x3000f
    c1a8:	9f8fd0ef          	jal	93a0 <f_open>
    c1ac:	03c40413          	addi	s0,s0,60 # 3000f03c <editor+0xc000>
    c1b0:	00100493          	li	s1,1
    c1b4:	04051063          	bnez	a0,c1f4 <editor_save.constprop.0+0x7c>
    c1b8:	00245603          	lhu	a2,2(s0)
    c1bc:	300035b7          	lui	a1,0x30003
    c1c0:	00410693          	addi	a3,sp,4
    c1c4:	03c58593          	addi	a1,a1,60 # 3000303c <editor>
    c1c8:	00810513          	addi	a0,sp,8
    c1cc:	f04fd0ef          	jal	98d0 <f_write>
    c1d0:	00050913          	mv	s2,a0
    c1d4:	00810513          	addi	a0,sp,8
    c1d8:	b79fd0ef          	jal	9d50 <f_close>
    c1dc:	00091c63          	bnez	s2,c1f4 <editor_save.constprop.0+0x7c>
    c1e0:	00245703          	lhu	a4,2(s0)
    c1e4:	00412783          	lw	a5,4(sp)
    c1e8:	00f71663          	bne	a4,a5,c1f4 <editor_save.constprop.0+0x7c>
    c1ec:	30042623          	sw	zero,780(s0)
    c1f0:	00000493          	li	s1,0
    c1f4:	30942e23          	sw	s1,796(s0)
    c1f8:	000012b7          	lui	t0,0x1
    c1fc:	00510133          	add	sp,sp,t0
    c200:	03c12083          	lw	ra,60(sp)
    c204:	03812403          	lw	s0,56(sp)
    c208:	03412483          	lw	s1,52(sp)
    c20c:	03012903          	lw	s2,48(sp)
    c210:	04010113          	addi	sp,sp,64
    c214:	00008067          	ret

0000c218 <editor_scroll_to_cursor.constprop.0>:
    c218:	3000f737          	lui	a4,0x3000f
    c21c:	03c70713          	addi	a4,a4,60 # 3000f03c <editor+0xc000>
    c220:	00475783          	lhu	a5,4(a4)
    c224:	00875583          	lhu	a1,8(a4)
    c228:	00b7f663          	bgeu	a5,a1,c234 <editor_scroll_to_cursor.constprop.0+0x1c>
    c22c:	00f71423          	sh	a5,8(a4)
    c230:	00008067          	ret
    c234:	31072683          	lw	a3,784(a4)
    c238:	ffe68693          	addi	a3,a3,-2
    c23c:	00d04463          	bgtz	a3,c244 <editor_scroll_to_cursor.constprop.0+0x2c>
    c240:	00100693          	li	a3,1
    c244:	01069613          	slli	a2,a3,0x10
    c248:	01065613          	srli	a2,a2,0x10
    c24c:	00b60633          	add	a2,a2,a1
    c250:	fec7c0e3          	blt	a5,a2,c230 <editor_scroll_to_cursor.constprop.0+0x18>
    c254:	00178793          	addi	a5,a5,1
    c258:	40d787b3          	sub	a5,a5,a3
    c25c:	fd1ff06f          	j	c22c <editor_scroll_to_cursor.constprop.0+0x14>

0000c260 <editor_line_length>:
    c260:	0000c737          	lui	a4,0xc
    c264:	00e50733          	add	a4,a0,a4
    c268:	00075603          	lhu	a2,0(a4) # c000 <task_scheduler+0xd8>
    c26c:	04c5fa63          	bgeu	a1,a2,c2c0 <editor_line_length+0x60>
    c270:	00159793          	slli	a5,a1,0x1
    c274:	000086b7          	lui	a3,0x8
    c278:	00f507b3          	add	a5,a0,a5
    c27c:	00d787b3          	add	a5,a5,a3
    c280:	00158593          	addi	a1,a1,1
    c284:	0007d683          	lhu	a3,0(a5)
    c288:	02c5d863          	bge	a1,a2,c2b8 <editor_line_length+0x58>
    c28c:	0027d783          	lhu	a5,2(a5)
    c290:	02f6f063          	bgeu	a3,a5,c2b0 <editor_line_length+0x50>
    c294:	00f50533          	add	a0,a0,a5
    c298:	fff54603          	lbu	a2,-1(a0)
    c29c:	00a00713          	li	a4,10
    c2a0:	00e61863          	bne	a2,a4,c2b0 <editor_line_length+0x50>
    c2a4:	fff78793          	addi	a5,a5,-1
    c2a8:	01079793          	slli	a5,a5,0x10
    c2ac:	0107d793          	srli	a5,a5,0x10
    c2b0:	40d78533          	sub	a0,a5,a3
    c2b4:	00008067          	ret
    c2b8:	00275783          	lhu	a5,2(a4)
    c2bc:	ff5ff06f          	j	c2b0 <editor_line_length+0x50>
    c2c0:	00000513          	li	a0,0
    c2c4:	00008067          	ret

0000c2c8 <editor_build_line_offsets>:
    c2c8:	000087b7          	lui	a5,0x8
    c2cc:	00f507b3          	add	a5,a0,a5
    c2d0:	00079023          	sh	zero,0(a5) # 8000 <remove_chain+0x58>
    c2d4:	0000c7b7          	lui	a5,0xc
    c2d8:	00f507b3          	add	a5,a0,a5
    c2dc:	0027d803          	lhu	a6,2(a5) # c002 <task_scheduler+0xda>
    c2e0:	00100713          	li	a4,1
    c2e4:	00e79023          	sh	a4,0(a5)
    c2e8:	00000593          	li	a1,0
    c2ec:	00a00893          	li	a7,10
    c2f0:	00002337          	lui	t1,0x2
    c2f4:	00004e37          	lui	t3,0x4
    c2f8:	01059613          	slli	a2,a1,0x10
    c2fc:	01065613          	srli	a2,a2,0x10
    c300:	01066463          	bltu	a2,a6,c308 <editor_build_line_offsets+0x40>
    c304:	00008067          	ret
    c308:	00b50733          	add	a4,a0,a1
    c30c:	00074703          	lbu	a4,0(a4)
    c310:	03171463          	bne	a4,a7,c338 <editor_build_line_offsets+0x70>
    c314:	0007d703          	lhu	a4,0(a5)
    c318:	fe6776e3          	bgeu	a4,t1,c304 <editor_build_line_offsets+0x3c>
    c31c:	01c706b3          	add	a3,a4,t3
    c320:	00169693          	slli	a3,a3,0x1
    c324:	00d506b3          	add	a3,a0,a3
    c328:	00160613          	addi	a2,a2,1
    c32c:	00c69023          	sh	a2,0(a3) # 8000 <remove_chain+0x58>
    c330:	00170713          	addi	a4,a4,1
    c334:	00e79023          	sh	a4,0(a5)
    c338:	00158593          	addi	a1,a1,1
    c33c:	fbdff06f          	j	c2f8 <editor_build_line_offsets+0x30>

0000c340 <editor_load_file.constprop.0>:
    c340:	fb010113          	addi	sp,sp,-80
    c344:	04112623          	sw	ra,76(sp)
    c348:	04812423          	sw	s0,72(sp)
    c34c:	04912223          	sw	s1,68(sp)
    c350:	80010113          	addi	sp,sp,-2048
    c354:	80010113          	addi	sp,sp,-2048
    c358:	3000f5b7          	lui	a1,0x3000f
    c35c:	00100613          	li	a2,1
    c360:	14658593          	addi	a1,a1,326 # 3000f146 <editor+0xc10a>
    c364:	01810513          	addi	a0,sp,24
    c368:	838fd0ef          	jal	93a0 <f_open>
    c36c:	00400793          	li	a5,4
    c370:	02f51463          	bne	a0,a5,c398 <editor_load_file.constprop.0+0x58>
    c374:	30003537          	lui	a0,0x30003
    c378:	03c50513          	addi	a0,a0,60 # 3000303c <editor>
    c37c:	0000c7b7          	lui	a5,0xc
    c380:	00f507b3          	add	a5,a0,a5
    c384:	00079123          	sh	zero,2(a5) # c002 <task_scheduler+0xda>
    c388:	00050023          	sb	zero,0(a0)
    c38c:	f3dff0ef          	jal	c2c8 <editor_build_line_offsets>
    c390:	00000513          	li	a0,0
    c394:	0440006f          	j	c3d8 <editor_load_file.constprop.0+0x98>
    c398:	00050593          	mv	a1,a0
    c39c:	00050a63          	beqz	a0,c3b0 <editor_load_file.constprop.0+0x70>
    c3a0:	00022537          	lui	a0,0x22
    c3a4:	20050513          	addi	a0,a0,512 # 22200 <log_level_colors+0x1a18>
    c3a8:	c09f40ef          	jal	fb0 <printf>
    c3ac:	0280006f          	j	c3d4 <editor_load_file.constprop.0+0x94>
    c3b0:	02412783          	lw	a5,36(sp)
    c3b4:	00008637          	lui	a2,0x8
    c3b8:	02f67e63          	bgeu	a2,a5,c3f4 <editor_load_file.constprop.0+0xb4>
    c3bc:	00022537          	lui	a0,0x22
    c3c0:	00060593          	mv	a1,a2
    c3c4:	22850513          	addi	a0,a0,552 # 22228 <log_level_colors+0x1a40>
    c3c8:	be9f40ef          	jal	fb0 <printf>
    c3cc:	01810513          	addi	a0,sp,24
    c3d0:	981fd0ef          	jal	9d50 <f_close>
    c3d4:	fff00513          	li	a0,-1
    c3d8:	000012b7          	lui	t0,0x1
    c3dc:	00510133          	add	sp,sp,t0
    c3e0:	04c12083          	lw	ra,76(sp)
    c3e4:	04812403          	lw	s0,72(sp)
    c3e8:	04412483          	lw	s1,68(sp)
    c3ec:	05010113          	addi	sp,sp,80
    c3f0:	00008067          	ret
    c3f4:	30003437          	lui	s0,0x30003
    c3f8:	03c40593          	addi	a1,s0,60 # 3000303c <editor>
    c3fc:	01410693          	addi	a3,sp,20
    c400:	01810513          	addi	a0,sp,24
    c404:	a80fd0ef          	jal	9684 <f_read>
    c408:	00a12623          	sw	a0,12(sp)
    c40c:	01810513          	addi	a0,sp,24
    c410:	941fd0ef          	jal	9d50 <f_close>
    c414:	00c12583          	lw	a1,12(sp)
    c418:	00058863          	beqz	a1,c428 <editor_load_file.constprop.0+0xe8>
    c41c:	00022537          	lui	a0,0x22
    c420:	25450513          	addi	a0,a0,596 # 22254 <log_level_colors+0x1a6c>
    c424:	f85ff06f          	j	c3a8 <editor_load_file.constprop.0+0x68>
    c428:	01412783          	lw	a5,20(sp)
    c42c:	03c40513          	addi	a0,s0,60
    c430:	0000c737          	lui	a4,0xc
    c434:	00e50733          	add	a4,a0,a4
    c438:	00f71123          	sh	a5,2(a4) # c002 <task_scheduler+0xda>
    c43c:	01079793          	slli	a5,a5,0x10
    c440:	0107d793          	srli	a5,a5,0x10
    c444:	00f507b3          	add	a5,a0,a5
    c448:	00078023          	sb	zero,0(a5)
    c44c:	f41ff06f          	j	c38c <editor_load_file.constprop.0+0x4c>

0000c450 <editor_construct_path>:
    c450:	fe010113          	addi	sp,sp,-32
    c454:	00812c23          	sw	s0,24(sp)
    c458:	00112e23          	sw	ra,28(sp)
    c45c:	00912a23          	sw	s1,20(sp)
    c460:	00050413          	mv	s0,a0
    c464:	00b12423          	sw	a1,8(sp)
    c468:	d68f80ef          	jal	49d0 <shellGetCurrent>
    c46c:	00812703          	lw	a4,8(sp)
    c470:	00050663          	beqz	a0,c47c <editor_construct_path+0x2c>
    c474:	00852683          	lw	a3,8(a0)
    c478:	00069663          	bnez	a3,c484 <editor_construct_path+0x34>
    c47c:	000226b7          	lui	a3,0x22
    c480:	8ac68693          	addi	a3,a3,-1876 # 218ac <log_level_colors+0x10c4>
    c484:	00074783          	lbu	a5,0(a4)
    c488:	02f00493          	li	s1,47
    c48c:	02979a63          	bne	a5,s1,c4c0 <editor_construct_path+0x70>
    c490:	0000c537          	lui	a0,0xc
    c494:	10a50513          	addi	a0,a0,266 # c10a <log_print+0x3a>
    c498:	00a40533          	add	a0,s0,a0
    c49c:	01812403          	lw	s0,24(sp)
    c4a0:	01c12083          	lw	ra,28(sp)
    c4a4:	01412483          	lw	s1,20(sp)
    c4a8:	00022637          	lui	a2,0x22
    c4ac:	00070693          	mv	a3,a4
    c4b0:	27860613          	addi	a2,a2,632 # 22278 <log_level_colors+0x1a90>
    c4b4:	20000593          	li	a1,512
    c4b8:	02010113          	addi	sp,sp,32
    c4bc:	ac1f406f          	j	f7c <snprintf>
    c4c0:	00068513          	mv	a0,a3
    c4c4:	00e12623          	sw	a4,12(sp)
    c4c8:	00d12423          	sw	a3,8(sp)
    c4cc:	d25f30ef          	jal	1f0 <strlen>
    c4d0:	0000c7b7          	lui	a5,0xc
    c4d4:	00812683          	lw	a3,8(sp)
    c4d8:	00c12703          	lw	a4,12(sp)
    c4dc:	10a78793          	addi	a5,a5,266 # c10a <log_print+0x3a>
    c4e0:	02050a63          	beqz	a0,c514 <editor_construct_path+0xc4>
    c4e4:	00a68533          	add	a0,a3,a0
    c4e8:	fff54603          	lbu	a2,-1(a0)
    c4ec:	02961463          	bne	a2,s1,c514 <editor_construct_path+0xc4>
    c4f0:	00022637          	lui	a2,0x22
    c4f4:	28060613          	addi	a2,a2,640 # 22280 <log_level_colors+0x1a98>
    c4f8:	00f40533          	add	a0,s0,a5
    c4fc:	01812403          	lw	s0,24(sp)
    c500:	01c12083          	lw	ra,28(sp)
    c504:	01412483          	lw	s1,20(sp)
    c508:	20000593          	li	a1,512
    c50c:	02010113          	addi	sp,sp,32
    c510:	a6df406f          	j	f7c <snprintf>
    c514:	00022637          	lui	a2,0x22
    c518:	28860613          	addi	a2,a2,648 # 22288 <log_level_colors+0x1aa0>
    c51c:	fddff06f          	j	c4f8 <editor_construct_path+0xa8>

0000c520 <editCmd>:
    c520:	fb010113          	addi	sp,sp,-80
    c524:	04112623          	sw	ra,76(sp)
    c528:	04812423          	sw	s0,72(sp)
    c52c:	04912223          	sw	s1,68(sp)
    c530:	05212023          	sw	s2,64(sp)
    c534:	03312e23          	sw	s3,60(sp)
    c538:	03412c23          	sw	s4,56(sp)
    c53c:	03512a23          	sw	s5,52(sp)
    c540:	03612823          	sw	s6,48(sp)
    c544:	03712623          	sw	s7,44(sp)
    c548:	03812423          	sw	s8,40(sp)
    c54c:	03912223          	sw	s9,36(sp)
    c550:	00100793          	li	a5,1
    c554:	04a7c663          	blt	a5,a0,c5a0 <editCmd+0x80>
    c558:	00022537          	lui	a0,0x22
    c55c:	29050513          	addi	a0,a0,656 # 22290 <log_level_colors+0x1aa8>
    c560:	a51f40ef          	jal	fb0 <printf>
    c564:	fff00993          	li	s3,-1
    c568:	04c12083          	lw	ra,76(sp)
    c56c:	04812403          	lw	s0,72(sp)
    c570:	04412483          	lw	s1,68(sp)
    c574:	04012903          	lw	s2,64(sp)
    c578:	03812a03          	lw	s4,56(sp)
    c57c:	03412a83          	lw	s5,52(sp)
    c580:	03012b03          	lw	s6,48(sp)
    c584:	02c12b83          	lw	s7,44(sp)
    c588:	02812c03          	lw	s8,40(sp)
    c58c:	02412c83          	lw	s9,36(sp)
    c590:	00098513          	mv	a0,s3
    c594:	03c12983          	lw	s3,60(sp)
    c598:	05010113          	addi	sp,sp,80
    c59c:	00008067          	ret
    c5a0:	300034b7          	lui	s1,0x30003
    c5a4:	0000c637          	lui	a2,0xc
    c5a8:	0045a983          	lw	s3,4(a1)
    c5ac:	32060613          	addi	a2,a2,800 # c320 <editor_build_line_offsets+0x58>
    c5b0:	00000593          	li	a1,0
    c5b4:	03c48513          	addi	a0,s1,60 # 3000303c <editor>
    c5b8:	c1df30ef          	jal	1d4 <memset>
    c5bc:	03c48913          	addi	s2,s1,60
    c5c0:	0000c437          	lui	s0,0xc
    c5c4:	00890433          	add	s0,s2,s0
    c5c8:	01800793          	li	a5,24
    c5cc:	30f42823          	sw	a5,784(s0) # c310 <editor_build_line_offsets+0x48>
    c5d0:	05000793          	li	a5,80
    c5d4:	30f42a23          	sw	a5,788(s0)
    c5d8:	00042223          	sw	zero,4(s0)
    c5dc:	00041423          	sh	zero,8(s0)
    c5e0:	30042623          	sw	zero,780(s0)
    c5e4:	00098793          	mv	a5,s3
    c5e8:	00098693          	mv	a3,s3
    c5ec:	02f00613          	li	a2,47
    c5f0:	0007c703          	lbu	a4,0(a5)
    c5f4:	16071c63          	bnez	a4,c76c <editCmd+0x24c>
    c5f8:	00022637          	lui	a2,0x22
    c5fc:	3000f537          	lui	a0,0x3000f
    c600:	28460613          	addi	a2,a2,644 # 22284 <log_level_colors+0x1a9c>
    c604:	10000593          	li	a1,256
    c608:	04650513          	addi	a0,a0,70 # 3000f046 <editor+0xc00a>
    c60c:	971f40ef          	jal	f7c <snprintf>
    c610:	00098593          	mv	a1,s3
    c614:	03c48513          	addi	a0,s1,60
    c618:	e39ff0ef          	jal	c450 <editor_construct_path>
    c61c:	d25ff0ef          	jal	c340 <editor_load_file.constprop.0>
    c620:	00050993          	mv	s3,a0
    c624:	f40510e3          	bnez	a0,c564 <editCmd+0x44>
    c628:	10001a37          	lui	s4,0x10001
    c62c:	00020ab7          	lui	s5,0x20
    c630:	30042c23          	sw	zero,792(s0)
    c634:	30042e23          	sw	zero,796(s0)
    c638:	03c48c13          	addi	s8,s1,60
    c63c:	01b00b13          	li	s6,27
    c640:	00f00b93          	li	s7,15
    c644:	004a0a13          	addi	s4,s4,4 # 10001004 <_etext+0xffdec40>
    c648:	7fca8a93          	addi	s5,s5,2044 # 207fc <log_level_colors+0x14>
    c64c:	000c0513          	mv	a0,s8
    c650:	480000ef          	jal	cad0 <editor_render>
    c654:	9d5f40ef          	jal	1028 <hal_sys_getchar>
    c658:	00050493          	mv	s1,a0
    c65c:	05651863          	bne	a0,s6,c6ac <editCmd+0x18c>
    c660:	00012c23          	sw	zero,24(sp)
    c664:	01812783          	lw	a5,24(sp)
    c668:	42fbda63          	bge	s7,a5,ca9c <editCmd+0x57c>
    c66c:	000027b7          	lui	a5,0x2
    c670:	00012e23          	sw	zero,28(sp)
    c674:	70f78793          	addi	a5,a5,1807 # 270f <sfud_erase+0x8f>
    c678:	01c12703          	lw	a4,28(sp)
    c67c:	42e7da63          	bge	a5,a4,cab0 <editCmd+0x590>
    c680:	000a2703          	lw	a4,0(s4)
    c684:	05b00793          	li	a5,91
    c688:	10000493          	li	s1,256
    c68c:	02f71063          	bne	a4,a5,c6ac <editCmd+0x18c>
    c690:	999f40ef          	jal	1028 <hal_sys_getchar>
    c694:	fbf50793          	addi	a5,a0,-65
    c698:	0ff7f793          	zext.b	a5,a5
    c69c:	00300713          	li	a4,3
    c6a0:	1ff00493          	li	s1,511
    c6a4:	00f76463          	bltu	a4,a5,c6ac <editCmd+0x18c>
    c6a8:	0c050493          	addi	s1,a0,192
    c6ac:	31842783          	lw	a5,792(s0)
    c6b0:	30042e23          	sw	zero,796(s0)
    c6b4:	0c079463          	bnez	a5,c77c <editCmd+0x25c>
    c6b8:	10400793          	li	a5,260
    c6bc:	f897c8e3          	blt	a5,s1,c64c <editCmd+0x12c>
    c6c0:	0ff00793          	li	a5,255
    c6c4:	0c97c463          	blt	a5,s1,c78c <editCmd+0x26c>
    c6c8:	01700793          	li	a5,23
    c6cc:	24f48a63          	beq	s1,a5,c920 <editCmd+0x400>
    c6d0:	0c97cc63          	blt	a5,s1,c7a8 <editCmd+0x288>
    c6d4:	00800793          	li	a5,8
    c6d8:	26f48263          	beq	s1,a5,c93c <editCmd+0x41c>
    c6dc:	00d00793          	li	a5,13
    c6e0:	f6f496e3          	bne	s1,a5,c64c <editCmd+0x12c>
    c6e4:	00042783          	lw	a5,0(s0)
    c6e8:	8000e737          	lui	a4,0x8000e
    c6ec:	00e7f7b3          	and	a5,a5,a4
    c6f0:	f4079ee3          	bnez	a5,c64c <editCmd+0x12c>
    c6f4:	00445783          	lhu	a5,4(s0)
    c6f8:	00004737          	lui	a4,0x4
    c6fc:	00245603          	lhu	a2,2(s0)
    c700:	00e787b3          	add	a5,a5,a4
    c704:	00179793          	slli	a5,a5,0x1
    c708:	00f907b3          	add	a5,s2,a5
    c70c:	0007d783          	lhu	a5,0(a5)
    c710:	00645703          	lhu	a4,6(s0)
    c714:	00e787b3          	add	a5,a5,a4
    c718:	01079793          	slli	a5,a5,0x10
    c71c:	0107d793          	srli	a5,a5,0x10
    c720:	00f904b3          	add	s1,s2,a5
    c724:	00178513          	addi	a0,a5,1
    c728:	40f60633          	sub	a2,a2,a5
    c72c:	00048593          	mv	a1,s1
    c730:	00a90533          	add	a0,s2,a0
    c734:	c09f30ef          	jal	33c <memmove>
    c738:	00a00793          	li	a5,10
    c73c:	00f48023          	sb	a5,0(s1)
    c740:	00245783          	lhu	a5,2(s0)
    c744:	00041323          	sh	zero,6(s0)
    c748:	00178793          	addi	a5,a5,1
    c74c:	00f41123          	sh	a5,2(s0)
    c750:	00445783          	lhu	a5,4(s0)
    c754:	00178793          	addi	a5,a5,1
    c758:	00f41223          	sh	a5,4(s0)
    c75c:	00090513          	mv	a0,s2
    c760:	b69ff0ef          	jal	c2c8 <editor_build_line_offsets>
    c764:	ab5ff0ef          	jal	c218 <editor_scroll_to_cursor.constprop.0>
    c768:	2600006f          	j	c9c8 <editCmd+0x4a8>
    c76c:	00178793          	addi	a5,a5,1
    c770:	e8c710e3          	bne	a4,a2,c5f0 <editCmd+0xd0>
    c774:	00078693          	mv	a3,a5
    c778:	e79ff06f          	j	c5f0 <editCmd+0xd0>
    c77c:	10000793          	li	a5,256
    c780:	34f48063          	beq	s1,a5,cac0 <editCmd+0x5a0>
    c784:	30042c23          	sw	zero,792(s0)
    c788:	ec5ff06f          	j	c64c <editCmd+0x12c>
    c78c:	eff48493          	addi	s1,s1,-257
    c790:	00300793          	li	a5,3
    c794:	1897ea63          	bltu	a5,s1,c928 <editCmd+0x408>
    c798:	00249493          	slli	s1,s1,0x2
    c79c:	015484b3          	add	s1,s1,s5
    c7a0:	0004a783          	lw	a5,0(s1)
    c7a4:	00078067          	jr	a5
    c7a8:	07f00793          	li	a5,127
    c7ac:	18f48863          	beq	s1,a5,c93c <editCmd+0x41c>
    c7b0:	fe048793          	addi	a5,s1,-32
    c7b4:	05e00713          	li	a4,94
    c7b8:	e8f76ae3          	bltu	a4,a5,c64c <editCmd+0x12c>
    c7bc:	00245603          	lhu	a2,2(s0)
    c7c0:	01061793          	slli	a5,a2,0x10
    c7c4:	4107d793          	srai	a5,a5,0x10
    c7c8:	e807c2e3          	bltz	a5,c64c <editCmd+0x12c>
    c7cc:	00445783          	lhu	a5,4(s0)
    c7d0:	00004737          	lui	a4,0x4
    c7d4:	00e787b3          	add	a5,a5,a4
    c7d8:	00179793          	slli	a5,a5,0x1
    c7dc:	00f907b3          	add	a5,s2,a5
    c7e0:	00645703          	lhu	a4,6(s0)
    c7e4:	0007d783          	lhu	a5,0(a5)
    c7e8:	00e787b3          	add	a5,a5,a4
    c7ec:	01079793          	slli	a5,a5,0x10
    c7f0:	0107d793          	srli	a5,a5,0x10
    c7f4:	00178513          	addi	a0,a5,1
    c7f8:	00f905b3          	add	a1,s2,a5
    c7fc:	40f60633          	sub	a2,a2,a5
    c800:	00a90533          	add	a0,s2,a0
    c804:	00b12623          	sw	a1,12(sp)
    c808:	b35f30ef          	jal	33c <memmove>
    c80c:	00245783          	lhu	a5,2(s0)
    c810:	00c12583          	lw	a1,12(sp)
    c814:	000086b7          	lui	a3,0x8
    c818:	00178793          	addi	a5,a5,1
    c81c:	00f41123          	sh	a5,2(s0)
    c820:	00445783          	lhu	a5,4(s0)
    c824:	00045603          	lhu	a2,0(s0)
    c828:	00d906b3          	add	a3,s2,a3
    c82c:	00178793          	addi	a5,a5,1
    c830:	01079793          	slli	a5,a5,0x10
    c834:	0107d793          	srli	a5,a5,0x10
    c838:	00179713          	slli	a4,a5,0x1
    c83c:	00958023          	sb	s1,0(a1)
    c840:	00d70733          	add	a4,a4,a3
    c844:	22c7ec63          	bltu	a5,a2,ca7c <editCmd+0x55c>
    c848:	00645783          	lhu	a5,6(s0)
    c84c:	00178793          	addi	a5,a5,1
    c850:	00f41323          	sh	a5,6(s0)
    c854:	1740006f          	j	c9c8 <editCmd+0x4a8>
    c858:	00445583          	lhu	a1,4(s0)
    c85c:	de0588e3          	beqz	a1,c64c <editCmd+0x12c>
    c860:	fff58593          	addi	a1,a1,-1
    c864:	01059593          	slli	a1,a1,0x10
    c868:	0105d593          	srli	a1,a1,0x10
    c86c:	00090513          	mv	a0,s2
    c870:	00b41223          	sh	a1,4(s0)
    c874:	9edff0ef          	jal	c260 <editor_line_length>
    c878:	00645783          	lhu	a5,6(s0)
    c87c:	01051513          	slli	a0,a0,0x10
    c880:	01055513          	srli	a0,a0,0x10
    c884:	00f57463          	bgeu	a0,a5,c88c <editCmd+0x36c>
    c888:	00a41323          	sh	a0,6(s0)
    c88c:	98dff0ef          	jal	c218 <editor_scroll_to_cursor.constprop.0>
    c890:	dbdff06f          	j	c64c <editCmd+0x12c>
    c894:	00445583          	lhu	a1,4(s0)
    c898:	00045783          	lhu	a5,0(s0)
    c89c:	00158593          	addi	a1,a1,1
    c8a0:	daf5d6e3          	bge	a1,a5,c64c <editCmd+0x12c>
    c8a4:	fc1ff06f          	j	c864 <editCmd+0x344>
    c8a8:	00645783          	lhu	a5,6(s0)
    c8ac:	00078863          	beqz	a5,c8bc <editCmd+0x39c>
    c8b0:	fff78793          	addi	a5,a5,-1
    c8b4:	00f41323          	sh	a5,6(s0)
    c8b8:	d95ff06f          	j	c64c <editCmd+0x12c>
    c8bc:	00445583          	lhu	a1,4(s0)
    c8c0:	d80586e3          	beqz	a1,c64c <editCmd+0x12c>
    c8c4:	fff58593          	addi	a1,a1,-1
    c8c8:	01059593          	slli	a1,a1,0x10
    c8cc:	0105d593          	srli	a1,a1,0x10
    c8d0:	00090513          	mv	a0,s2
    c8d4:	00b41223          	sh	a1,4(s0)
    c8d8:	989ff0ef          	jal	c260 <editor_line_length>
    c8dc:	fadff06f          	j	c888 <editCmd+0x368>
    c8e0:	00445483          	lhu	s1,4(s0)
    c8e4:	00090513          	mv	a0,s2
    c8e8:	00048593          	mv	a1,s1
    c8ec:	975ff0ef          	jal	c260 <editor_line_length>
    c8f0:	00645783          	lhu	a5,6(s0)
    c8f4:	01051513          	slli	a0,a0,0x10
    c8f8:	01055513          	srli	a0,a0,0x10
    c8fc:	00a7f663          	bgeu	a5,a0,c908 <editCmd+0x3e8>
    c900:	00178793          	addi	a5,a5,1
    c904:	fb1ff06f          	j	c8b4 <editCmd+0x394>
    c908:	00045783          	lhu	a5,0(s0)
    c90c:	00148493          	addi	s1,s1,1
    c910:	d2f4dee3          	bge	s1,a5,c64c <editCmd+0x12c>
    c914:	00941223          	sh	s1,4(s0)
    c918:	00041323          	sh	zero,6(s0)
    c91c:	f71ff06f          	j	c88c <editCmd+0x36c>
    c920:	859ff0ef          	jal	c178 <editor_save.constprop.0>
    c924:	d29ff06f          	j	c64c <editCmd+0x12c>
    c928:	30c42783          	lw	a5,780(s0)
    c92c:	18078a63          	beqz	a5,cac0 <editCmd+0x5a0>
    c930:	00100793          	li	a5,1
    c934:	30f42c23          	sw	a5,792(s0)
    c938:	d15ff06f          	j	c64c <editCmd+0x12c>
    c93c:	00645783          	lhu	a5,6(s0)
    c940:	00445483          	lhu	s1,4(s0)
    c944:	0a078863          	beqz	a5,c9f4 <editCmd+0x4d4>
    c948:	00004737          	lui	a4,0x4
    c94c:	00e484b3          	add	s1,s1,a4
    c950:	00149493          	slli	s1,s1,0x1
    c954:	009904b3          	add	s1,s2,s1
    c958:	0004d503          	lhu	a0,0(s1)
    c95c:	fff78793          	addi	a5,a5,-1
    c960:	00245603          	lhu	a2,2(s0)
    c964:	00f50533          	add	a0,a0,a5
    c968:	01051513          	slli	a0,a0,0x10
    c96c:	01055513          	srli	a0,a0,0x10
    c970:	40a60633          	sub	a2,a2,a0
    c974:	00150593          	addi	a1,a0,1
    c978:	fff60613          	addi	a2,a2,-1
    c97c:	00b905b3          	add	a1,s2,a1
    c980:	00a90533          	add	a0,s2,a0
    c984:	9b9f30ef          	jal	33c <memmove>
    c988:	00245783          	lhu	a5,2(s0)
    c98c:	000086b7          	lui	a3,0x8
    c990:	00045603          	lhu	a2,0(s0)
    c994:	fff78793          	addi	a5,a5,-1
    c998:	00f41123          	sh	a5,2(s0)
    c99c:	00645783          	lhu	a5,6(s0)
    c9a0:	00d906b3          	add	a3,s2,a3
    c9a4:	fff78793          	addi	a5,a5,-1
    c9a8:	00f41323          	sh	a5,6(s0)
    c9ac:	00445783          	lhu	a5,4(s0)
    c9b0:	00178793          	addi	a5,a5,1
    c9b4:	01079793          	slli	a5,a5,0x10
    c9b8:	0107d793          	srli	a5,a5,0x10
    c9bc:	00179713          	slli	a4,a5,0x1
    c9c0:	00d70733          	add	a4,a4,a3
    c9c4:	00c7e863          	bltu	a5,a2,c9d4 <editCmd+0x4b4>
    c9c8:	00100793          	li	a5,1
    c9cc:	30f42623          	sw	a5,780(s0)
    c9d0:	c7dff06f          	j	c64c <editCmd+0x12c>
    c9d4:	00075683          	lhu	a3,0(a4) # 4000 <shellExtRun+0x15c>
    c9d8:	00178793          	addi	a5,a5,1
    c9dc:	01079793          	slli	a5,a5,0x10
    c9e0:	fff68693          	addi	a3,a3,-1 # 7fff <remove_chain+0x57>
    c9e4:	00d71023          	sh	a3,0(a4)
    c9e8:	0107d793          	srli	a5,a5,0x10
    c9ec:	00270713          	addi	a4,a4,2
    c9f0:	fd5ff06f          	j	c9c4 <editCmd+0x4a4>
    c9f4:	c4048ce3          	beqz	s1,c64c <editCmd+0x12c>
    c9f8:	fff48593          	addi	a1,s1,-1
    c9fc:	01059593          	slli	a1,a1,0x10
    ca00:	0105d593          	srli	a1,a1,0x10
    ca04:	00090513          	mv	a0,s2
    ca08:	859ff0ef          	jal	c260 <editor_line_length>
    ca0c:	000047b7          	lui	a5,0x4
    ca10:	00f484b3          	add	s1,s1,a5
    ca14:	00149493          	slli	s1,s1,0x1
    ca18:	009904b3          	add	s1,s2,s1
    ca1c:	0004d583          	lhu	a1,0(s1)
    ca20:	00245603          	lhu	a2,2(s0)
    ca24:	00050c93          	mv	s9,a0
    ca28:	fff58593          	addi	a1,a1,-1
    ca2c:	01059593          	slli	a1,a1,0x10
    ca30:	0105d593          	srli	a1,a1,0x10
    ca34:	02c5fa63          	bgeu	a1,a2,ca68 <editCmd+0x548>
    ca38:	00b90533          	add	a0,s2,a1
    ca3c:	00054703          	lbu	a4,0(a0)
    ca40:	00a00793          	li	a5,10
    ca44:	02f71263          	bne	a4,a5,ca68 <editCmd+0x548>
    ca48:	40b60633          	sub	a2,a2,a1
    ca4c:	00158593          	addi	a1,a1,1
    ca50:	fff60613          	addi	a2,a2,-1
    ca54:	00b905b3          	add	a1,s2,a1
    ca58:	8e5f30ef          	jal	33c <memmove>
    ca5c:	00245783          	lhu	a5,2(s0)
    ca60:	fff78793          	addi	a5,a5,-1 # 3fff <shellExtRun+0x15b>
    ca64:	00f41123          	sh	a5,2(s0)
    ca68:	00445783          	lhu	a5,4(s0)
    ca6c:	01941323          	sh	s9,6(s0)
    ca70:	fff78793          	addi	a5,a5,-1
    ca74:	00f41223          	sh	a5,4(s0)
    ca78:	ce5ff06f          	j	c75c <editCmd+0x23c>
    ca7c:	00075683          	lhu	a3,0(a4)
    ca80:	00178793          	addi	a5,a5,1
    ca84:	01079793          	slli	a5,a5,0x10
    ca88:	00168693          	addi	a3,a3,1
    ca8c:	00d71023          	sh	a3,0(a4)
    ca90:	0107d793          	srli	a5,a5,0x10
    ca94:	00270713          	addi	a4,a4,2
    ca98:	dadff06f          	j	c844 <editCmd+0x324>
    ca9c:	000a2783          	lw	a5,0(s4)
    caa0:	01812783          	lw	a5,24(sp)
    caa4:	00178793          	addi	a5,a5,1
    caa8:	00f12c23          	sw	a5,24(sp)
    caac:	bb9ff06f          	j	c664 <editCmd+0x144>
    cab0:	01c12703          	lw	a4,28(sp)
    cab4:	00170713          	addi	a4,a4,1
    cab8:	00e12e23          	sw	a4,28(sp)
    cabc:	bbdff06f          	j	c678 <editCmd+0x158>
    cac0:	00022537          	lui	a0,0x22
    cac4:	2ac50513          	addi	a0,a0,684 # 222ac <log_level_colors+0x1ac4>
    cac8:	ce8f40ef          	jal	fb0 <printf>
    cacc:	a9dff06f          	j	c568 <editCmd+0x48>

0000cad0 <editor_render>:
    cad0:	f2010113          	addi	sp,sp,-224
    cad4:	0c912a23          	sw	s1,212(sp)
    cad8:	00050493          	mv	s1,a0
    cadc:	00022537          	lui	a0,0x22
    cae0:	2bc50513          	addi	a0,a0,700 # 222bc <log_level_colors+0x1ad4>
    cae4:	0c112e23          	sw	ra,220(sp)
    cae8:	0d612023          	sw	s6,192(sp)
    caec:	0ba12823          	sw	s10,176(sp)
    caf0:	0c812c23          	sw	s0,216(sp)
    caf4:	0d212823          	sw	s2,208(sp)
    caf8:	0d312623          	sw	s3,204(sp)
    cafc:	0d412423          	sw	s4,200(sp)
    cb00:	0d512223          	sw	s5,196(sp)
    cb04:	0b712e23          	sw	s7,188(sp)
    cb08:	0b812c23          	sw	s8,184(sp)
    cb0c:	0b912a23          	sw	s9,180(sp)
    cb10:	0bb12623          	sw	s11,172(sp)
    cb14:	c9cf40ef          	jal	fb0 <printf>
    cb18:	00100613          	li	a2,1
    cb1c:	00022b37          	lui	s6,0x22
    cb20:	00060593          	mv	a1,a2
    cb24:	2ccb0513          	addi	a0,s6,716 # 222cc <log_level_colors+0x1ae4>
    cb28:	c88f40ef          	jal	fb0 <printf>
    cb2c:	00022d37          	lui	s10,0x22
    cb30:	2d8d0513          	addi	a0,s10,728 # 222d8 <log_level_colors+0x1af0>
    cb34:	c7cf40ef          	jal	fb0 <printf>
    cb38:	0000c7b7          	lui	a5,0xc
    cb3c:	00f487b3          	add	a5,s1,a5
    cb40:	30c7a783          	lw	a5,780(a5) # c30c <editor_build_line_offsets+0x44>
    cb44:	0000c6b7          	lui	a3,0xc
    cb48:	00a68693          	addi	a3,a3,10 # c00a <task_scheduler+0xe2>
    cb4c:	00d486b3          	add	a3,s1,a3
    cb50:	16078863          	beqz	a5,ccc0 <editor_render+0x1f0>
    cb54:	00022637          	lui	a2,0x22
    cb58:	2e860613          	addi	a2,a2,744 # 222e8 <log_level_colors+0x1b00>
    cb5c:	08000593          	li	a1,128
    cb60:	02010513          	addi	a0,sp,32
    cb64:	c18f40ef          	jal	f7c <snprintf>
    cb68:	00050413          	mv	s0,a0
    cb6c:	00022537          	lui	a0,0x22
    cb70:	02010593          	addi	a1,sp,32
    cb74:	28450513          	addi	a0,a0,644 # 22284 <log_level_colors+0x1a9c>
    cb78:	c38f40ef          	jal	fb0 <printf>
    cb7c:	0000c7b7          	lui	a5,0xc
    cb80:	00f487b3          	add	a5,s1,a5
    cb84:	3147a783          	lw	a5,788(a5) # c314 <editor_build_line_offsets+0x4c>
    cb88:	40878433          	sub	s0,a5,s0
    cb8c:	14804063          	bgtz	s0,cccc <editor_render+0x1fc>
    cb90:	00022cb7          	lui	s9,0x22
    cb94:	194c8513          	addi	a0,s9,404 # 22194 <log_level_colors+0x19ac>
    cb98:	c18f40ef          	jal	fb0 <printf>
    cb9c:	0000c7b7          	lui	a5,0xc
    cba0:	00f487b3          	add	a5,s1,a5
    cba4:	3107aa03          	lw	s4,784(a5) # c310 <editor_build_line_offsets+0x48>
    cba8:	ffea0a13          	addi	s4,s4,-2
    cbac:	01404463          	bgtz	s4,cbb4 <editor_render+0xe4>
    cbb0:	00100a13          	li	s4,1
    cbb4:	000227b7          	lui	a5,0x22
    cbb8:	32c78793          	addi	a5,a5,812 # 2232c <log_level_colors+0x1b44>
    cbbc:	00f12a23          	sw	a5,20(sp)
    cbc0:	000227b7          	lui	a5,0x22
    cbc4:	0000c937          	lui	s2,0xc
    cbc8:	2f878793          	addi	a5,a5,760 # 222f8 <log_level_colors+0x1b10>
    cbcc:	00000a93          	li	s5,0
    cbd0:	01248933          	add	s2,s1,s2
    cbd4:	00f12c23          	sw	a5,24(sp)
    cbd8:	00895403          	lhu	s0,8(s2) # c008 <task_scheduler+0xe0>
    cbdc:	00095783          	lhu	a5,0(s2)
    cbe0:	002a8593          	addi	a1,s5,2
    cbe4:	01540433          	add	s0,s0,s5
    cbe8:	01041413          	slli	s0,s0,0x10
    cbec:	01045413          	srli	s0,s0,0x10
    cbf0:	00100613          	li	a2,1
    cbf4:	2ccb0513          	addi	a0,s6,716
    cbf8:	20f47063          	bgeu	s0,a5,cdf8 <editor_render+0x328>
    cbfc:	bb4f40ef          	jal	fb0 <printf>
    cc00:	01812503          	lw	a0,24(sp)
    cc04:	00000993          	li	s3,0
    cc08:	00500c13          	li	s8,5
    cc0c:	ba4f40ef          	jal	fb0 <printf>
    cc10:	00022537          	lui	a0,0x22
    cc14:	00140613          	addi	a2,s0,1
    cc18:	00400593          	li	a1,4
    cc1c:	30050513          	addi	a0,a0,768 # 22300 <log_level_colors+0x1b18>
    cc20:	b90f40ef          	jal	fb0 <printf>
    cc24:	194c8513          	addi	a0,s9,404
    cc28:	b88f40ef          	jal	fb0 <printf>
    cc2c:	000047b7          	lui	a5,0x4
    cc30:	00f407b3          	add	a5,s0,a5
    cc34:	00179793          	slli	a5,a5,0x1
    cc38:	00f487b3          	add	a5,s1,a5
    cc3c:	0007d783          	lhu	a5,0(a5) # 4000 <shellExtRun+0x15c>
    cc40:	00040593          	mv	a1,s0
    cc44:	00048513          	mv	a0,s1
    cc48:	00f12823          	sw	a5,16(sp)
    cc4c:	e14ff0ef          	jal	c260 <editor_line_length>
    cc50:	00a12623          	sw	a0,12(sp)
    cc54:	00022537          	lui	a0,0x22
    cc58:	31c50513          	addi	a0,a0,796 # 2231c <log_level_colors+0x1b34>
    cc5c:	00495b83          	lhu	s7,4(s2)
    cc60:	00400d93          	li	s11,4
    cc64:	b4cf40ef          	jal	fb0 <printf>
    cc68:	00c12783          	lw	a5,12(sp)
    cc6c:	0af9d863          	bge	s3,a5,cd1c <editor_render+0x24c>
    cc70:	01741c63          	bne	s0,s7,cc88 <editor_render+0x1b8>
    cc74:	00695703          	lhu	a4,6(s2)
    cc78:	01371863          	bne	a4,s3,cc88 <editor_render+0x1b8>
    cc7c:	00022537          	lui	a0,0x22
    cc80:	30850513          	addi	a0,a0,776 # 22308 <log_level_colors+0x1b20>
    cc84:	b2cf40ef          	jal	fb0 <printf>
    cc88:	01012783          	lw	a5,16(sp)
    cc8c:	01378733          	add	a4,a5,s3
    cc90:	00e48733          	add	a4,s1,a4
    cc94:	00074503          	lbu	a0,0(a4)
    cc98:	00900793          	li	a5,9
    cc9c:	04f51c63          	bne	a0,a5,ccf4 <editor_render+0x224>
    cca0:	03bc6733          	rem	a4,s8,s11
    cca4:	40ed8733          	sub	a4,s11,a4
    cca8:	01870733          	add	a4,a4,s8
    ccac:	04ec0863          	beq	s8,a4,ccfc <editor_render+0x22c>
    ccb0:	31492683          	lw	a3,788(s2)
    ccb4:	02dc4463          	blt	s8,a3,ccdc <editor_render+0x20c>
    ccb8:	05740463          	beq	s0,s7,cd00 <editor_render+0x230>
    ccbc:	0640006f          	j	cd20 <editor_render+0x250>
    ccc0:	00022637          	lui	a2,0x22
    ccc4:	2f060613          	addi	a2,a2,752 # 222f0 <log_level_colors+0x1b08>
    ccc8:	e95ff06f          	j	cb5c <editor_render+0x8c>
    cccc:	02000513          	li	a0,32
    ccd0:	fff40413          	addi	s0,s0,-1
    ccd4:	b28f40ef          	jal	ffc <hal_sys_putchar>
    ccd8:	eb5ff06f          	j	cb8c <editor_render+0xbc>
    ccdc:	02000513          	li	a0,32
    cce0:	00e12e23          	sw	a4,28(sp)
    cce4:	b18f40ef          	jal	ffc <hal_sys_putchar>
    cce8:	01c12703          	lw	a4,28(sp)
    ccec:	001c0c13          	addi	s8,s8,1
    ccf0:	fbdff06f          	j	ccac <editor_render+0x1dc>
    ccf4:	b08f40ef          	jal	ffc <hal_sys_putchar>
    ccf8:	001c0c13          	addi	s8,s8,1
    ccfc:	01741c63          	bne	s0,s7,cd14 <editor_render+0x244>
    cd00:	00695703          	lhu	a4,6(s2)
    cd04:	00e99863          	bne	s3,a4,cd14 <editor_render+0x244>
    cd08:	00022537          	lui	a0,0x22
    cd0c:	31850513          	addi	a0,a0,792 # 22318 <log_level_colors+0x1b30>
    cd10:	aa0f40ef          	jal	fb0 <printf>
    cd14:	31492703          	lw	a4,788(s2)
    cd18:	0aec4a63          	blt	s8,a4,cdcc <editor_render+0x2fc>
    cd1c:	0b740c63          	beq	s0,s7,cdd4 <editor_render+0x304>
    cd20:	00022537          	lui	a0,0x22
    cd24:	32450513          	addi	a0,a0,804 # 22324 <log_level_colors+0x1b3c>
    cd28:	001a8a93          	addi	s5,s5,1
    cd2c:	a84f40ef          	jal	fb0 <printf>
    cd30:	eb5a14e3          	bne	s4,s5,cbd8 <editor_render+0x108>
    cd34:	0000c437          	lui	s0,0xc
    cd38:	00848433          	add	s0,s1,s0
    cd3c:	31042583          	lw	a1,784(s0) # c310 <editor_build_line_offsets+0x48>
    cd40:	00100613          	li	a2,1
    cd44:	2ccb0513          	addi	a0,s6,716
    cd48:	a68f40ef          	jal	fb0 <printf>
    cd4c:	31842783          	lw	a5,792(s0)
    cd50:	0a078a63          	beqz	a5,ce04 <editor_render+0x334>
    cd54:	00022537          	lui	a0,0x22
    cd58:	33850513          	addi	a0,a0,824 # 22338 <log_level_colors+0x1b50>
    cd5c:	a54f40ef          	jal	fb0 <printf>
    cd60:	00022537          	lui	a0,0x22
    cd64:	34850513          	addi	a0,a0,840 # 22348 <log_level_colors+0x1b60>
    cd68:	a48f40ef          	jal	fb0 <printf>
    cd6c:	0000c7b7          	lui	a5,0xc
    cd70:	00f487b3          	add	a5,s1,a5
    cd74:	3147a403          	lw	s0,788(a5) # c314 <editor_build_line_offsets+0x4c>
    cd78:	40a40433          	sub	s0,s0,a0
    cd7c:	0c804863          	bgtz	s0,ce4c <editor_render+0x37c>
    cd80:	194c8513          	addi	a0,s9,404
    cd84:	a2cf40ef          	jal	fb0 <printf>
    cd88:	0d812403          	lw	s0,216(sp)
    cd8c:	0dc12083          	lw	ra,220(sp)
    cd90:	0d412483          	lw	s1,212(sp)
    cd94:	0d012903          	lw	s2,208(sp)
    cd98:	0cc12983          	lw	s3,204(sp)
    cd9c:	0c812a03          	lw	s4,200(sp)
    cda0:	0c412a83          	lw	s5,196(sp)
    cda4:	0c012b03          	lw	s6,192(sp)
    cda8:	0bc12b83          	lw	s7,188(sp)
    cdac:	0b812c03          	lw	s8,184(sp)
    cdb0:	0b412c83          	lw	s9,180(sp)
    cdb4:	0b012d03          	lw	s10,176(sp)
    cdb8:	0ac12d83          	lw	s11,172(sp)
    cdbc:	00022537          	lui	a0,0x22
    cdc0:	3b050513          	addi	a0,a0,944 # 223b0 <log_level_colors+0x1bc8>
    cdc4:	0e010113          	addi	sp,sp,224
    cdc8:	9e8f406f          	j	fb0 <printf>
    cdcc:	00198993          	addi	s3,s3,1
    cdd0:	e99ff06f          	j	cc68 <editor_render+0x198>
    cdd4:	00695783          	lhu	a5,6(s2)
    cdd8:	00c15c03          	lhu	s8,12(sp)
    cddc:	f587e2e3          	bltu	a5,s8,cd20 <editor_render+0x250>
    cde0:	00022537          	lui	a0,0x22
    cde4:	30850513          	addi	a0,a0,776 # 22308 <log_level_colors+0x1b20>
    cde8:	9c8f40ef          	jal	fb0 <printf>
    cdec:	02000513          	li	a0,32
    cdf0:	a0cf40ef          	jal	ffc <hal_sys_putchar>
    cdf4:	f2dff06f          	j	cd20 <editor_render+0x250>
    cdf8:	9b8f40ef          	jal	fb0 <printf>
    cdfc:	01412503          	lw	a0,20(sp)
    ce00:	f29ff06f          	j	cd28 <editor_render+0x258>
    ce04:	31c42783          	lw	a5,796(s0)
    ce08:	00078e63          	beqz	a5,ce24 <editor_render+0x354>
    ce0c:	00022537          	lui	a0,0x22
    ce10:	33850513          	addi	a0,a0,824 # 22338 <log_level_colors+0x1b50>
    ce14:	99cf40ef          	jal	fb0 <printf>
    ce18:	00022537          	lui	a0,0x22
    ce1c:	37850513          	addi	a0,a0,888 # 22378 <log_level_colors+0x1b90>
    ce20:	f49ff06f          	j	cd68 <editor_render+0x298>
    ce24:	2d8d0513          	addi	a0,s10,728
    ce28:	988f40ef          	jal	fb0 <printf>
    ce2c:	00645603          	lhu	a2,6(s0)
    ce30:	00445583          	lhu	a1,4(s0)
    ce34:	00022537          	lui	a0,0x22
    ce38:	00160613          	addi	a2,a2,1
    ce3c:	00158593          	addi	a1,a1,1
    ce40:	38850513          	addi	a0,a0,904 # 22388 <log_level_colors+0x1ba0>
    ce44:	96cf40ef          	jal	fb0 <printf>
    ce48:	f25ff06f          	j	cd6c <editor_render+0x29c>
    ce4c:	02000513          	li	a0,32
    ce50:	fff40413          	addi	s0,s0,-1
    ce54:	9a8f40ef          	jal	ffc <hal_sys_putchar>
    ce58:	f25ff06f          	j	cd7c <editor_render+0x2ac>

0000ce5c <main>:
    ce5c:	fe010113          	addi	sp,sp,-32
    ce60:	00112e23          	sw	ra,28(sp)
    ce64:	00812c23          	sw	s0,24(sp)
    ce68:	984f40ef          	jal	fec <hal_sys_uart_init>
    ce6c:	0000d5b7          	lui	a1,0xd
    ce70:	00c00613          	li	a2,12
    ce74:	f5458593          	addi	a1,a1,-172 # cf54 <main+0xf8>
    ce78:	00410513          	addi	a0,sp,4
    ce7c:	b34f30ef          	jal	1b0 <memcpy>
    ce80:	00410513          	addi	a0,sp,4
    ce84:	b44f70ef          	jal	41c8 <set_fnode>
    ce88:	b4cf70ef          	jal	41d4 <create_shell_env_varible>
    ce8c:	819f70ef          	jal	46a4 <load_shell>
    ce90:	000217b7          	lui	a5,0x21
    ce94:	8bc78413          	addi	s0,a5,-1860 # 208bc <log_level_colors+0xd4>
    ce98:	00040513          	mv	a0,s0
    ce9c:	914f40ef          	jal	fb0 <printf>
    cea0:	ff9ff06f          	j	ce98 <main+0x3c>
    cea4:	0a3c                	.insn	2, 0x0a3c
    cea6:	0000                	.insn	2, 0x0000
    cea8:	0b38                	.insn	2, 0x0b38
    ceaa:	0000                	.insn	2, 0x0000
    ceac:	09f0                	.insn	2, 0x09f0
    ceae:	0000                	.insn	2, 0x0000
    ceb0:	09f0                	.insn	2, 0x09f0
    ceb2:	0000                	.insn	2, 0x0000
    ceb4:	09f0                	.insn	2, 0x09f0
    ceb6:	0000                	.insn	2, 0x0000
    ceb8:	09f0                	.insn	2, 0x09f0
    ceba:	0000                	.insn	2, 0x0000
    cebc:	0b38                	.insn	2, 0x0b38
    cebe:	0000                	.insn	2, 0x0000
    cec0:	09f0                	.insn	2, 0x09f0
    cec2:	0000                	.insn	2, 0x0000
    cec4:	09f0                	.insn	2, 0x09f0
    cec6:	0000                	.insn	2, 0x0000
    cec8:	0ae0                	.insn	2, 0x0ae0
    ceca:	0000                	.insn	2, 0x0000
    cecc:	09f0                	.insn	2, 0x09f0
    cece:	0000                	.insn	2, 0x0000
    ced0:	09f0                	.insn	2, 0x09f0
    ced2:	0000                	.insn	2, 0x0000
    ced4:	09f0                	.insn	2, 0x09f0
    ced6:	0000                	.insn	2, 0x0000
    ced8:	0aa8                	.insn	2, 0x0aa8
    ceda:	0000                	.insn	2, 0x0000
    cedc:	09f0                	.insn	2, 0x09f0
    cede:	0000                	.insn	2, 0x0000
    cee0:	09f0                	.insn	2, 0x09f0
    cee2:	0000                	.insn	2, 0x0000
    cee4:	0a50                	.insn	2, 0x0a50
    cee6:	0000                	.insn	2, 0x0000
    cee8:	09f0                	.insn	2, 0x09f0
    ceea:	0000                	.insn	2, 0x0000
    ceec:	0b38                	.insn	2, 0x0b38
    ceee:	0000                	.insn	2, 0x0000
    cef0:	09f0                	.insn	2, 0x09f0
    cef2:	0000                	.insn	2, 0x0000
    cef4:	09f0                	.insn	2, 0x09f0
    cef6:	0000                	.insn	2, 0x0000
    cef8:	0a78                	.insn	2, 0x0a78
    cefa:	0000                	.insn	2, 0x0000
    cefc:	0c94                	.insn	2, 0x0c94
    cefe:	0000                	.insn	2, 0x0000
    cf00:	0d08                	.insn	2, 0x0d08
    cf02:	0000                	.insn	2, 0x0000
    cf04:	0c3c                	.insn	2, 0x0c3c
    cf06:	0000                	.insn	2, 0x0000
    cf08:	0c3c                	.insn	2, 0x0c3c
    cf0a:	0000                	.insn	2, 0x0000
    cf0c:	0c3c                	.insn	2, 0x0c3c
    cf0e:	0000                	.insn	2, 0x0000
    cf10:	0c3c                	.insn	2, 0x0c3c
    cf12:	0000                	.insn	2, 0x0000
    cf14:	0d08                	.insn	2, 0x0d08
    cf16:	0000                	.insn	2, 0x0000
    cf18:	0c3c                	.insn	2, 0x0c3c
    cf1a:	0000                	.insn	2, 0x0000
    cf1c:	0c3c                	.insn	2, 0x0c3c
    cf1e:	0000                	.insn	2, 0x0000
    cf20:	0e94                	.insn	2, 0x0e94
    cf22:	0000                	.insn	2, 0x0000
    cf24:	0c3c                	.insn	2, 0x0c3c
    cf26:	0000                	.insn	2, 0x0000
    cf28:	0c3c                	.insn	2, 0x0c3c
    cf2a:	0000                	.insn	2, 0x0000
    cf2c:	0c3c                	.insn	2, 0x0c3c
    cf2e:	0000                	.insn	2, 0x0000
    cf30:	0e08                	.insn	2, 0x0e08
    cf32:	0000                	.insn	2, 0x0000
    cf34:	0c3c                	.insn	2, 0x0c3c
    cf36:	0000                	.insn	2, 0x0000
    cf38:	0c3c                	.insn	2, 0x0c3c
    cf3a:	0000                	.insn	2, 0x0000
    cf3c:	0cc0                	.insn	2, 0x0cc0
    cf3e:	0000                	.insn	2, 0x0000
    cf40:	0c3c                	.insn	2, 0x0c3c
    cf42:	0000                	.insn	2, 0x0000
    cf44:	0d4c                	.insn	2, 0x0d4c
    cf46:	0000                	.insn	2, 0x0000
    cf48:	0c3c                	.insn	2, 0x0c3c
    cf4a:	0000                	.insn	2, 0x0000
    cf4c:	0c3c                	.insn	2, 0x0c3c
    cf4e:	0000                	.insn	2, 0x0000
    cf50:	0d88                	.insn	2, 0x0d88
    cf52:	0000                	.insn	2, 0x0000
    cf54:	1ff0                	.insn	2, 0x1ff0
    cf56:	0000                	.insn	2, 0x0000
    cf58:	08d4                	.insn	2, 0x08d4
    cf5a:	0002                	.insn	2, 0x0002
    cf5c:	0000                	.insn	2, 0x0000
	...

0000cf60 <__FUNCTION__.1>:
    cf60:	6673 6475 725f 6165 5f64 7473 7461 7375     sfud_read_status
    cf70:	0000 0000                                   ....

0000cf74 <__FUNCTION__.8>:
    cf74:	6673 6475 725f 6165 0064 0000               sfud_read...

0000cf80 <__FUNCTION__.10>:
    cf80:	6573 5f74 7277 7469 5f65 6e65 6261 656c     set_write_enable
    cf90:	0064 0000                                   d...

0000cf94 <__FUNCTION__.6>:
    cf94:	6673 6475 635f 6968 5f70 7265 7361 0065     sfud_chip_erase.

0000cfa4 <__FUNCTION__.5>:
    cfa4:	6673 6475 655f 6172 6573 0000               sfud_erase..

0000cfb0 <__FUNCTION__.4>:
    cfb0:	6170 6567 3532 5f36 726f 315f 625f 7479     page256_or_1_byt
    cfc0:	5f65 7277 7469 0065                         e_write.

0000cfc8 <__FUNCTION__.2>:
    cfc8:	6161 5f69 7277 7469 0065 0000               aai_write...

0000cfd4 <__FUNCTION__.0>:
    cfd4:	6673 6475 775f 6972 6574 735f 6174 7574     sfud_write_statu
    cfe4:	0073 0000                                   s...

0000cfe8 <__FUNCTION__.15>:
    cfe8:	6168 6472 6177 6572 695f 696e 0074 0000     hardware_init...

0000cff8 <flash_chip_table>:
    cff8:	0d54 0002 261f 0000 0000 0020 000a 0000     T....&.... .....
    d008:	0200 0000 0081 0000 0d60 0002 40ef 0013     ........`....@..
    d018:	0000 0008 0001 0000 1000 0000 0020 0000     ............ ...
    d028:	0d6c 0002 40ef 0015 0000 0020 0001 0000     l....@.... .....
    d038:	1000 0000 0020 0000 0d78 0002 40ef 0016     .... ...x....@..
    d048:	0000 0040 0001 0000 1000 0000 0020 0000     ..@......... ...
    d058:	0d84 0002 40ef 0017 0000 0080 0001 0000     .....@..........
    d068:	1000 0000 0020 0000 0d90 0002 60ef 0017     .... ........`..
    d078:	0000 0080 0001 0000 1000 0000 0020 0000     ............ ...
    d088:	0d9c 0002 40ef 0018 0000 0100 0001 0000     .....@..........
    d098:	1000 0000 0020 0000 0da8 0002 40ef 0019     .... ........@..
    d0a8:	0000 0200 0001 0000 1000 0000 0020 0000     ............ ...
    d0b8:	0db4 0002 25bf 008e 0000 0010 0006 0000     .....%..........
    d0c8:	1000 0000 0020 0000 0dc0 0002 25bf 0041     .... ........%A.
    d0d8:	0000 0020 0006 0000 1000 0000 0020 0000     .. ......... ...
    d0e8:	0dcc 0002 2020 0016 0000 0040 0001 0000     ....  ....@.....
    d0f8:	0000 0001 00d8 0000 0dd4 0002 2020 0014     ............  ..
    d108:	0000 0010 0001 0000 0000 0001 00d8 0000     ................
    d118:	0ddc 0002 2020 0013 0000 0008 0001 0000     ....  ..........
    d128:	0000 0001 00d8 0000 0de4 0002 301c 0016     .............0..
    d138:	0000 0040 0001 0000 1000 0000 0020 0000     ..@......... ...
    d148:	0df0 0002 40c8 0017 0000 0080 0001 0000     .....@..........
    d158:	1000 0000 0020 0000 0dfc 0002 40c8 0015     .... ........@..
    d168:	0000 0020 0001 0000 1000 0000 0020 0000     .. ......... ...
    d178:	0e08 0002 4001 0015 0000 0020 0001 0000     .....@.... .....
    d188:	1000 0000 0020 0000 0e14 0002 0201 0015     .... ...........
    d198:	0000 0040 0001 0000 1000 0000 0020 0000     ..@......... ...
    d1a8:	0e20 0002 3037 0014 0000 0010 0001 0000      ...70..........
    d1b8:	1000 0000 0020 0000 0e28 0002 208c 0013     .... ...(.... ..
    d1c8:	0000 0008 0006 0000 1000 0000 0020 0000     ............ ...
    d1d8:	0e30 0002 25bf 0041 0000 0020 0006 0000     0....%A... .....
    d1e8:	1000 0000 0020 0000                         .... ...

0000d1f0 <mf_table>:
    d1f0:	0e3c 0002 0001 0000 0e44 0002 0004 0000     <.......D.......
    d200:	0e4c 0002 001c 0000 0e50 0002 001f 0000     L.......P.......
    d210:	0e58 0002 0020 0000 0e60 0002 0037 0000     X... ...`...7...
    d220:	0e68 0002 0062 0000 0e70 0002 0089 0000     h...b...p.......
    d230:	0e78 0002 008c 0000 0e80 0002 00a1 0000     x...............
    d240:	0e88 0002 00ad 0000 0e90 0002 00bf 0000     ................
    d250:	0e94 0002 00c8 0000 0ea0 0002 00d5 0000     ................
    d260:	0ea8 0002 00ef 0000 0eb0 0002 00c2 0000     ................

0000d270 <__FUNCTION__.3>:
    d270:	6572 6461 735f 6466 5f70 6164 6174 0000     read_sfdp_data..

0000d280 <__FUNCTION__.5>:
    d280:	6673 6475 725f 6165 5f64 6673 7064 0000     sfud_read_sfdp..

0000d290 <__FUNCTION__.0>:
    d290:	6673 6475 735f 6466 5f70 6567 5f74 7573     sfud_sfdp_get_su
    d2a0:	7469 6261 656c 655f 6172 6573 0072 0000     itable_eraser...
    d2b0:	3f58 0000 3f7c 0000 3fa4 0000 3fd0 0000     X?..|?...?...?..
    d2c0:	4000 0000 4034 0000 406c 0000 40a8 0000     .@..4@..l@...@..
    d2d0:	4946 414e 784c 0000 0000 0000 3a30 7325     FINALx......0:%s
    d2e0:	7325 0000 6964 3d72 7325 0a0d 0000 0000     %s..dir=%s......
    d2f0:	7953 7473 6d65 6c2f 7465 6574 2d72 6873     System/letter-sh
    d300:	6c65 2f6c 7273 2f63 6873 6c65 5f6c 6f70     ell/src/shell_po
    d310:	7472 632e 0000 0000 7566 6c6c 253d 0d73     rt.c....full=%s.
    d320:	000a 0000 5f66 6567 6374 6477 6620 6961     ....f_getcwd fai
    d330:	656c 3a64 2520 0d64 000a 0000 5f66 6863     led: %d.....f_ch
    d340:	6964 2072 6166 6c69 6465 203a 6425 0a0d     dir failed: %d..
    d350:	0000 0000 5f66 706f 6e65 6964 2072 6166     ....f_opendir fa
    d360:	6c69 6465 203a 6425 0a0d 0000 0a0d 2e2e     iled: %d........
    d370:	202e 6228 6675 6566 2072 7566 6c6c 0d29     . (buffer full).
    d380:	000a 0000 445b 5249 205d 2520 0d73 000a     ....[DIR]  %s...
    d390:	465b 4c49 5d45 2520 2073 2820 6c25 2075     [FILE] %s  (%lu 
    d3a0:	7962 6574 2973 0a0d 0000 0000 5f66 706f     bytes)......f_op
    d3b0:	6e65 6620 6961 656c 3a64 2520 0d64 000a     en failed: %d...

0000d3c0 <shellCommandList>:
    d3c0:	0800 0000 1690 0002 2274 0002 169c 0002     ........t"......
    d3d0:	0100 0000 16ac 0002 5a88 0000 16b4 0002     .........Z......
    d3e0:	0900 0000 4100 1b5b 5fe0 0000 16bc 0002     .....A[.._......
    d3f0:	0900 0000 4200 1b5b 609c 0000 16c0 0002     .....B[..`......
    d400:	1900 0000 4300 1b5b 613c 0000 16c8 0002     .....C[.<a......
    d410:	1900 0000 4400 1b5b 6168 0000 16d0 0002     .....D[.ha......
    d420:	0900 0000 0000 0900 61ac 0000 16d8 0002     .........a......
    d430:	1900 0000 0000 0800 6410 0000 16dc 0002     .........d......
    d440:	1900 0000 0000 7f00 6418 0000 16e8 0002     .........d......
    d450:	1900 0000 337e 1b5b 6418 0000 16e8 0002     ....~3[..d......
    d460:	1900 0000 0000 0a00 6420 0000 16f0 0002     ........ d......
    d470:	1900 0000 0000 0d00 6420 0000 16f0 0002     ........ d......
    d480:	2000 0000 16f8 0002 6440 0000 1700 0002     . ......@d......
    d490:	2100 0000 1720 0002 6730 0000 1728 0002     .!.. ...0g..(...
    d4a0:	2100 0000 1738 0002 6758 0000 1740 0002     .!..8...Xg..@...
    d4b0:	2100 0000 1750 0002 6780 0000 1758 0002     .!..P....g..X...
    d4c0:	2100 0000 1768 0002 67a8 0000 1770 0002     .!..h....g..p...
    d4d0:	2100 0000 1780 0002 67d0 0000 1788 0002     .!.......g......
    d4e0:	2100 0000 1798 0002 67d0 0000 1788 0002     .!.......g......
    d4f0:	2100 0000 179c 0002 4918 0000 17a0 0002     .!.......I......
    d500:	2100 0000 17b8 0002 483c 0000 17bc 0002     .!......<H......
    d510:	2100 0000 17cc 0002 4794 0000 17d0 0002     .!.......G......
    d520:	2100 0000 17dc 0002 48a0 0000 17e4 0002     .!.......H......
    d530:	2000 0000 17f8 0002 c520 0000 1800 0002     . ...... .......
    d540:	2100 0000 181c 0002 0000 0000 1824 0002     .!..........$...
    d550:	0200 0000 183c 0002 f374 3000 1844 0002     ....<...t..0D...
    d560:	0300 0000 1860 0002 f372 3000 1844 0002     ....`...r..0D...
    d570:	0500 0000 186c 0002 0184 3000 1844 0002     ....l......0D...
    d580:	0400 0000 1878 0002 f370 3000 1844 0002     ....x...p..0D...
    d590:	0200 0000 1880 0002 f36c 3000 1844 0002     ........l..0D...
    d5a0:	2000 0000 1888 0002 68a4 0000 1890 0002     . .......h......
    d5b0:	5834 0000 5840 0000 584c 0000 5858 0000     4X..@X..LX..XX..
    d5c0:	5858 0000 5860 0000 5a0c 0000 5a30 0000     XX..`X...Z..0Z..
    d5d0:	5a3c 0000 5a48 0000 5a54 0000 5a60 0000     <Z..HZ..TZ..`Z..
    d5e0:	6d40 0000 6d58 0000 6d70 0000 6d78 0000     @m..Xm..pm..xm..
    d5f0:	6d80 0000 6d88 0000 6d90 0000 6d98 0000     .m...m...m...m..
    d600:	6da0 0000                                   .m..

0000d604 <cvt2.0>:
    d604:	1d7d 0001 2c63 1e00 0196 1ea0 015a 1f00     }...c,......Z...
    d614:	0608 1f10 0606 1f20 0608 1f30 0608 1f40     ...... ...0...@.
    d624:	0606 1f51 0007 1f59 1f52 1f5b 1f54 1f5d     ..Q...Y.R.[.T.].
    d634:	1f56 1f5f 1f60 0608 1f70 000e 1fba 1fbb     V._.`...p.......
    d644:	1fc8 1fc9 1fca 1fcb 1fda 1fdb 1ff8 1ff9     ................
    d654:	1fea 1feb 1ffa 1ffb 1f80 0608 1f90 0608     ................
    d664:	1fa0 0608 1fb0 0004 1fb8 1fb9 1fb2 1fbc     ................
    d674:	1fcc 0001 1fc3 1fd0 0602 1fe0 0602 1fe5     ................
    d684:	0001 1fec 1ff3 0001 1ffc 214e 0001 2132     ..........N!..2!
    d694:	2170 0210 2184 0001 2183 24d0 051a 2c30     p!...!...!.$..0,
    d6a4:	042f 2c60 0102 2c67 0106 2c75 0102 2c80     /.`,..g,..u,...,
    d6b4:	0164 2d00 0826 ff41 031a 0000               d..-&.A.....

0000d6c0 <cvt1.1>:
    d6c0:	0061 031a 00e0 0317 00f8 0307 00ff 0001     a...............
    d6d0:	0178 0100 0130 0132 0106 0139 0110 014a     x...0.2...9...J.
    d6e0:	012e 0179 0106 0180 004d 0243 0181 0182     ..y.....M.C.....
    d6f0:	0182 0184 0184 0186 0187 0187 0189 018a     ................
    d700:	018b 018b 018d 018e 018f 0190 0191 0191     ................
    d710:	0193 0194 01f6 0196 0197 0198 0198 023d     ..............=.
    d720:	019b 019c 019d 0220 019f 01a0 01a0 01a2     ...... .........
    d730:	01a2 01a4 01a4 01a6 01a7 01a7 01a9 01aa     ................
    d740:	01ab 01ac 01ac 01ae 01af 01af 01b1 01b2     ................
    d750:	01b3 01b3 01b5 01b5 01b7 01b8 01b8 01ba     ................
    d760:	01bb 01bc 01bc 01be 01f7 01c0 01c1 01c2     ................
    d770:	01c3 01c4 01c5 01c4 01c7 01c8 01c7 01ca     ................
    d780:	01cb 01ca 01cd 0110 01dd 0001 018e 01de     ................
    d790:	0112 01f3 0003 01f1 01f4 01f4 01f8 0128     ..............(.
    d7a0:	0222 0112 023a 0009 2c65 023b 023b 023d     "...:...e,;.;.=.
    d7b0:	2c66 023f 0240 0241 0241 0246 010a 0253     f,?.@.A.A.F...S.
    d7c0:	0040 0181 0186 0255 0189 018a 0258 018f     @.....U.....X...
    d7d0:	025a 0190 025c 025d 025e 025f 0193 0261     Z...\.].^._...a.
    d7e0:	0262 0194 0264 0265 0266 0267 0197 0196     b...d.e.f.g.....
    d7f0:	026a 2c62 026c 026d 026e 019c 0270 0271     j.b,l.m.n...p.q.
    d800:	019d 0273 0274 019f 0276 0277 0278 0279     ..s.t...v.w.x.y.
    d810:	027a 027b 027c 2c64 027e 027f 01a6 0281     z.{.|.d,~.......
    d820:	0282 01a9 0284 0285 0286 0287 01ae 0244     ..............D.
    d830:	01b1 01b2 0245 028d 028e 028f 0290 0291     ....E...........
    d840:	01b7 037b 0003 03fd 03fe 03ff 03ac 0004     ..{.............
    d850:	0386 0388 0389 038a 03b1 0311 03c2 0002     ................
    d860:	03a3 03a3 03c4 0308 03cc 0003 038c 038e     ................
    d870:	038f 03d8 0118 03f2 000a 03f9 03f3 03f4     ................
    d880:	03f5 03f6 03f7 03f7 03f9 03fa 03fa 0430     ..............0.
    d890:	0320 0450 0710 0460 0122 048a 0136 04c1      .P...`."...6...
    d8a0:	010e 04cf 0001 04c0 04d0 0144 0561 0426     ..........D.a.&.
    d8b0:	0000 0000                                   ....

0000d8b4 <oem2uni950>:
    d8b4:	3000 ff0c 3001 3002 ff0e 2027 ff1b ff1a     .0...0.0..' ....
    d8c4:	ff1f ff01 fe30 2026 2025 fe50 fe51 fe52     ....0.& % P.Q.R.
    d8d4:	00b7 fe54 fe55 fe56 fe57 ff5c 2013 fe31     ..T.U.V.W.\.. 1.
    d8e4:	2014 fe33 2574 fe34 fe4f ff08 ff09 fe35     . 3.t%4.O.....5.
    d8f4:	fe36 ff5b ff5d fe37 fe38 3014 3015 fe39     6.[.].7.8..0.09.
    d904:	fe3a 3010 3011 fe3b fe3c 300a 300b fe3d     :..0.0;.<..0.0=.
    d914:	fe3e 3008 3009 fe3f fe40 300c 300d fe41     >..0.0?.@..0.0A.
    d924:	fe42 300e 300f fe43 fe44 fe59 fe5a fe5b     B..0.0C.D.Y.Z.[.
    d934:	fe5c fe5d fe5e 2018 2019 201c 201d 301d     \.].^.. . . . .0
    d944:	301e 2035 2032 ff03 ff06 ff0a 203b 00a7     .05 2 ......; ..
    d954:	3003 25cb 25cf 25b3 25b2 25ce 2606 2605     .0.%.%.%.%.%.&.&
    d964:	25c7 25c6 25a1 25a0 25bd 25bc 32a3 2105     .%.%.%.%.%.%.2.!
    d974:	00af ffe3 ff3f 02cd fe49 fe4a fe4d fe4e     ....?...I.J.M.N.
    d984:	fe4b fe4c fe5f fe60 fe61 ff0b ff0d 00d7     K.L._.`.a.......
    d994:	00f7 00b1 221a ff1c ff1e ff1d 2266 2267     ....."......f"g"
    d9a4:	2260 221e 2252 2261 fe62 fe63 fe64 fe65     `"."R"a"b.c.d.e.
    d9b4:	fe66 ff5e 2229 222a 22a5 2220 221f 22bf     f.^.)"*"." "."."
    d9c4:	33d2 33d1 222b 222e 2235 2234 2640 2642     .3.3+"."5"4"@&B&
    d9d4:	2295 2299 2191 2193 2190 2192 2196 2197     .".".!.!.!.!.!.!
    d9e4:	2199 2198 2225 2223 ff0f ff3c 2215 fe68     .!.!%"#"..<.."h.
    d9f4:	ff04 ffe5 3012 ffe0 ffe1 ff05 ff20 2103     .....0...... ..!
    da04:	2109 fe69 fe6a fe6b 33d5 339c 339d 339e     .!i.j.k..3.3.3.3
    da14:	33ce 33a1 338e 338f 33c4 00b0 5159 515b     .3.3.3.3.3..YQ[Q
    da24:	515e 515d 5161 5163 55e7 74e9 7cce 2581     ^Q]QaQcQ.U.t.|.%
    da34:	2582 2583 2584 2585 2586 2587 2588 258f     .%.%.%.%.%.%.%.%
    da44:	258e 258d 258c 258b 258a 2589 253c 2534     .%.%.%.%.%.%<%4%
    da54:	252c 2524 251c 2594 2500 2502 2595 250c     ,%$%.%.%.%.%.%.%
    da64:	2510 2514 2518 256d 256e 2570 256f 2550     .%.%.%m%n%p%o%P%
    da74:	255e 256a 2561 25e2 25e3 25e5 25e4 2571     ^%j%a%.%.%.%.%q%
    da84:	2572 2573 ff10 ff11 ff12 ff13 ff14 ff15     r%s%............
    da94:	ff16 ff17 ff18 ff19 2160 2161 2162 2163     ........`!a!b!c!
    daa4:	2164 2165 2166 2167 2168 2169 3021 3022     d!e!f!g!h!i!!0"0
    dab4:	3023 3024 3025 3026 3027 3028 3029 5341     #0$0%0&0'0(0)0AS
    dac4:	5344 5345 ff21 ff22 ff23 ff24 ff25 ff26     DSES!.".#.$.%.&.
    dad4:	ff27 ff28 ff29 ff2a ff2b ff2c ff2d ff2e     '.(.).*.+.,.-...
    dae4:	ff2f ff30 ff31 ff32 ff33 ff34 ff35 ff36     /.0.1.2.3.4.5.6.
    daf4:	ff37 ff38 ff39 ff3a ff41 ff42 ff43 ff44     7.8.9.:.A.B.C.D.
    db04:	ff45 ff46 ff47 ff48 ff49 ff4a ff4b ff4c     E.F.G.H.I.J.K.L.
    db14:	ff4d ff4e ff4f ff50 ff51 ff52 ff53 ff54     M.N.O.P.Q.R.S.T.
    db24:	ff55 ff56 ff57 ff58 ff59 ff5a 0391 0392     U.V.W.X.Y.Z.....
    db34:	0393 0394 0395 0396 0397 0398 0399 039a     ................
    db44:	039b 039c 039d 039e 039f 03a0 03a1 03a3     ................
    db54:	03a4 03a5 03a6 03a7 03a8 03a9 03b1 03b2     ................
    db64:	03b3 03b4 03b5 03b6 03b7 03b8 03b9 03ba     ................
    db74:	03bb 03bc 03bd 03be 03bf 03c0 03c1 03c3     ................
    db84:	03c4 03c5 03c6 03c7 03c8 03c9 3105 3106     .............1.1
    db94:	3107 3108 3109 310a 310b 310c 310d 310e     .1.1.1.1.1.1.1.1
    dba4:	310f 3110 3111 3112 3113 3114 3115 3116     .1.1.1.1.1.1.1.1
    dbb4:	3117 3118 3119 311a 311b 311c 311d 311e     .1.1.1.1.1.1.1.1
    dbc4:	311f 3120 3121 3122 3123 3124 3125 3126     .1 1!1"1#1$1%1&1
    dbd4:	3127 3128 3129 02d9 02c9 02ca 02c7 02cb     '1(1)1..........
	...
    dc24:	0000 20ac 0000 0000 0000 0000 0000 0000     ... ............
	...
    dc60:	0000 4e00 4e59 4e01 4e03 4e43 4e5d 4e86     ...NYN.N.NCN]N.N
    dc70:	4e8c 4eba 513f 5165 516b 51e0 5200 5201     .N.N?QeQkQ.Q.R.R
    dc80:	529b 5315 5341 535c 53c8 4e09 4e0b 4e08     .R.SAS\S.S.N.N.N
    dc90:	4e0a 4e2b 4e38 51e1 4e45 4e48 4e5f 4e5e     .N+N8N.QENHN_N^N
    dca0:	4e8e 4ea1 5140 5203 52fa 5343 53c9 53e3     .N.N@Q.R.RCS.S.S
    dcb0:	571f 58eb 5915 5927 5973 5b50 5b51 5b53     .W.X.Y'YsYP[Q[S[
    dcc0:	5bf8 5c0f 5c22 5c38 5c71 5ddd 5de5 5df1     .[.\"\8\q\.].].]
    dcd0:	5df2 5df3 5dfe 5e72 5efe 5f0b 5f13 624d     .].].]r^.^._._Mb
    dce0:	4e11 4e10 4e0d 4e2d 4e30 4e39 4e4b 5c39     .N.N.N-N0N9NKN9\
    dcf0:	4e88 4e91 4e95 4e92 4e94 4ea2 4ec1 4ec0     .N.N.N.N.N.N.N.N
    dd00:	4ec3 4ec6 4ec7 4ecd 4eca 4ecb 4ec4 5143     .N.N.N.N.N.N.NCQ
    dd10:	5141 5167 516d 516e 516c 5197 51f6 5206     AQgQmQnQlQ.Q.Q.R
    dd20:	5207 5208 52fb 52fe 52ff 5316 5339 5348     .R.R.R.R.R.S9SHS
    dd30:	5347 5345 535e 5384 53cb 53ca 53cd 58ec     GSES^S.S.S.S.S.X
    dd40:	5929 592b 592a 592d 5b54 5c11 5c24 5c3a     )Y+Y*Y-YT[.\$\:\
    dd50:	5c6f 5df4 5e7b 5eff 5f14 5f15 5fc3 6208     o\.]{^.^._._._.b
    dd60:	6236 624b 624e 652f 6587 6597 65a4 65b9     6bKbNb/e.e.e.e.e
    dd70:	65e5 66f0 6708 6728 6b20 6b62 6b79 6bcb     .e.f.g(g kbkyk.k
    dd80:	6bd4 6bdb 6c0f 6c34 706b 722a 7236 723b     .k.k.l4lkp*r6r;r
    dd90:	7247 7259 725b 72ac 738b 4e19 4e16 4e15     GrYr[r.r.s.N.N.N
    dda0:	4e14 4e18 4e3b 4e4d 4e4f 4e4e 4ee5 4ed8     .N.N;NMNONNN.N.N
    ddb0:	4ed4 4ed5 4ed6 4ed7 4ee3 4ee4 4ed9 4ede     .N.N.N.N.N.N.N.N
    ddc0:	5145 5144 5189 518a 51ac 51f9 51fa 51f8     EQDQ.Q.Q.Q.Q.Q.Q
    ddd0:	520a 52a0 529f 5305 5306 5317 531d 4edf     .R.R.R.S.S.S.S.N
    dde0:	534a 5349 5361 5360 536f 536e 53bb 53ef     JSISaS`SoSnS.S.S
    ddf0:	53e4 53f3 53ec 53ee 53e9 53e8 53fc 53f8     .S.S.S.S.S.S.S.S
    de00:	53f5 53eb 53e6 53ea 53f2 53f1 53f0 53e5     .S.S.S.S.S.S.S.S
    de10:	53ed 53fb 56db 56da 5916 592e 5931 5974     .S.S.V.V.Y.Y1YtY
    de20:	5976 5b55 5b83 5c3c 5de8 5de7 5de6 5e02     vYU[.[<\.].].].^
    de30:	5e03 5e73 5e7c 5f01 5f18 5f17 5fc5 620a     .^s^|^._._._._.b
    de40:	6253 6254 6252 6251 65a5 65e6 672e 672c     SbTbRbQb.e.e.g,g
    de50:	672a 672b 672d 6b63 6bcd 6c11 6c10 6c38     *g+g-gck.k.l.l8l
    de60:	6c41 6c40 6c3e 72af 7384 7389 74dc 74e6     Al@l>l.r.s.s.t.t
    de70:	7518 751f 7528 7529 7530 7531 7532 7533     .u.u(u)u0u1u2u3u
    de80:	758b 767d 76ae 76bf 76ee 77db 77e2 77f3     .u}v.v.v.v.w.w.w
    de90:	793a 79be 7a74 7acb 4e1e 4e1f 4e52 4e53     :y.ytz.z.N.NRNSN
    dea0:	4e69 4e99 4ea4 4ea6 4ea5 4eff 4f09 4f19     iN.N.N.N.N.N.O.O
    deb0:	4f0a 4f15 4f0d 4f10 4f11 4f0f 4ef2 4ef6     .O.O.O.O.O.O.N.N
    dec0:	4efb 4ef0 4ef3 4efd 4f01 4f0b 5149 5147     .N.N.N.N.O.OIQGQ
    ded0:	5146 5148 5168 5171 518d 51b0 5217 5211     FQHQhQqQ.Q.Q.R.R
    dee0:	5212 520e 5216 52a3 5308 5321 5320 5370     .R.R.R.R.S!S SpS
    def0:	5371 5409 540f 540c 540a 5410 5401 540b     qS.T.T.T.T.T.T.T
    df00:	5404 5411 540d 5408 5403 540e 5406 5412     .T.T.T.T.T.T.T.T
    df10:	56e0 56de 56dd 5733 5730 5728 572d 572c     .V.V.V3W0W(W-W,W
    df20:	572f 5729 5919 591a 5937 5938 5984 5978     /W)W.Y.Y7Y8Y.YxY
    df30:	5983 597d 5979 5982 5981 5b57 5b58 5b87     .Y}YyY.Y.YW[X[.[
    df40:	5b88 5b85 5b89 5bfa 5c16 5c79 5dde 5e06     .[.[.[.[.\y\.].^
    df50:	5e76 5e74 5f0f 5f1b 5fd9 5fd6 620e 620c     v^t^._._._._.b.b
    df60:	620d 6210 6263 625b 6258 6536 65e9 65e8     .b.bcb[bXb6e.e.e
    df70:	65ec 65ed 66f2 66f3 6709 673d 6734 6731     .e.e.f.f.g=g4g1g
    df80:	6735 6b21 6b64 6b7b 6c16 6c5d 6c57 6c59     5g!kdk{k.l]lWlYl
    df90:	6c5f 6c60 6c50 6c55 6c61 6c5b 6c4d 6c4e     _l`lPlUlal[lMlNl
    dfa0:	7070 725f 725d 767e 7af9 7c73 7cf8 7f36     pp_r]r~v.zs|.|6.
    dfb0:	7f8a 7fbd 8001 8003 800c 8012 8033 807f     ............3...
    dfc0:	8089 808b 808c 81e3 81ea 81f3 81fc 820c     ................
    dfd0:	821b 821f 826e 8272 827e 866b 8840 884c     ....n.r.~.k.@.L.
    dfe0:	8863 897f 9621 4e32 4ea8 4f4d 4f4f 4f47     c...!.2N.NMOOOGO
    dff0:	4f57 4f5e 4f34 4f5b 4f55 4f30 4f50 4f51     WO^O4O[OUO0OPOQO
    e000:	4f3d 4f3a 4f38 4f43 4f54 4f3c 4f46 4f63     =O:O8OCOTO<OFOcO
    e010:	4f5c 4f60 4f2f 4f4e 4f36 4f59 4f5d 4f48     \O`O/ONO6OYO]OHO
    e020:	4f5a 514c 514b 514d 5175 51b6 51b7 5225     ZOLQKQMQuQ.Q.Q%R
    e030:	5224 5229 522a 5228 52ab 52a9 52aa 52ac     $R)R*R(R.R.R.R.R
    e040:	5323 5373 5375 541d 542d 541e 543e 5426     #SsSuS.T-T.T>T&T
    e050:	544e 5427 5446 5443 5433 5448 5442 541b     NT'TFTCT3THTBT.T
    e060:	5429 544a 5439 543b 5438 542e 5435 5436     )TJT9T;T8T.T5T6T
    e070:	5420 543c 5440 5431 542b 541f 542c 56ea      T<T@T1T+T.T,T.V
    e080:	56f0 56e4 56eb 574a 5751 5740 574d 5747     .V.V.VJWQW@WMWGW
    e090:	574e 573e 5750 574f 573b 58ef 593e 599d     NW>WPWOW;W.X>Y.Y
    e0a0:	5992 59a8 599e 59a3 5999 5996 598d 59a4     .Y.Y.Y.Y.Y.Y.Y.Y
    e0b0:	5993 598a 59a5 5b5d 5b5c 5b5a 5b5b 5b8c     .Y.Y.Y][\[Z[[[.[
    e0c0:	5b8b 5b8f 5c2c 5c40 5c41 5c3f 5c3e 5c90     .[.[,\@\A\?\>\.\
    e0d0:	5c91 5c94 5c8c 5deb 5e0c 5e8f 5e87 5e8a     .\.\.\.].^.^.^.^
    e0e0:	5ef7 5f04 5f1f 5f64 5f62 5f77 5f79 5fd8     .^._._d_b_w_y_._
    e0f0:	5fcc 5fd7 5fcd 5ff1 5feb 5ff8 5fea 6212     ._._._._._._._.b
    e100:	6211 6284 6297 6296 6280 6276 6289 626d     .b.b.b.b.bvb.bmb
    e110:	628a 627c 627e 6279 6273 6292 626f 6298     .b|b~bybsb.bob.b
    e120:	626e 6295 6293 6291 6286 6539 653b 6538     nb.b.b.b.b9e;e8e
    e130:	65f1 66f4 675f 674e 674f 6750 6751 675c     .e.f_gNgOgPgQg\g
    e140:	6756 675e 6749 6746 6760 6753 6757 6b65     Vg^gIgFg`gSgWgek
    e150:	6bcf 6c42 6c5e 6c99 6c81 6c88 6c89 6c85     .kBl^l.l.l.l.l.l
    e160:	6c9b 6c6a 6c7a 6c90 6c70 6c8c 6c68 6c96     .ljlzl.lpl.lhl.l
    e170:	6c92 6c7d 6c83 6c72 6c7e 6c74 6c86 6c76     .l}l.lrl~ltl.lvl
    e180:	6c8d 6c94 6c98 6c82 7076 707c 707d 7078     .l.l.l.lvp|p}pxp
    e190:	7262 7261 7260 72c4 72c2 7396 752c 752b     brar`r.r.r.s,u+u
    e1a0:	7537 7538 7682 76ef 77e3 79c1 79c0 79bf     7u8u.v.v.w.y.y.y
    e1b0:	7a76 7cfb 7f55 8096 8093 809d 8098 809b     vz.|U...........
    e1c0:	809a 80b2 826f 8292 828b 828d 898b 89d2     ....o...........
    e1d0:	8a00 8c37 8c46 8c55 8c9d 8d64 8d70 8db3     ..7.F.U...d.p...
    e1e0:	8eab 8eca 8f9b 8fb0 8fc2 8fc6 8fc5 8fc4     ................
    e1f0:	5de1 9091 90a2 90aa 90a6 90a3 9149 91c6     .]..........I...
    e200:	91cc 9632 962e 9631 962a 962c 4e26 4e56     ..2...1.*.,.&NVN
    e210:	4e73 4e8b 4e9b 4e9e 4eab 4eac 4f6f 4f9d     sN.N.N.N.N.NoO.O
    e220:	4f8d 4f73 4f7f 4f6c 4f9b 4f8b 4f86 4f83     .OsO.OlO.O.O.O.O
    e230:	4f70 4f75 4f88 4f69 4f7b 4f96 4f7e 4f8f     pOuO.OiO{O.O~O.O
    e240:	4f91 4f7a 5154 5152 5155 5169 5177 5176     .OzOTQRQUQiQwQvQ
    e250:	5178 51bd 51fd 523b 5238 5237 523a 5230     xQ.Q.Q;R8R7R:R0R
    e260:	522e 5236 5241 52be 52bb 5352 5354 5353     .R6RAR.R.RRSTSSS
    e270:	5351 5366 5377 5378 5379 53d6 53d4 53d7     QSfSwSxSyS.S.S.S
    e280:	5473 5475 5496 5478 5495 5480 547b 5477     sTuT.TxT.T.T{TwT
    e290:	5484 5492 5486 547c 5490 5471 5476 548c     .T.T.T|T.TqTvT.T
    e2a0:	549a 5462 5468 548b 547d 548e 56fa 5783     .TbThT.T}T.T.V.W
    e2b0:	5777 576a 5769 5761 5766 5764 577c 591c     wWjWiWaWfWdW|W.Y
    e2c0:	5949 5947 5948 5944 5954 59be 59bb 59d4     IYGYHYDYTY.Y.Y.Y
    e2d0:	59b9 59ae 59d1 59c6 59d0 59cd 59cb 59d3     .Y.Y.Y.Y.Y.Y.Y.Y
    e2e0:	59ca 59af 59b3 59d2 59c5 5b5f 5b64 5b63     .Y.Y.Y.Y.Y_[d[c[
    e2f0:	5b97 5b9a 5b98 5b9c 5b99 5b9b 5c1a 5c48     .[.[.[.[.[.[.\H\
    e300:	5c45 5c46 5cb7 5ca1 5cb8 5ca9 5cab 5cb1     E\F\.\.\.\.\.\.\
    e310:	5cb3 5e18 5e1a 5e16 5e15 5e1b 5e11 5e78     .\.^.^.^.^.^.^x^
    e320:	5e9a 5e97 5e9c 5e95 5e96 5ef6 5f26 5f27     .^.^.^.^.^.^&_'_
    e330:	5f29 5f80 5f81 5f7f 5f7c 5fdd 5fe0 5ffd     )_._._._|_._._._
    e340:	5ff5 5fff 600f 6014 602f 6035 6016 602a     ._._.`.`/`5`.`*`
    e350:	6015 6021 6027 6029 602b 601b 6216 6215     .`!`'`)`+`.`.b.b
    e360:	623f 623e 6240 627f 62c9 62cc 62c4 62bf     ?b>b@b.b.b.b.b.b
    e370:	62c2 62b9 62d2 62db 62ab 62d3 62d4 62cb     .b.b.b.b.b.b.b.b
    e380:	62c8 62a8 62bd 62bc 62d0 62d9 62c7 62cd     .b.b.b.b.b.b.b.b
    e390:	62b5 62da 62b1 62d8 62d6 62d7 62c6 62ac     .b.b.b.b.b.b.b.b
    e3a0:	62ce 653e 65a7 65bc 65fa 6614 6613 660c     .b>e.e.e.e.f.f.f
    e3b0:	6606 6602 660e 6600 660f 6615 660a 6607     .f.f.f.f.f.f.f.f
    e3c0:	670d 670b 676d 678b 6795 6771 679c 6773     .g.gmg.g.gqg.gsg
    e3d0:	6777 6787 679d 6797 676f 6770 677f 6789     wg.g.g.gogpg.g.g
    e3e0:	677e 6790 6775 679a 6793 677c 676a 6772     ~g.gug.g.g|gjgrg
    e3f0:	6b23 6b66 6b67 6b7f 6c13 6c1b 6ce3 6ce8     #kfkgk.k.l.l.l.l
    e400:	6cf3 6cb1 6ccc 6ce5 6cb3 6cbd 6cbe 6cbc     .l.l.l.l.l.l.l.l
    e410:	6ce2 6cab 6cd5 6cd3 6cb8 6cc4 6cb9 6cc1     .l.l.l.l.l.l.l.l
    e420:	6cae 6cd7 6cc5 6cf1 6cbf 6cbb 6ce1 6cdb     .l.l.l.l.l.l.l.l
    e430:	6cca 6cac 6cef 6cdc 6cd6 6ce0 7095 708e     .l.l.l.l.l.l.p.p
    e440:	7092 708a 7099 722c 722d 7238 7248 7267     .p.p.p,r-r8rHrgr
    e450:	7269 72c0 72ce 72d9 72d7 72d0 73a9 73a8     ir.r.r.r.r.r.s.s
    e460:	739f 73ab 73a5 753d 759d 7599 759a 7684     .s.s.s=u.u.u.u.v
    e470:	76c2 76f2 76f4 77e5 77fd 793e 7940 7941     .v.v.v.w.w>y@yAy
    e480:	79c9 79c8 7a7a 7a79 7afa 7cfe 7f54 7f8c     .y.yzzyz.z.|T...
    e490:	7f8b 8005 80ba 80a5 80a2 80b1 80a1 80ab     ................
    e4a0:	80a9 80b4 80aa 80af 81e5 81fe 820d 82b3     ................
    e4b0:	829d 8299 82ad 82bd 829f 82b9 82b1 82ac     ................
    e4c0:	82a5 82af 82b8 82a3 82b0 82be 82b7 864e     ..............N.
    e4d0:	8671 521d 8868 8ecb 8fce 8fd4 8fd1 90b5     q..Rh...........
    e4e0:	90b8 90b1 90b6 91c7 91d1 9577 9580 961c     ..........w.....
    e4f0:	9640 963f 963b 9644 9642 96b9 96e8 9752     @.?.;.D.B.....R.
    e500:	975e 4e9f 4ead 4eae 4fe1 4fb5 4faf 4fbf     ^..N.N.N.O.O.O.O
    e510:	4fe0 4fd1 4fcf 4fdd 4fc3 4fb6 4fd8 4fdf     .O.O.O.O.O.O.O.O
    e520:	4fca 4fd7 4fae 4fd0 4fc4 4fc2 4fda 4fce     .O.O.O.O.O.O.O.O
    e530:	4fde 4fb7 5157 5192 5191 51a0 524e 5243     .O.OWQ.Q.Q.QNRCR
    e540:	524a 524d 524c 524b 5247 52c7 52c9 52c3     JRMRLRKRGR.R.R.R
    e550:	52c1 530d 5357 537b 539a 53db 54ac 54c0     .R.SWS{S.S.S.T.T
    e560:	54a8 54ce 54c9 54b8 54a6 54b3 54c7 54c2     .T.T.T.T.T.T.T.T
    e570:	54bd 54aa 54c1 54c4 54c8 54af 54ab 54b1     .T.T.T.T.T.T.T.T
    e580:	54bb 54a9 54a7 54bf 56ff 5782 578b 57a0     .T.T.T.T.V.W.W.W
    e590:	57a3 57a2 57ce 57ae 5793 5955 5951 594f     .W.W.W.W.WUYQYOY
    e5a0:	594e 5950 59dc 59d8 59ff 59e3 59e8 5a03     NYPY.Y.Y.Y.Y.Y.Z
    e5b0:	59e5 59ea 59da 59e6 5a01 59fb 5b69 5ba3     .Y.Y.Y.Y.Z.Yi[.[
    e5c0:	5ba6 5ba4 5ba2 5ba5 5c01 5c4e 5c4f 5c4d     .[.[.[.[.\N\O\M\
    e5d0:	5c4b 5cd9 5cd2 5df7 5e1d 5e25 5e1f 5e7d     K\.\.\.].^%^.^}^
    e5e0:	5ea0 5ea6 5efa 5f08 5f2d 5f65 5f88 5f85     .^.^.^._-_e_._._
    e5f0:	5f8a 5f8b 5f87 5f8c 5f89 6012 601d 6020     ._._._._._.`.` `
    e600:	6025 600e 6028 604d 6070 6068 6062 6046     %`.`(`M`p`h`b`F`
    e610:	6043 606c 606b 606a 6064 6241 62dc 6316     C`l`k`j`d`Ab.b.c
    e620:	6309 62fc 62ed 6301 62ee 62fd 6307 62f1     .c.b.b.c.b.b.c.b
    e630:	62f7 62ef 62ec 62fe 62f4 6311 6302 653f     .b.b.b.b.b.c.c?e
    e640:	6545 65ab 65bd 65e2 6625 662d 6620 6627     Ee.e.e.e%f-f f'f
    e650:	662f 661f 6628 6631 6624 66f7 67ff 67d3     /f.f(f1f$f.f.g.g
    e660:	67f1 67d4 67d0 67ec 67b6 67af 67f5 67e9     .g.g.g.g.g.g.g.g
    e670:	67ef 67c4 67d1 67b4 67da 67e5 67b8 67cf     .g.g.g.g.g.g.g.g
    e680:	67de 67f3 67b0 67d9 67e2 67dd 67d2 6b6a     .g.g.g.g.g.g.gjk
    e690:	6b83 6b86 6bb5 6bd2 6bd7 6c1f 6cc9 6d0b     .k.k.k.k.k.l.l.m
    e6a0:	6d32 6d2a 6d41 6d25 6d0c 6d31 6d1e 6d17     2m*mAm%m.m1m.m.m
    e6b0:	6d3b 6d3d 6d3e 6d36 6d1b 6cf5 6d39 6d27     ;m=m>m6m.m.l9m'm
    e6c0:	6d38 6d29 6d2e 6d35 6d0e 6d2b 70ab 70ba     8m)m.m5m.m+m.p.p
    e6d0:	70b3 70ac 70af 70ad 70b8 70ae 70a4 7230     .p.p.p.p.p.p.p0r
    e6e0:	7272 726f 7274 72e9 72e0 72e1 73b7 73ca     rrortr.r.r.r.s.s
    e6f0:	73bb 73b2 73cd 73c0 73b3 751a 752d 754f     .s.s.s.s.s.u-uOu
    e700:	754c 754e 754b 75ab 75a4 75a5 75a2 75a3     LuNuKu.u.u.u.u.u
    e710:	7678 7686 7687 7688 76c8 76c6 76c3 76c5     xv.v.v.v.v.v.v.v
    e720:	7701 76f9 76f8 7709 770b 76fe 76fc 7707     .w.v.v.w.w.v.v.w
    e730:	77dc 7802 7814 780c 780d 7946 7949 7948     .w.x.x.x.xFyIyHy
    e740:	7947 79b9 79ba 79d1 79d2 79cb 7a7f 7a81     Gy.y.y.y.y.y.z.z
    e750:	7aff 7afd 7c7d 7d02 7d05 7d00 7d09 7d07     .z.z}|.}.}.}.}.}
    e760:	7d04 7d06 7f38 7f8e 7fbf 8004 8010 800d     .}.}8...........
    e770:	8011 8036 80d6 80e5 80da 80c3 80c4 80cc     ..6.............
    e780:	80e1 80db 80ce 80de 80e4 80dd 81f4 8222     ..............".
    e790:	82e7 8303 8305 82e3 82db 82e6 8304 82e5     ................
    e7a0:	8302 8309 82d2 82d7 82f1 8301 82dc 82d4     ................
    e7b0:	82d1 82de 82d3 82df 82ef 8306 8650 8679     ............P.y.
    e7c0:	867b 867a 884d 886b 8981 89d4 8a08 8a02     {.z.M.k.........
    e7d0:	8a03 8c9e 8ca0 8d74 8d73 8db4 8ecd 8ecc     ......t.s.......
    e7e0:	8ff0 8fe6 8fe2 8fea 8fe5 8fed 8feb 8fe4     ................
    e7f0:	8fe8 90ca 90ce 90c1 90c3 914b 914a 91cd     ..........K.J...
    e800:	9582 9650 964b 964c 964d 9762 9769 97cb     ..P.K.L.M.b.i...
    e810:	97ed 97f3 9801 98a8 98db 98df 9996 9999     ................
    e820:	4e58 4eb3 500c 500d 5023 4fef 5026 5025     XN.N.P.P#P.O&P%P
    e830:	4ff8 5029 5016 5006 503c 501f 501a 5012     .O)P.P.P<P.P.P.P
    e840:	5011 4ffa 5000 5014 5028 4ff1 5021 500b     .P.O.P.P(P.O!P.P
    e850:	5019 5018 4ff3 4fee 502d 502a 4ffe 502b     .P.P.O.O-P*P.O+P
    e860:	5009 517c 51a4 51a5 51a2 51cd 51cc 51c6     .P|Q.Q.Q.Q.Q.Q.Q
    e870:	51cb 5256 525c 5254 525b 525d 532a 537f     .QVR\RTR[R]R*S.S
    e880:	539f 539d 53df 54e8 5510 5501 5537 54fc     .S.S.S.T.U.U7U.T
    e890:	54e5 54f2 5506 54fa 5514 54e9 54ed 54e1     .T.T.U.T.U.T.T.T
    e8a0:	5509 54ee 54ea 54e6 5527 5507 54fd 550f     .U.T.T.T'U.U.T.U
    e8b0:	5703 5704 57c2 57d4 57cb 57c3 5809 590f     .W.W.W.W.W.W.X.Y
    e8c0:	5957 5958 595a 5a11 5a18 5a1c 5a1f 5a1b     WYXYZY.Z.Z.Z.Z.Z
    e8d0:	5a13 59ec 5a20 5a23 5a29 5a25 5a0c 5a09     .Z.Y Z#Z)Z%Z.Z.Z
    e8e0:	5b6b 5c58 5bb0 5bb3 5bb6 5bb4 5bae 5bb5     k[X\.[.[.[.[.[.[
    e8f0:	5bb9 5bb8 5c04 5c51 5c55 5c50 5ced 5cfd     .[.[.\Q\U\P\.\.\
    e900:	5cfb 5cea 5ce8 5cf0 5cf6 5d01 5cf4 5dee     .\.\.\.\.\.].\.]
    e910:	5e2d 5e2b 5eab 5ead 5ea7 5f31 5f92 5f91     -^+^.^.^.^1_._._
    e920:	5f90 6059 6063 6065 6050 6055 606d 6069     ._Y`c`e`P`U`m`i`
    e930:	606f 6084 609f 609a 608d 6094 608c 6085     o`.`.`.`.`.`.`.`
    e940:	6096 6247 62f3 6308 62ff 634e 633e 632f     .`Gb.b.c.bNc>c/c
    e950:	6355 6342 6346 634f 6349 633a 6350 633d     UcBcFcOcIc:cPc=c
    e960:	632a 632b 6328 634d 634c 6548 6549 6599     *c+c(cMcLcHeIe.e
    e970:	65c1 65c5 6642 6649 664f 6643 6652 664c     .e.eBfIfOfCfRfLf
    e980:	6645 6641 66f8 6714 6715 6717 6821 6838     EfAf.f.g.g.g!h8h
    e990:	6848 6846 6853 6839 6842 6854 6829 68b3     HhFhSh9hBhTh)h.h
    e9a0:	6817 684c 6851 683d 67f4 6850 6840 683c     .hLhQh=h.gPh@h<h
    e9b0:	6843 682a 6845 6813 6818 6841 6b8a 6b89     Ch*hEh.h.hAh.k.k
    e9c0:	6bb7 6c23 6c27 6c28 6c26 6c24 6cf0 6d6a     .k#l'l(l&l$l.ljm
    e9d0:	6d95 6d88 6d87 6d66 6d78 6d77 6d59 6d93     .m.m.mfmxmwmYm.m
    e9e0:	6d6c 6d89 6d6e 6d5a 6d74 6d69 6d8c 6d8a     lm.mnmZmtmim.m.m
    e9f0:	6d79 6d85 6d65 6d94 70ca 70d8 70e4 70d9     ym.mem.m.p.p.p.p
    ea00:	70c8 70cf 7239 7279 72fc 72f9 72fd 72f8     .p.p9ryr.r.r.r.r
    ea10:	72f7 7386 73ed 7409 73ee 73e0 73ea 73de     .r.s.s.t.s.s.s.s
    ea20:	7554 755d 755c 755a 7559 75be 75c5 75c7     Tu]u\uZuYu.u.u.u
    ea30:	75b2 75b3 75bd 75bc 75b9 75c2 75b8 768b     .u.u.u.u.u.u.u.v
    ea40:	76b0 76ca 76cd 76ce 7729 771f 7720 7728     .v.v.v.v)w.w w(w
    ea50:	77e9 7830 7827 7838 781d 7834 7837 7825     .w0x'x8x.x4x7x%x
    ea60:	782d 7820 781f 7832 7955 7950 7960 795f     -x x.x2xUyPy`y_y
    ea70:	7956 795e 795d 7957 795a 79e4 79e3 79e7     Vy^y]yWyZy.y.y.y
    ea80:	79df 79e6 79e9 79d8 7a84 7a88 7ad9 7b06     .y.y.y.y.z.z.z.{
    ea90:	7b11 7c89 7d21 7d17 7d0b 7d0a 7d20 7d22     .{.|!}.}.}.} }"}
    eaa0:	7d14 7d10 7d15 7d1a 7d1c 7d0d 7d19 7d1b     .}.}.}.}.}.}.}.}
    eab0:	7f3a 7f5f 7f94 7fc5 7fc1 8006 8018 8015     :._.............
    eac0:	8019 8017 803d 803f 80f1 8102 80f0 8105     ....=.?.........
    ead0:	80ed 80f4 8106 80f8 80f3 8108 80fd 810a     ................
    eae0:	80fc 80ef 81ed 81ec 8200 8210 822a 822b     ............*.+.
    eaf0:	8228 822c 82bb 832b 8352 8354 834a 8338     (.,...+.R.T.J.8.
    eb00:	8350 8349 8335 8334 834f 8332 8339 8336     P.I.5.4.O.2.9.6.
    eb10:	8317 8340 8331 8328 8343 8654 868a 86aa     ..@.1.(.C.T.....
    eb20:	8693 86a4 86a9 868c 86a3 869c 8870 8877     ............p.w.
    eb30:	8881 8882 887d 8879 8a18 8a10 8a0e 8a0c     ....}.y.........
    eb40:	8a15 8a0a 8a17 8a13 8a16 8a0f 8a11 8c48     ..............H.
    eb50:	8c7a 8c79 8ca1 8ca2 8d77 8eac 8ed2 8ed4     z.y.....w.......
    eb60:	8ecf 8fb1 9001 9006 8ff7 9000 8ffa 8ff4     ................
    eb70:	9003 8ffd 9005 8ff8 9095 90e1 90dd 90e2     ................
    eb80:	9152 914d 914c 91d8 91dd 91d7 91dc 91d9     R.M.L...........
    eb90:	9583 9662 9663 9661 965b 965d 9664 9658     ..b.c.a.[.].d.X.
    eba0:	965e 96bb 98e2 99ac 9aa8 9ad8 9b25 9b32     ^...........%.2.
    ebb0:	9b3c 4e7e 507a 507d 505c 5047 5043 504c     <.~NzP}P\PGPCPLP
    ebc0:	505a 5049 5065 5076 504e 5055 5075 5074     ZPIPePvPNPUPuPtP
    ebd0:	5077 504f 500f 506f 506d 515c 5195 51f0     wPOP.PoPmP\Q.Q.Q
    ebe0:	526a 526f 52d2 52d9 52d8 52d5 5310 530f     jRoR.R.R.R.R.S.S
    ebf0:	5319 533f 5340 533e 53c3 66fc 5546 556a     .S?S@S>S.S.fFUjU
    ec00:	5566 5544 555e 5561 5543 554a 5531 5556     fUDU^UaUCUJU1UVU
    ec10:	554f 5555 552f 5564 5538 552e 555c 552c     OUUU/UdU8U.U\U,U
    ec20:	5563 5533 5541 5557 5708 570b 5709 57df     cU3UAUWU.W.W.W.W
    ec30:	5805 580a 5806 57e0 57e4 57fa 5802 5835     .X.X.X.W.W.W.X5X
    ec40:	57f7 57f9 5920 5962 5a36 5a41 5a49 5a66     .W.W YbY6ZAZIZfZ
    ec50:	5a6a 5a40 5a3c 5a62 5a5a 5a46 5a4a 5b70     jZ@Z<ZbZZZFZJZp[
    ec60:	5bc7 5bc5 5bc4 5bc2 5bbf 5bc6 5c09 5c08     .[.[.[.[.[.[.\.\
    ec70:	5c07 5c60 5c5c 5c5d 5d07 5d06 5d0e 5d1b     .\`\\\]\.].].].]
    ec80:	5d16 5d22 5d11 5d29 5d14 5d19 5d24 5d27     .]"].])].].]$]']
    ec90:	5d17 5de2 5e38 5e36 5e33 5e37 5eb7 5eb8     .].]8^6^3^7^.^.^
    eca0:	5eb6 5eb5 5ebe 5f35 5f37 5f57 5f6c 5f69     .^.^.^5_7_W_l_i_
    ecb0:	5f6b 5f97 5f99 5f9e 5f98 5fa1 5fa0 5f9c     k_._._._._._._._
    ecc0:	607f 60a3 6089 60a0 60a8 60cb 60b4 60e6     .`.`.`.`.`.`.`.`
    ecd0:	60bd 60c5 60bb 60b5 60dc 60bc 60d8 60d5     .`.`.`.`.`.`.`.`
    ece0:	60c6 60df 60b8 60da 60c7 621a 621b 6248     .`.`.`.`.`.b.bHb
    ecf0:	63a0 63a7 6372 6396 63a2 63a5 6377 6367     .c.crc.c.c.cwcgc
    ed00:	6398 63aa 6371 63a9 6389 6383 639b 636b     .c.cqc.c.c.c.ckc
    ed10:	63a8 6384 6388 6399 63a1 63ac 6392 638f     .c.c.c.c.c.c.c.c
    ed20:	6380 637b 6369 6368 637a 655d 6556 6551     .c{cichczc]eVeQe
    ed30:	6559 6557 555f 654f 6558 6555 6554 659c     YeWe_UOeXeUeTe.e
    ed40:	659b 65ac 65cf 65cb 65cc 65ce 665d 665a     .e.e.e.e.e.e]fZf
    ed50:	6664 6668 6666 665e 66f9 52d7 671b 6881     dfhfff^f.f.R.g.h
    ed60:	68af 68a2 6893 68b5 687f 6876 68b1 68a7     .h.h.h.h.hvh.h.h
    ed70:	6897 68b0 6883 68c4 68ad 6886 6885 6894     .h.h.h.h.h.h.h.h
    ed80:	689d 68a8 689f 68a1 6882 6b32 6bba 6beb     .h.h.h.h.h2k.k.k
    ed90:	6bec 6c2b 6d8e 6dbc 6df3 6dd9 6db2 6de1     .k+l.m.m.m.m.m.m
    eda0:	6dcc 6de4 6dfb 6dfa 6e05 6dc7 6dcb 6daf     .m.m.m.m.n.m.m.m
    edb0:	6dd1 6dae 6dde 6df9 6db8 6df7 6df5 6dc5     .m.m.m.m.m.m.m.m
    edc0:	6dd2 6e1a 6db5 6dda 6deb 6dd8 6dea 6df1     .m.n.m.m.m.m.m.m
    edd0:	6dee 6de8 6dc6 6dc4 6daa 6dec 6dbf 6de6     .m.m.m.m.m.m.m.m
    ede0:	70f9 7109 710a 70fd 70ef 723d 727d 7281     .p.q.q.p.p=r}r.r
    edf0:	731c 731b 7316 7313 7319 7387 7405 740a     .s.s.s.s.s.s.t.t
    ee00:	7403 7406 73fe 740d 74e0 74f6 74f7 751c     .t.t.s.t.t.t.t.u
    ee10:	7522 7565 7566 7562 7570 758f 75d4 75d5     "ueufubupu.u.u.u
    ee20:	75b5 75ca 75cd 768e 76d4 76d2 76db 7737     .u.u.u.v.v.v.v7w
    ee30:	773e 773c 7736 7738 773a 786b 7843 784e     >w<w6w8w:wkxCxNx
    ee40:	7965 7968 796d 79fb 7a92 7a95 7b20 7b28     eyhymy.y.z.z {({
    ee50:	7b1b 7b2c 7b26 7b19 7b1e 7b2e 7c92 7c97     .{,{&{.{.{.{.|.|
    ee60:	7c95 7d46 7d43 7d71 7d2e 7d39 7d3c 7d40     .|F}C}q}.}9}<}@}
    ee70:	7d30 7d33 7d44 7d2f 7d42 7d32 7d31 7f3d     0}3}D}/}B}2}1}=.
    ee80:	7f9e 7f9a 7fcc 7fce 7fd2 801c 804a 8046     ............J.F.
    ee90:	812f 8116 8123 812b 8129 8130 8124 8202     /...#.+.).0.$...
    eea0:	8235 8237 8236 8239 838e 839e 8398 8378     5.7.6.9.......x.
    eeb0:	83a2 8396 83bd 83ab 8392 838a 8393 8389     ................
    eec0:	83a0 8377 837b 837c 8386 83a7 8655 5f6a     ..w.{.|.....U.j_
    eed0:	86c7 86c0 86b6 86c4 86b5 86c6 86cb 86b1     ................
    eee0:	86af 86c9 8853 889e 8888 88ab 8892 8896     ....S...........
    eef0:	888d 888b 8993 898f 8a2a 8a1d 8a23 8a25     ........*...#.%.
    ef00:	8a31 8a2d 8a1f 8a1b 8a22 8c49 8c5a 8ca9     1.-.....".I.Z...
    ef10:	8cac 8cab 8ca8 8caa 8ca7 8d67 8d66 8dbe     ..........g.f...
    ef20:	8dba 8edb 8edf 9019 900d 901a 9017 9023     ..............#.
    ef30:	901f 901d 9010 9015 901e 9020 900f 9022     .......... ...".
    ef40:	9016 901b 9014 90e8 90ed 90fd 9157 91ce     ............W...
    ef50:	91f5 91e6 91e3 91e7 91ed 91e9 9589 966a     ..............j.
    ef60:	9675 9673 9678 9670 9674 9676 9677 966c     u.s.x.p.t.v.w.l.
    ef70:	96c0 96ea 96e9 7ae0 7adf 9802 9803 9b5a     .......z.z....Z.
    ef80:	9ce5 9e75 9e7f 9ea5 9ebb 50a2 508d 5085     ..u........P.P.P
    ef90:	5099 5091 5080 5096 5098 509a 6700 51f1     .P.P.P.P.P.P.g.Q
    efa0:	5272 5274 5275 5269 52de 52dd 52db 535a     rRtRuRiR.R.R.RZS
    efb0:	53a5 557b 5580 55a7 557c 558a 559d 5598     .S{U.U.U|U.U.U.U
    efc0:	5582 559c 55aa 5594 5587 558b 5583 55b3     .U.U.U.U.U.U.U.U
    efd0:	55ae 559f 553e 55b2 559a 55bb 55ac 55b1     .U.U>U.U.U.U.U.U
    efe0:	557e 5589 55ab 5599 570d 582f 582a 5834     ~U.U.U.U.W/X*X4X
    eff0:	5824 5830 5831 5821 581d 5820 58f9 58fa     $X0X1X!X.X X.X.X
    f000:	5960 5a77 5a9a 5a7f 5a92 5a9b 5aa7 5b73     `YwZ.Z.Z.Z.Z.Zs[
    f010:	5b71 5bd2 5bcc 5bd3 5bd0 5c0a 5c0b 5c31     q[.[.[.[.[.\.\1\
    f020:	5d4c 5d50 5d34 5d47 5dfd 5e45 5e3d 5e40     L]P]4]G].]E^=^@^
    f030:	5e43 5e7e 5eca 5ec1 5ec2 5ec4 5f3c 5f6d     C^~^.^.^.^.^<_m_
    f040:	5fa9 5faa 5fa8 60d1 60e1 60b2 60b6 60e0     ._._._.`.`.`.`.`
    f050:	611c 6123 60fa 6115 60f0 60fb 60f4 6168     .a#a.`.a.`.`.`ha
    f060:	60f1 610e 60f6 6109 6100 6112 621f 6249     .`.a.`.a.a.a.bIb
    f070:	63a3 638c 63cf 63c0 63e9 63c9 63c6 63cd     .c.c.c.c.c.c.c.c
    f080:	63d2 63e3 63d0 63e1 63d6 63ed 63ee 6376     .c.c.c.c.c.c.cvc
    f090:	63f4 63ea 63db 6452 63da 63f9 655e 6566     .c.c.cRd.c.c^efe
    f0a0:	6562 6563 6591 6590 65af 666e 6670 6674     bece.e.e.enfpftf
    f0b0:	6676 666f 6691 667a 667e 6677 66fe 66ff     vfof.fzf~fwf.f.f
    f0c0:	671f 671d 68fa 68d5 68e0 68d8 68d7 6905     .g.g.h.h.h.h.h.i
    f0d0:	68df 68f5 68ee 68e7 68f9 68d2 68f2 68e3     .h.h.h.h.h.h.h.h
    f0e0:	68cb 68cd 690d 6912 690e 68c9 68da 696e     .h.h.i.i.i.h.hni
    f0f0:	68fb 6b3e 6b3a 6b3d 6b98 6b96 6bbc 6bef     .h>k:k=k.k.k.k.k
    f100:	6c2e 6c2f 6c2c 6e2f 6e38 6e54 6e21 6e32     .l/l,l/n8nTn!n2n
    f110:	6e67 6e4a 6e20 6e25 6e23 6e1b 6e5b 6e58     gnJn n%n#n.n[nXn
    f120:	6e24 6e56 6e6e 6e2d 6e26 6e6f 6e34 6e4d     $nVnnn-n&non4nMn
    f130:	6e3a 6e2c 6e43 6e1d 6e3e 6ecb 6e89 6e19     :n,nCn.n>n.n.n.n
    f140:	6e4e 6e63 6e44 6e72 6e69 6e5f 7119 711a     NncnDnrnin_n.q.q
    f150:	7126 7130 7121 7136 716e 711c 724c 7284     &q0q!q6qnq.qLr.r
    f160:	7280 7336 7325 7334 7329 743a 742a 7433     .r6s%s4s)s:t*t3t
    f170:	7422 7425 7435 7436 7434 742f 741b 7426     "t%t5t6t4t/t.t&t
    f180:	7428 7525 7526 756b 756a 75e2 75db 75e3     (t%u&ukuju.u.u.u
    f190:	75d9 75d8 75de 75e0 767b 767c 7696 7693     .u.u.u.u{v|v.v.v
    f1a0:	76b4 76dc 774f 77ed 785d 786c 786f 7a0d     .v.vOw.w]xlxox.z
    f1b0:	7a08 7a0b 7a05 7a00 7a98 7a97 7a96 7ae5     .z.z.z.z.z.z.z.z
    f1c0:	7ae3 7b49 7b56 7b46 7b50 7b52 7b54 7b4d     .zI{V{F{P{R{T{M{
    f1d0:	7b4b 7b4f 7b51 7c9f 7ca5 7d5e 7d50 7d68     K{O{Q{.|.|^}P}h}
    f1e0:	7d55 7d2b 7d6e 7d72 7d61 7d66 7d62 7d70     U}+}n}r}a}f}b}p}
    f1f0:	7d73 5584 7fd4 7fd5 800b 8052 8085 8155     s}.U......R...U.
    f200:	8154 814b 8151 814e 8139 8146 813e 814c     T.K.Q.N.9.F.>.L.
    f210:	8153 8174 8212 821c 83e9 8403 83f8 840d     S.t.............
    f220:	83e0 83c5 840b 83c1 83ef 83f1 83f4 8457     ..............W.
    f230:	840a 83f0 840c 83cc 83fd 83f2 83ca 8438     ..............8.
    f240:	840e 8404 83dc 8407 83d4 83df 865b 86df     ............[...
    f250:	86d9 86ed 86d4 86db 86e4 86d0 86de 8857     ..............W.
    f260:	88c1 88c2 88b1 8983 8996 8a3b 8a60 8a55     ..........;.`.U.
    f270:	8a5e 8a3c 8a41 8a54 8a5b 8a50 8a46 8a34     ^.<.A.T.[.P.F.4.
    f280:	8a3a 8a36 8a56 8c61 8c82 8caf 8cbc 8cb3     :.6.V.a.........
    f290:	8cbd 8cc1 8cbb 8cc0 8cb4 8cb7 8cb6 8cbf     ................
    f2a0:	8cb8 8d8a 8d85 8d81 8dce 8ddd 8dcb 8dda     ................
    f2b0:	8dd1 8dcc 8ddb 8dc6 8efb 8ef8 8efc 8f9c     ................
    f2c0:	902e 9035 9031 9038 9032 9036 9102 90f5     ..5.1.8.2.6.....
    f2d0:	9109 90fe 9163 9165 91cf 9214 9215 9223     ....c.e.......#.
    f2e0:	9209 921e 920d 9210 9207 9211 9594 958f     ................
    f2f0:	958b 9591 9593 9592 958e 968a 968e 968b     ................
    f300:	967d 9685 9686 968d 9672 9684 96c1 96c5     }.......r.......
    f310:	96c4 96c6 96c7 96ef 96f2 97cc 9805 9806     ................
    f320:	9808 98e7 98ea 98ef 98e9 98f2 98ed 99ae     ................
    f330:	99ad 9ec3 9ecd 9ed1 4e82 50ad 50b5 50b2     .........N.P.P.P
    f340:	50b3 50c5 50be 50ac 50b7 50bb 50af 50c7     .P.P.P.P.P.P.P.P
    f350:	527f 5277 527d 52df 52e6 52e4 52e2 52e3     .RwR}R.R.R.R.R.R
    f360:	532f 55df 55e8 55d3 55e6 55ce 55dc 55c7     /S.U.U.U.U.U.U.U
    f370:	55d1 55e3 55e4 55ef 55da 55e1 55c5 55c6     .U.U.U.U.U.U.U.U
    f380:	55e5 55c9 5712 5713 585e 5851 5858 5857     .U.U.W.W^XQXXXWX
    f390:	585a 5854 586b 584c 586d 584a 5862 5852     ZXTXkXLXmXJXbXRX
    f3a0:	584b 5967 5ac1 5ac9 5acc 5abe 5abd 5abc     KXgY.Z.Z.Z.Z.Z.Z
    f3b0:	5ab3 5ac2 5ab2 5d69 5d6f 5e4c 5e79 5ec9     .Z.Z.Zi]o]L^y^.^
    f3c0:	5ec8 5f12 5f59 5fac 5fae 611a 610f 6148     .^._Y_._._.a.aHa
    f3d0:	611f 60f3 611b 60f9 6101 6108 614e 614c     .a.`.a.`.a.aNaLa
    f3e0:	6144 614d 613e 6134 6127 610d 6106 6137     DaMa>a4a'a.a.a7a
    f3f0:	6221 6222 6413 643e 641e 642a 642d 643d     !b"b.d>d.d*d-d=d
    f400:	642c 640f 641c 6414 640d 6436 6416 6417     ,d.d.d.d.d6d.d.d
    f410:	6406 656c 659f 65b0 6697 6689 6687 6688     .dle.e.e.f.f.f.f
    f420:	6696 6684 6698 668d 6703 6994 696d 695a     .f.f.f.f.g.imiZi
    f430:	6977 6960 6954 6975 6930 6982 694a 6968     wi`iTiui0i.iJihi
    f440:	696b 695e 6953 6979 6986 695d 6963 695b     ki^iSiyi.i]ici[i
    f450:	6b47 6b72 6bc0 6bbf 6bd3 6bfd 6ea2 6eaf     Gkrk.k.k.k.k.n.n
    f460:	6ed3 6eb6 6ec2 6e90 6e9d 6ec7 6ec5 6ea5     .n.n.n.n.n.n.n.n
    f470:	6e98 6ebc 6eba 6eab 6ed1 6e96 6e9c 6ec4     .n.n.n.n.n.n.n.n
    f480:	6ed4 6eaa 6ea7 6eb4 714e 7159 7169 7164     .n.n.n.nNqYqiqdq
    f490:	7149 7167 715c 716c 7166 714c 7165 715e     Iqgq\qlqfqLqeq^q
    f4a0:	7146 7168 7156 723a 7252 7337 7345 733f     FqhqVq:rRr7sEs?s
    f4b0:	733e 746f 745a 7455 745f 745e 7441 743f     >sotZtUt_t^tAt?t
    f4c0:	7459 745b 745c 7576 7578 7600 75f0 7601     Yt[t\tvuxu.v.u.v
    f4d0:	75f2 75f1 75fa 75ff 75f4 75f3 76de 76df     .u.u.u.u.u.u.v.v
    f4e0:	775b 776b 7766 775e 7763 7779 776a 776c     [wkwfw^wcwywjwlw
    f4f0:	775c 7765 7768 7762 77ee 788e 78b0 7897     \wewhwbw.w.x.x.x
    f500:	7898 788c 7889 787c 7891 7893 787f 797a     .x.x.x|x.x.x.xzy
    f510:	797f 7981 842c 79bd 7a1c 7a1a 7a20 7a14     .y.y,..y.z.z z.z
    f520:	7a1f 7a1e 7a9f 7aa0 7b77 7bc0 7b60 7b6e     .z.z.z.zw{.{`{n{
    f530:	7b67 7cb1 7cb3 7cb5 7d93 7d79 7d91 7d81     g{.|.|.|.}y}.}.}
    f540:	7d8f 7d5b 7f6e 7f69 7f6a 7f72 7fa9 7fa8     .}[}n.i.j.r.....
    f550:	7fa4 8056 8058 8086 8084 8171 8170 8178     ..V.X.....q.p.x.
    f560:	8165 816e 8173 816b 8179 817a 8166 8205     e.n.s.k.y.z.f...
    f570:	8247 8482 8477 843d 8431 8475 8466 846b     G...w.=.1.u.f.k.
    f580:	8449 846c 845b 843c 8435 8461 8463 8469     I.l.[.<.5.a.c.i.
    f590:	846d 8446 865e 865c 865f 86f9 8713 8708     m.F.^.\._.......
    f5a0:	8707 8700 86fe 86fb 8702 8703 8706 870a     ................
    f5b0:	8859 88df 88d4 88d9 88dc 88d8 88dd 88e1     Y...............
    f5c0:	88ca 88d5 88d2 899c 89e3 8a6b 8a72 8a73     ..........k.r.s.
    f5d0:	8a66 8a69 8a70 8a87 8a7c 8a63 8aa0 8a71     f.i.p...|.c...q.
    f5e0:	8a85 8a6d 8a62 8a6e 8a6c 8a79 8a7b 8a3e     ..m.b.n.l.y.{.>.
    f5f0:	8a68 8c62 8c8a 8c89 8cca 8cc7 8cc8 8cc4     h.b.............
    f600:	8cb2 8cc3 8cc2 8cc5 8de1 8ddf 8de8 8def     ................
    f610:	8df3 8dfa 8dea 8de4 8de6 8eb2 8f03 8f09     ................
    f620:	8efe 8f0a 8f9f 8fb2 904b 904a 9053 9042     ........K.J.S.B.
    f630:	9054 903c 9055 9050 9047 904f 904e 904d     T.<.U.P.G.O.N.M.
    f640:	9051 903e 9041 9112 9117 916c 916a 9169     Q.>.A.....l.j.i.
    f650:	91c9 9237 9257 9238 923d 9240 923e 925b     ..7.W.8.=.@.>.[.
    f660:	924b 9264 9251 9234 9249 924d 9245 9239     K.d.Q.4.I.M.E.9.
    f670:	923f 925a 9598 9698 9694 9695 96cd 96cb     ?.Z.............
    f680:	96c9 96ca 96f7 96fb 96f9 96f6 9756 9774     ............V.t.
    f690:	9776 9810 9811 9813 980a 9812 980c 98fc     v...............
    f6a0:	98f4 98fd 98fe 99b3 99b1 99b4 9ae1 9ce9     ................
    f6b0:	9e82 9f0e 9f13 9f20 50e7 50ee 50e5 50d6     ...... ..P.P.P.P
    f6c0:	50ed 50da 50d5 50cf 50d1 50f1 50ce 50e9     .P.P.P.P.P.P.P.P
    f6d0:	5162 51f3 5283 5282 5331 53ad 55fe 5600     bQ.Q.R.R1S.S.U.V
    f6e0:	561b 5617 55fd 5614 5606 5609 560d 560e     .V.V.U.V.V.V.V.V
    f6f0:	55f7 5616 561f 5608 5610 55f6 5718 5716     .U.V.V.V.V.U.W.W
    f700:	5875 587e 5883 5893 588a 5879 5885 587d     uX~X.X.X.XyX.X}X
    f710:	58fd 5925 5922 5924 596a 5969 5ae1 5ae6     .X%Y"Y$YjYiY.Z.Z
    f720:	5ae9 5ad7 5ad6 5ad8 5ae3 5b75 5bde 5be7     .Z.Z.Z.Z.Zu[.[.[
    f730:	5be1 5be5 5be6 5be8 5be2 5be4 5bdf 5c0d     .[.[.[.[.[.[.[.\
    f740:	5c62 5d84 5d87 5e5b 5e63 5e55 5e57 5e54     b\.].][^c^U^W^T^
    f750:	5ed3 5ed6 5f0a 5f46 5f70 5fb9 6147 613f     .^.^._F_p_._Ga?a
    f760:	614b 6177 6162 6163 615f 615a 6158 6175     Kawabaca_aZaXaua
    f770:	622a 6487 6458 6454 64a4 6478 645f 647a     *b.dXdTd.dxd_dzd
    f780:	6451 6467 6434 646d 647b 6572 65a1 65d7     Qdgd4dmd{dre.e.e
    f790:	65d6 66a2 66a8 669d 699c 69a8 6995 69c1     .e.f.f.f.i.i.i.i
    f7a0:	69ae 69d3 69cb 699b 69b7 69bb 69ab 69b4     .i.i.i.i.i.i.i.i
    f7b0:	69d0 69cd 69ad 69cc 69a6 69c3 69a3 6b49     .i.i.i.i.i.i.iIk
    f7c0:	6b4c 6c33 6f33 6f14 6efe 6f13 6ef4 6f29     Lk3l3o.o.n.o.n)o
    f7d0:	6f3e 6f20 6f2c 6f0f 6f02 6f22 6eff 6eef     >o o,o.o.o"o.n.n
    f7e0:	6f06 6f31 6f38 6f32 6f23 6f15 6f2b 6f2f     .o1o8o2o#o.o+o/o
    f7f0:	6f88 6f2a 6eec 6f01 6ef2 6ecc 6ef7 7194     .o*o.n.o.n.n.n.q
    f800:	7199 717d 718a 7184 7192 723e 7292 7296     .q}q.q.q.q>r.r.r
    f810:	7344 7350 7464 7463 746a 7470 746d 7504     DsPsdtctjtptmt.u
    f820:	7591 7627 760d 760b 7609 7613 76e1 76e3     .u'v.v.v.v.v.v.v
    f830:	7784 777d 777f 7761 78c1 789f 78a7 78b3     .w}w.waw.x.x.x.x
    f840:	78a9 78a3 798e 798f 798d 7a2e 7a31 7aaa     .x.x.y.y.y.z1z.z
    f850:	7aa9 7aed 7aef 7ba1 7b95 7b8b 7b75 7b97     .z.z.z.{.{.{u{.{
    f860:	7b9d 7b94 7b8f 7bb8 7b87 7b84 7cb9 7cbd     .{.{.{.{.{.{.|.|
    f870:	7cbe 7dbb 7db0 7d9c 7dbd 7dbe 7da0 7dca     .|.}.}.}.}.}.}.}
    f880:	7db4 7db2 7db1 7dba 7da2 7dbf 7db5 7db8     .}.}.}.}.}.}.}.}
    f890:	7dad 7dd2 7dc7 7dac 7f70 7fe0 7fe1 7fdf     .}.}.}.}p.......
    f8a0:	805e 805a 8087 8150 8180 818f 8188 818a     ^.Z...P.........
    f8b0:	817f 8182 81e7 81fa 8207 8214 821e 824b     ..............K.
    f8c0:	84c9 84bf 84c6 84c4 8499 849e 84b2 849c     ................
    f8d0:	84cb 84b8 84c0 84d3 8490 84bc 84d1 84ca     ................
    f8e0:	873f 871c 873b 8722 8725 8734 8718 8755     ?...;.".%.4...U.
    f8f0:	8737 8729 88f3 8902 88f4 88f9 88f8 88fd     7.).............
    f900:	88e8 891a 88ef 8aa6 8a8c 8a9e 8aa3 8a8d     ................
    f910:	8aa1 8a93 8aa4 8aaa 8aa5 8aa8 8a98 8a91     ................
    f920:	8a9a 8aa7 8c6a 8c8d 8c8c 8cd3 8cd1 8cd2     ....j...........
    f930:	8d6b 8d99 8d95 8dfc 8f14 8f12 8f15 8f13     k...............
    f940:	8fa3 9060 9058 905c 9063 9059 905e 9062     ..`.X.\.c.Y.^.b.
    f950:	905d 905b 9119 9118 911e 9175 9178 9177     ].[.......u.x.w.
    f960:	9174 9278 9280 9285 9298 9296 927b 9293     t.x.........{...
    f970:	929c 92a8 927c 9291 95a1 95a8 95a9 95a3     ....|...........
    f980:	95a5 95a4 9699 969c 969b 96cc 96d2 9700     ................
    f990:	977c 9785 97f6 9817 9818 98af 98b1 9903     |...............
    f9a0:	9905 990c 9909 99c1 9aaf 9ab0 9ae6 9b41     ..............A.
    f9b0:	9b42 9cf4 9cf6 9cf3 9ebc 9f3b 9f4a 5104     B.........;.J..Q
    f9c0:	5100 50fb 50f5 50f9 5102 5108 5109 5105     .Q.P.P.P.Q.Q.Q.Q
    f9d0:	51dc 5287 5288 5289 528d 528a 52f0 53b2     .Q.R.R.R.R.R.R.S
    f9e0:	562e 563b 5639 5632 563f 5634 5629 5653     .V;V9V2V?V4V)VSV
    f9f0:	564e 5657 5674 5636 562f 5630 5880 589f     NVWVtV6V/V0V.X.X
    fa00:	589e 58b3 589c 58ae 58a9 58a6 596d 5b09     .X.X.X.X.X.XmY.[
    fa10:	5afb 5b0b 5af5 5b0c 5b08 5bee 5bec 5be9     .Z.[.Z.[.[.[.[.[
    fa20:	5beb 5c64 5c65 5d9d 5d94 5e62 5e5f 5e61     .[d\e\.].]b^_^a^
    fa30:	5ee2 5eda 5edf 5edd 5ee3 5ee0 5f48 5f71     .^.^.^.^.^.^H_q_
    fa40:	5fb7 5fb5 6176 6167 616e 615d 6155 6182     ._._vagana]aUa.a
    fa50:	617c 6170 616b 617e 61a7 6190 61ab 618e     |apaka~a.a.a.a.a
    fa60:	61ac 619a 61a4 6194 61ae 622e 6469 646f     .a.a.a.a.a.bidod
    fa70:	6479 649e 64b2 6488 6490 64b0 64a5 6493     yd.d.d.d.d.d.d.d
    fa80:	6495 64a9 6492 64ae 64ad 64ab 649a 64ac     .d.d.d.d.d.d.d.d
    fa90:	6499 64a2 64b3 6575 6577 6578 66ae 66ab     .d.d.duewexe.f.f
    faa0:	66b4 66b1 6a23 6a1f 69e8 6a01 6a1e 6a19     .f.f#j.j.i.j.j.j
    fab0:	69fd 6a21 6a13 6a0a 69f3 6a02 6a05 69ed     .i!j.j.j.i.j.j.i
    fac0:	6a11 6b50 6b4e 6ba4 6bc5 6bc6 6f3f 6f7c     .jPkNk.k.k.k?o|o
    fad0:	6f84 6f51 6f66 6f54 6f86 6f6d 6f5b 6f78     .oQofoTo.omo[oxo
    fae0:	6f6e 6f8e 6f7a 6f70 6f64 6f97 6f58 6ed5     no.ozopodo.oXo.n
    faf0:	6f6f 6f60 6f5f 719f 71ac 71b1 71a8 7256     oo`o_o.q.q.q.qVr
    fb00:	729b 734e 7357 7469 748b 7483 747e 7480     .rNsWsit.t.t~t.t
    fb10:	757f 7620 7629 761f 7624 7626 7621 7622     .u v)v.v$v&v!v"v
    fb20:	769a 76ba 76e4 778e 7787 778c 7791 778b     .v.v.v.w.w.w.w.w
    fb30:	78cb 78c5 78ba 78ca 78be 78d5 78bc 78d0     .x.x.x.x.x.x.x.x
    fb40:	7a3f 7a3c 7a40 7a3d 7a37 7a3b 7aaf 7aae     ?z<z@z=z7z;z.z.z
    fb50:	7bad 7bb1 7bc4 7bb4 7bc6 7bc7 7bc1 7ba0     .{.{.{.{.{.{.{.{
    fb60:	7bcc 7cca 7de0 7df4 7def 7dfb 7dd8 7dec     .{.|.}.}.}.}.}.}
    fb70:	7ddd 7de8 7de3 7dda 7dde 7de9 7d9e 7dd9     .}.}.}.}.}.}.}.}
    fb80:	7df2 7df9 7f75 7f77 7faf 7fe9 8026 819b     .}.}u.w.....&...
    fb90:	819c 819d 81a0 819a 8198 8517 853d 851a     ............=...
    fba0:	84ee 852c 852d 8513 8511 8523 8521 8514     ..,.-.....#.!...
    fbb0:	84ec 8525 84ff 8506 8782 8774 8776 8760     ..%.......t.v.`.
    fbc0:	8766 8778 8768 8759 8757 874c 8753 885b     f.x.h.Y.W.L.S.[.
    fbd0:	885d 8910 8907 8912 8913 8915 890a 8abc     ]...............
    fbe0:	8ad2 8ac7 8ac4 8a95 8acb 8af8 8ab2 8ac9     ................
    fbf0:	8ac2 8abf 8ab0 8ad6 8acd 8ab6 8ab9 8adb     ................
    fc00:	8c4c 8c4e 8c6c 8ce0 8cde 8ce6 8ce4 8cec     L.N.l...........
    fc10:	8ced 8ce2 8ce3 8cdc 8cea 8ce1 8d6d 8d9f     ............m...
    fc20:	8da3 8e2b 8e10 8e1d 8e22 8e0f 8e29 8e1f     ..+....."...)...
    fc30:	8e21 8e1e 8eba 8f1d 8f1b 8f1f 8f29 8f26     !...........).&.
    fc40:	8f2a 8f1c 8f1e 8f25 9069 906e 9068 906d     *.....%.i.n.h.m.
    fc50:	9077 9130 912d 9127 9131 9187 9189 918b     w.0.-.'.1.......
    fc60:	9183 92c5 92bb 92b7 92ea 92ac 92e4 92c1     ................
    fc70:	92b3 92bc 92d2 92c7 92f0 92b2 95ad 95b1     ................
    fc80:	9704 9706 9707 9709 9760 978d 978b 978f     ........`.......
    fc90:	9821 982b 981c 98b3 990a 9913 9912 9918     !.+.............
    fca0:	99dd 99d0 99df 99db 99d1 99d5 99d2 99d9     ................
    fcb0:	9ab7 9aee 9aef 9b27 9b45 9b44 9b77 9b6f     ......'.E.D.w.o.
    fcc0:	9d06 9d09 9d03 9ea9 9ebe 9ece 58a8 9f52     .............XR.
    fcd0:	5112 5118 5114 5110 5115 5180 51aa 51dd     .Q.Q.Q.Q.Q.Q.Q.Q
    fce0:	5291 5293 52f3 5659 566b 5679 5669 5664     .R.R.RYVkVyViVdV
    fcf0:	5678 566a 5668 5665 5671 566f 566c 5662     xVjVhVeVqVoVlVbV
    fd00:	5676 58c1 58be 58c7 58c5 596e 5b1d 5b34     vV.X.X.X.XnY.[4[
    fd10:	5b78 5bf0 5c0e 5f4a 61b2 6191 61a9 618a     x[.[.\J_.a.a.a.a
    fd20:	61cd 61b6 61be 61ca 61c8 6230 64c5 64c1     .a.a.a.a.a0b.d.d
    fd30:	64cb 64bb 64bc 64da 64c4 64c7 64c2 64cd     .d.d.d.d.d.d.d.d
    fd40:	64bf 64d2 64d4 64be 6574 66c6 66c9 66b9     .d.d.d.dte.f.f.f
    fd50:	66c4 66c7 66b8 6a3d 6a38 6a3a 6a59 6a6b     .f.f.f=j8j:jYjkj
    fd60:	6a58 6a39 6a44 6a62 6a61 6a4b 6a47 6a35     Xj9jDjbjajKjGj5j
    fd70:	6a5f 6a48 6b59 6b77 6c05 6fc2 6fb1 6fa1     _jHjYkwk.l.o.o.o
    fd80:	6fc3 6fa4 6fc1 6fa7 6fb3 6fc0 6fb9 6fb6     .o.o.o.o.o.o.o.o
    fd90:	6fa6 6fa0 6fb4 71be 71c9 71d0 71d2 71c8     .o.o.o.q.q.q.q.q
    fda0:	71d5 71b9 71ce 71d9 71dc 71c3 71c4 7368     .q.q.q.q.q.q.qhs
    fdb0:	749c 74a3 7498 749f 749e 74e2 750c 750d     .t.t.t.t.t.t.u.u
    fdc0:	7634 7638 763a 76e7 76e5 77a0 779e 779f     4v8v:v.v.v.w.w.w
    fdd0:	77a5 78e8 78da 78ec 78e7 79a6 7a4d 7a4e     .w.x.x.x.x.yMzNz
    fde0:	7a46 7a4c 7a4b 7aba 7bd9 7c11 7bc9 7be4     FzLzKz.z.{.|.{.{
    fdf0:	7bdb 7be1 7be9 7be6 7cd5 7cd6 7e0a 7e11     .{.{.{.{.|.|.~.~
    fe00:	7e08 7e1b 7e23 7e1e 7e1d 7e09 7e10 7f79     .~.~#~.~.~.~.~y.
    fe10:	7fb2 7ff0 7ff1 7fee 8028 81b3 81a9 81a8     ........(.......
    fe20:	81fb 8208 8258 8259 854a 8559 8548 8568     ....X.Y.J.Y.H.h.
    fe30:	8569 8543 8549 856d 856a 855e 8783 879f     i.C.I.m.j.^.....
    fe40:	879e 87a2 878d 8861 892a 8932 8925 892b     ......a.*.2.%.+.
    fe50:	8921 89aa 89a6 8ae6 8afa 8aeb 8af1 8b00     !...............
    fe60:	8adc 8ae7 8aee 8afe 8b01 8b02 8af7 8aed     ................
    fe70:	8af3 8af6 8afc 8c6b 8c6d 8c93 8cf4 8e44     ......k.m.....D.
    fe80:	8e31 8e34 8e42 8e39 8e35 8f3b 8f2f 8f38     1.4.B.9.5.;./.8.
    fe90:	8f33 8fa8 8fa6 9075 9074 9078 9072 907c     3.....u.t.x.r.|.
    fea0:	907a 9134 9192 9320 9336 92f8 9333 932f     z.4... .6...3./.
    feb0:	9322 92fc 932b 9304 931a 9310 9326 9321     "...+.......&.!.
    fec0:	9315 932e 9319 95bb 96a7 96a8 96aa 96d5     ................
    fed0:	970e 9711 9716 970d 9713 970f 975b 975c     ............[.\.
    fee0:	9766 9798 9830 9838 983b 9837 982d 9839     f...0.8.;.7.-.9.
    fef0:	9824 9910 9928 991e 991b 9921 991a 99ed     $...(.....!.....
    ff00:	99e2 99f1 9ab8 9abc 9afb 9aed 9b28 9b91     ............(...
    ff10:	9d15 9d23 9d26 9d28 9d12 9d1b 9ed8 9ed4     ..#.&.(.........
    ff20:	9f8d 9f9c 512a 511f 5121 5132 52f5 568e     ....*Q.Q!Q2Q.R.V
    ff30:	5680 5690 5685 5687 568f 58d5 58d3 58d1     .V.V.V.V.V.X.X.X
    ff40:	58ce 5b30 5b2a 5b24 5b7a 5c37 5c68 5dbc     .X0[*[$[z[7\h\.]
    ff50:	5dba 5dbd 5db8 5e6b 5f4c 5fbd 61c9 61c2     .].].]k^L_._.a.a
    ff60:	61c7 61e6 61cb 6232 6234 64ce 64ca 64d8     .a.a.a2b4b.d.d.d
    ff70:	64e0 64f0 64e6 64ec 64f1 64e2 64ed 6582     .d.d.d.d.d.d.d.e
    ff80:	6583 66d9 66d6 6a80 6a94 6a84 6aa2 6a9c     .e.f.f.j.j.j.j.j
    ff90:	6adb 6aa3 6a7e 6a97 6a90 6aa0 6b5c 6bae     .j.j~j.j.j.j\k.k
    ffa0:	6bda 6c08 6fd8 6ff1 6fdf 6fe0 6fdb 6fe4     .k.l.o.o.o.o.o.o
    ffb0:	6feb 6fef 6f80 6fec 6fe1 6fe9 6fd5 6fee     .o.o.o.o.o.o.o.o
    ffc0:	6ff0 71e7 71df 71ee 71e6 71e5 71ed 71ec     .o.q.q.q.q.q.q.q
    ffd0:	71f4 71e0 7235 7246 7370 7372 74a9 74b0     .q.q5rFrpsrs.t.t
    ffe0:	74a6 74a8 7646 7642 764c 76ea 77b3 77aa     .t.tFvBvLv.v.w.w
    fff0:	77b0 77ac 77a7 77ad 77ef 78f7 78fa 78f4     .w.w.w.w.w.x.x.x
   10000:	78ef 7901 79a7 79aa 7a57 7abf 7c07 7c0d     .x.y.y.yWz.z.|.|
   10010:	7bfe 7bf7 7c0c 7be0 7ce0 7cdc 7cde 7ce2     .{.{.|.{.|.|.|.|
   10020:	7cdf 7cd9 7cdd 7e2e 7e3e 7e46 7e37 7e32     .|.|.|.~>~F~7~2~
   10030:	7e43 7e2b 7e3d 7e31 7e45 7e41 7e34 7e39     C~+~=~1~E~A~4~9~
   10040:	7e48 7e35 7e3f 7e2f 7f44 7ff3 7ffc 8071     H~5~?~/~D.....q.
   10050:	8072 8070 806f 8073 81c6 81c3 81ba 81c2     r.p.o.s.........
   10060:	81c0 81bf 81bd 81c9 81be 81e8 8209 8271     ..............q.
   10070:	85aa 8584 857e 859c 8591 8594 85af 859b     ....~...........
   10080:	8587 85a8 858a 8667 87c0 87d1 87b3 87d2     ......g.........
   10090:	87c6 87ab 87bb 87ba 87c8 87cb 893b 8936     ............;.6.
   100a0:	8944 8938 893d 89ac 8b0e 8b17 8b19 8b1b     D.8.=...........
   100b0:	8b0a 8b20 8b1d 8b04 8b10 8c41 8c3f 8c73     .. .......A.?.s.
   100c0:	8cfa 8cfd 8cfc 8cf8 8cfb 8da8 8e49 8e4b     ............I.K.
   100d0:	8e48 8e4a 8f44 8f3e 8f42 8f45 8f3f 907f     H.J.D.>.B.E.?...
   100e0:	907d 9084 9081 9082 9080 9139 91a3 919e     }.........9.....
   100f0:	919c 934d 9382 9328 9375 934a 9365 934b     ..M...(.u.J.e.K.
   10100:	9318 937e 936c 935b 9370 935a 9354 95ca     ..~.l.[.p.Z.T...
   10110:	95cb 95cc 95c8 95c6 96b1 96b8 96d6 971c     ................
   10120:	971e 97a0 97d3 9846 98b6 9935 9a01 99ff     ......F...5.....
   10130:	9bae 9bab 9baa 9bad 9d3b 9d3f 9e8b 9ecf     ........;.?.....
   10140:	9ede 9edc 9edd 9edb 9f3e 9f4b 53e2 5695     ........>.K..S.V
   10150:	56ae 58d9 58d8 5b38 5f5d 61e3 6233 64f4     .V.X.X8[]_.a3b.d
   10160:	64f2 64fe 6506 64fa 64fb 64f7 65b7 66dc     .d.d.e.d.d.d.e.f
   10170:	6726 6ab3 6aac 6ac3 6abb 6ab8 6ac2 6aae     &g.j.j.j.j.j.j.j
   10180:	6aaf 6b5f 6b78 6baf 7009 700b 6ffe 7006     .j_kxk.k.p.p.o.p
   10190:	6ffa 7011 700f 71fb 71fc 71fe 71f8 7377     .o.p.p.q.q.q.qws
   101a0:	7375 74a7 74bf 7515 7656 7658 7652 77bd     us.t.t.uVvXvRv.w
   101b0:	77bf 77bb 77bc 790e 79ae 7a61 7a62 7a60     .w.w.w.y.yazbz`z
   101c0:	7ac4 7ac5 7c2b 7c27 7c2a 7c1e 7c23 7c21     .z.z+|'|*|.|#|!|
   101d0:	7ce7 7e54 7e55 7e5e 7e5a 7e61 7e52 7e59     .|T~U~^~Z~a~R~Y~
   101e0:	7f48 7ff9 7ffb 8077 8076 81cd 81cf 820a     H.....w.v.......
   101f0:	85cf 85a9 85cd 85d0 85c9 85b0 85ba 85b9     ................
   10200:	85a6 87ef 87ec 87f2 87e0 8986 89b2 89f4     ................
   10210:	8b28 8b39 8b2c 8b2b 8c50 8d05 8e59 8e63     (.9.,.+.P...Y.c.
   10220:	8e66 8e64 8e5f 8e55 8ec0 8f49 8f4d 9087     f.d._.U...I.M...
   10230:	9083 9088 91ab 91ac 91d0 9394 938a 9396     ................
   10240:	93a2 93b3 93ae 93ac 93b0 9398 939a 9397     ................
   10250:	95d4 95d6 95d0 95d5 96e2 96dc 96d9 96db     ................
   10260:	96de 9724 97a3 97a6 97ad 97f9 984d 984f     ..$.........M.O.
   10270:	984c 984e 9853 98ba 993e 993f 993d 992e     L.N.S...>.?.=...
   10280:	99a5 9a0e 9ac1 9b03 9b06 9b4f 9b4e 9b4d     ..........O.N.M.
   10290:	9bca 9bc9 9bfd 9bc8 9bc0 9d51 9d5d 9d60     ..........Q.].`.
   102a0:	9ee0 9f15 9f2c 5133 56a5 58de 58df 58e2     ....,.3Q.V.X.X.X
   102b0:	5bf5 9f90 5eec 61f2 61f7 61f6 61f5 6500     .[...^.a.a.a.a.e
   102c0:	650f 66e0 66dd 6ae5 6add 6ada 6ad3 701b     .e.f.f.j.j.j.j.p
   102d0:	701f 7028 701a 701d 7015 7018 7206 720d     .p(p.p.p.p.p.r.r
   102e0:	7258 72a2 7378 737a 74bd 74ca 74e3 7587     Xr.rxszs.t.t.t.u
   102f0:	7586 765f 7661 77c7 7919 79b1 7a6b 7a69     .u_vav.w.y.ykziz
   10300:	7c3e 7c3f 7c38 7c3d 7c37 7c40 7e6b 7e6d     >|?|8|=|7|@|k~m~
   10310:	7e79 7e69 7e6a 7f85 7e73 7fb6 7fb9 7fb8     y~i~j~..s~......
   10320:	81d8 85e9 85dd 85ea 85d5 85e4 85e5 85f7     ................
   10330:	87fb 8805 880d 87f9 87fe 8960 895f 8956     ..........`._.V.
   10340:	895e 8b41 8b5c 8b58 8b49 8b5a 8b4e 8b4f     ^.A.\.X.I.Z.N.O.
   10350:	8b46 8b59 8d08 8d0a 8e7c 8e72 8e87 8e76     F.Y.....|.r...v.
   10360:	8e6c 8e7a 8e74 8f54 8f4e 8fad 908a 908b     l.z.t.T.N.......
   10370:	91b1 91ae 93e1 93d1 93df 93c3 93c8 93dc     ................
   10380:	93dd 93d6 93e2 93cd 93d8 93e4 93d7 93e8     ................
   10390:	95dc 96b4 96e3 972a 9727 9761 97dc 97fb     ......*.'.a.....
   103a0:	985e 9858 985b 98bc 9945 9949 9a16 9a19     ^.X.[...E.I.....
   103b0:	9b0d 9be8 9be7 9bd6 9bdb 9d89 9d61 9d72     ............a.r.
   103c0:	9d6a 9d6c 9e92 9e97 9e93 9eb4 52f8 56a8     j.l..........R.V
   103d0:	56b7 56b6 56b4 56bc 58e4 5b40 5b43 5b7d     .V.V.V.V.X@[C[}[
   103e0:	5bf6 5dc9 61f8 61fa 6518 6514 6519 66e6     .[.].a.a.e.e.e.f
   103f0:	6727 6aec 703e 7030 7032 7210 737b 74cf     'g.j>p0p2p.r{s.t
   10400:	7662 7665 7926 792a 792c 792b 7ac7 7af6     bvev&y*y,y+y.z.z
   10410:	7c4c 7c43 7c4d 7cef 7cf0 8fae 7e7d 7e7c     L|C|M|.|.|..}~|~
   10420:	7e82 7f4c 8000 81da 8266 85fb 85f9 8611     .~L.....f.......
   10430:	85fa 8606 860b 8607 860a 8814 8815 8964     ..............d.
   10440:	89ba 89f8 8b70 8b6c 8b66 8b6f 8b5f 8b6b     ....p.l.f.o._.k.
   10450:	8d0f 8d0d 8e89 8e81 8e85 8e82 91b4 91cb     ................
   10460:	9418 9403 93fd 95e1 9730 98c4 9952 9951     ........0...R.Q.
   10470:	99a8 9a2b 9a30 9a37 9a35 9c13 9c0d 9e79     ..+.0.7.5.....y.
   10480:	9eb5 9ee8 9f2f 9f5f 9f63 9f61 5137 5138     ..../._.c.a.7Q8Q
   10490:	56c1 56c0 56c2 5914 5c6c 5dcd 61fc 61fe     .V.V.V.Yl\.].a.a
   104a0:	651d 651c 6595 66e9 6afb 6b04 6afa 6bb2     .e.e.e.f.j.k.j.k
   104b0:	704c 721b 72a7 74d6 74d4 7669 77d3 7c50     Lp.r.r.t.tiv.wP|
   104c0:	7e8f 7e8c 7fbc 8617 862d 861a 8823 8822     .~.~....-...#.".
   104d0:	8821 881f 896a 896c 89bd 8b74 8b77 8b7d     !...j.l...t.w.}.
   104e0:	8d13 8e8a 8e8d 8e8b 8f5f 8faf 91ba 942e     ........_.......
   104f0:	9433 9435 943a 9438 9432 942b 95e2 9738     3.5.:.8.2.+...8.
   10500:	9739 9732 97ff 9867 9865 9957 9a45 9a43     9.2...g.e.W.E.C.
   10510:	9a40 9a3e 9acf 9b54 9b51 9c2d 9c25 9daf     @.>...T.Q.-.%...
   10520:	9db4 9dc2 9db8 9e9d 9eef 9f19 9f5c 9f66     ............\.f.
   10530:	9f67 513c 513b 56c8 56ca 56c9 5b7f 5dd4     g.<Q;Q.V.V.V.[.]
   10540:	5dd2 5f4e 61ff 6524 6b0a 6b61 7051 7058     .]N_.a$e.kakQpXp
   10550:	7380 74e4 758a 766e 766c 79b3 7c60 7c5f     .s.t.unvlv.y`|_|
   10560:	807e 807d 81df 8972 896f 89fc 8b80 8d16     ~.}...r.o.......
   10570:	8d17 8e91 8e93 8f61 9148 9444 9451 9452     ......a.H.D.Q.R.
   10580:	973d 973e 97c3 97c1 986b 9955 9a55 9a4d     =.>.....k.U.U.M.
   10590:	9ad2 9b1a 9c49 9c31 9c3e 9c3b 9dd3 9dd7     ....I.1.>.;.....
   105a0:	9f34 9f6c 9f6a 9f94 56cc 5dd6 6200 6523     4.l.j....V.].b#e
   105b0:	652b 652a 66ec 6b10 74da 7aca 7c64 7c63     +e*e.f.k.t.zd|c|
   105c0:	7c65 7e93 7e96 7e94 81e2 8638 863f 8831     e|.~.~.~..8.?.1.
   105d0:	8b8a 9090 908f 9463 9460 9464 9768 986f     ......c.`.d.h.o.
   105e0:	995c 9a5a 9a5b 9a57 9ad3 9ad4 9ad1 9c54     \.Z.[.W.......T.
   105f0:	9c57 9c56 9de5 9e9f 9ef4 56d1 58e9 652c     W.V........V.X,e
   10600:	705e 7671 7672 77d7 7f50 7f88 8836 8839     ^pqvrv.wP...6.9.
   10610:	8862 8b93 8b92 8b96 8277 8d1b 91c0 946a     b.......w.....j.
   10620:	9742 9748 9744 97c6 9870 9a5f 9b22 9b58     B.H.D...p._.".X.
   10630:	9c5f 9df9 9dfa 9e7c 9e7d 9f07 9f77 9f72     _.....|.}...w.r.
   10640:	5ef3 6b16 7063 7c6c 7c6e 883b 89c0 8ea1     .^.kcpl|n|;.....
   10650:	91c1 9472 9470 9871 995e 9ad6 9b23 9ecc     ..r.p.q.^...#...
   10660:	7064 77da 8b9a 9477 97c9 9a62 9a65 7e9c     dp.w..w...b.e..~
   10670:	8b9c 8eaa 91c5 947d 947e 947c 9c77 9c78     ......}.~.|.w.x.
   10680:	9ef7 8c54 947f 9e1a 7228 9a6a 9b31 9e1b     ..T.....(rj.1...
   10690:	9e1e 7c72 0000 0000 0000 0000 0000 0000     ..r|............
	...
   10750:	4e42 4e5c 51f5 531a 5382 4e07 4e0c 4e47     BN\N.Q.S.S.N.NGN
   10760:	4e8d 56d7 fa0c 5c6e 5f73 4e0f 5187 4e0e     .N.V..n\s_.N.Q.N
   10770:	4e2e 4e93 4ec2 4ec9 4ec8 5198 52fc 536c     .N.N.N.N.N.Q.RlS
   10780:	53b9 5720 5903 592c 5c10 5dff 65e1 6bb3     .S W.Y,Y.\.].e.k
   10790:	6bcc 6c14 723f 4e31 4e3c 4ee8 4edc 4ee9     .k.l?r1N<N.N.N.N
   107a0:	4ee1 4edd 4eda 520c 531c 534c 5722 5723     .N.N.N.R.SLS"W#W
   107b0:	5917 592f 5b81 5b84 5c12 5c3b 5c74 5c73     .Y/Y.[.[.\;\t\s\
   107c0:	5e04 5e80 5e82 5fc9 6209 6250 6c15 6c36     .^.^.^._.bPb.l6l
   107d0:	6c43 6c3f 6c3b 72ae 72b0 738a 79b8 808a     Cl?l;l.r.r.s.y..
   107e0:	961e 4f0e 4f18 4f2c 4ef5 4f14 4ef1 4f00     ...O.O,O.N.O.N.O
   107f0:	4ef7 4f08 4f1d 4f02 4f05 4f22 4f13 4f04     .N.O.O.O.O"O.O.O
   10800:	4ef4 4f12 51b1 5213 5209 5210 52a6 5322     .N.O.Q.R.R.R.R"S
   10810:	531f 534d 538a 5407 56e1 56df 572e 572a     .SMS.S.T.V.V.W*W
   10820:	5734 593c 5980 597c 5985 597b 597e 5977     4W<Y.Y|Y.Y{Y~YwY
   10830:	597f 5b56 5c15 5c25 5c7c 5c7a 5c7b 5c7e     .YV[.\%\|\z\{\~\
   10840:	5ddf 5e75 5e84 5f02 5f1a 5f74 5fd5 5fd4     .]u^.^._._t_._._
   10850:	5fcf 625c 625e 6264 6261 6266 6262 6259     ._\b^bdbabfbbbYb
   10860:	6260 625a 6265 65ef 65ee 673e 6739 6738     `bZbeb.e.e>g9g8g
   10870:	673b 673a 673f 673c 6733 6c18 6c46 6c52     ;g:g?g<g3g.lFlRl
   10880:	6c5c 6c4f 6c4a 6c54 6c4b 6c4c 7071 725e     \lOlJlTlKlLlqp^r
   10890:	72b4 72b5 738e 752a 767f 7a75 7f51 8278     .r.r.s*u.vuzQ.x.
   108a0:	827c 8280 827d 827f 864d 897e 9099 9097     |...}...M.~.....
   108b0:	9098 909b 9094 9622 9624 9620 9623 4f56     ......".$. .#.VO
   108c0:	4f3b 4f62 4f49 4f53 4f64 4f3e 4f67 4f52     ;ObOIOSOdO>OgORO
   108d0:	4f5f 4f41 4f58 4f2d 4f33 4f3f 4f61 518f     _OAOXO-O3O?OaO.Q
   108e0:	51b9 521c 521e 5221 52ad 52ae 5309 5363     .Q.R.R!R.R.R.ScS
   108f0:	5372 538e 538f 5430 5437 542a 5454 5445     rS.S.S0T7T*TTTET
   10900:	5419 541c 5425 5418 543d 544f 5441 5428     .T.T%T.T=TOTAT(T
   10910:	5424 5447 56ee 56e7 56e5 5741 5745 574c     $TGT.V.V.VAWEWLW
   10920:	5749 574b 5752 5906 5940 59a6 5998 59a0     IWKWRW.Y@Y.Y.Y.Y
   10930:	5997 598e 59a2 5990 598f 59a7 59a1 5b8e     .Y.Y.Y.Y.Y.Y.Y.[
   10940:	5b92 5c28 5c2a 5c8d 5c8f 5c88 5c8b 5c89     .[(\*\.\.\.\.\.\
   10950:	5c92 5c8a 5c86 5c93 5c95 5de0 5e0a 5e0e     .\.\.\.\.\.].^.^
   10960:	5e8b 5e89 5e8c 5e88 5e8d 5f05 5f1d 5f78     .^.^.^.^.^._._x_
   10970:	5f76 5fd2 5fd1 5fd0 5fed 5fe8 5fee 5ff3     v_._._._._._._._
   10980:	5fe1 5fe4 5fe3 5ffa 5fef 5ff7 5ffb 6000     ._._._._._._._.`
   10990:	5ff4 623a 6283 628c 628e 628f 6294 6287     ._:b.b.b.b.b.b.b
   109a0:	6271 627b 627a 6270 6281 6288 6277 627d     qb{bzbpb.b.bwb}b
   109b0:	6272 6274 6537 65f0 65f4 65f3 65f2 65f5     rbtb7e.e.e.e.e.e
   109c0:	6745 6747 6759 6755 674c 6748 675d 674d     EgGgYgUgLgHg]gMg
   109d0:	675a 674b 6bd0 6c19 6c1a 6c78 6c67 6c6b     ZgKg.k.l.lxlglkl
   109e0:	6c84 6c8b 6c8f 6c71 6c6f 6c69 6c9a 6c6d     .l.l.lqlolil.lml
   109f0:	6c87 6c95 6c9c 6c66 6c73 6c65 6c7b 6c8e     .l.l.lflslel{l.l
   10a00:	7074 707a 7263 72bf 72bd 72c3 72c6 72c1     tpzpcr.r.r.r.r.r
   10a10:	72ba 72c5 7395 7397 7393 7394 7392 753a     .r.r.s.s.s.s.s:u
   10a20:	7539 7594 7595 7681 793d 8034 8095 8099     9u.u.u.v=y4.....
   10a30:	8090 8092 809c 8290 828f 8285 828e 8291     ................
   10a40:	8293 828a 8283 8284 8c78 8fc9 8fbf 909f     ........x.......
   10a50:	90a1 90a5 909e 90a7 90a0 9630 9628 962f     ..........0.(./.
   10a60:	962d 4e33 4f98 4f7c 4f85 4f7d 4f80 4f87     -.3N.O|O.O}O.O.O
   10a70:	4f76 4f74 4f89 4f84 4f77 4f4c 4f97 4f6a     vOtO.O.OwOLO.OjO
   10a80:	4f9a 4f79 4f81 4f78 4f90 4f9c 4f94 4f9e     .OyO.OxO.O.O.O.O
   10a90:	4f92 4f82 4f95 4f6b 4f6e 519e 51bc 51be     .O.O.OkOnO.Q.Q.Q
   10aa0:	5235 5232 5233 5246 5231 52bc 530a 530b     5R2R3RFR1R.R.S.S
   10ab0:	533c 5392 5394 5487 547f 5481 5491 5482     <S.S.S.T.T.T.T.T
   10ac0:	5488 546b 547a 547e 5465 546c 5474 5466     .TkTzT~TeTlTtTfT
   10ad0:	548d 546f 5461 5460 5498 5463 5467 5464     .ToTaT`T.TcTgTdT
   10ae0:	56f7 56f9 576f 5772 576d 576b 5771 5770     .V.VoWrWmWkWqWpW
   10af0:	5776 5780 5775 577b 5773 5774 5762 5768     vW.WuW{WsWtWbWhW
   10b00:	577d 590c 5945 59b5 59ba 59cf 59ce 59b2     }W.YEY.Y.Y.Y.Y.Y
   10b10:	59cc 59c1 59b6 59bc 59c3 59d6 59b1 59bd     .Y.Y.Y.Y.Y.Y.Y.Y
   10b20:	59c0 59c8 59b4 59c7 5b62 5b65 5b93 5b95     .Y.Y.Y.Yb[e[.[.[
   10b30:	5c44 5c47 5cae 5ca4 5ca0 5cb5 5caf 5ca8     D\G\.\.\.\.\.\.\
   10b40:	5cac 5c9f 5ca3 5cad 5ca2 5caa 5ca7 5c9d     .\.\.\.\.\.\.\.\
   10b50:	5ca5 5cb6 5cb0 5ca6 5e17 5e14 5e19 5f28     .\.\.\.\.^.^.^(_
   10b60:	5f22 5f23 5f24 5f54 5f82 5f7e 5f7d 5fde     "_#_$_T_._~_}_._
   10b70:	5fe5 602d 6026 6019 6032 600b 6034 600a     ._-`&`.`2`.`4`.`
   10b80:	6017 6033 601a 601e 602c 6022 600d 6010     .`3`.`.`,`"`.`.`
   10b90:	602e 6013 6011 600c 6009 601c 6214 623d     .`.`.`.`.`.`.b=b
   10ba0:	62ad 62b4 62d1 62be 62aa 62b6 62ca 62ae     .b.b.b.b.b.b.b.b
   10bb0:	62b3 62af 62bb 62a9 62b0 62b8 653d 65a8     .b.b.b.b.b.b=e.e
   10bc0:	65bb 6609 65fc 6604 6612 6608 65fb 6603     .e.f.e.f.f.f.e.f
   10bd0:	660b 660d 6605 65fd 6611 6610 66f6 670a     .f.f.f.e.f.f.f.g
   10be0:	6785 676c 678e 6792 6776 677b 6798 6786     .glg.g.gvg{g.g.g
   10bf0:	6784 6774 678d 678c 677a 679f 6791 6799     .gtg.g.gzg.g.g.g
   10c00:	6783 677d 6781 6778 6779 6794 6b25 6b80     .g}g.gxgyg.g%k.k
   10c10:	6b7e 6bde 6c1d 6c93 6cec 6ceb 6cee 6cd9     ~k.k.l.l.l.l.l.l
   10c20:	6cb6 6cd4 6cad 6ce7 6cb7 6cd0 6cc2 6cba     .l.l.l.l.l.l.l.l
   10c30:	6cc3 6cc6 6ced 6cf2 6cd2 6cdd 6cb4 6c8a     .l.l.l.l.l.l.l.l
   10c40:	6c9d 6c80 6cde 6cc0 6d30 6ccd 6cc7 6cb0     .l.l.l.l0m.l.l.l
   10c50:	6cf9 6ccf 6ce9 6cd1 7094 7098 7085 7093     .l.l.l.l.p.p.p.p
   10c60:	7086 7084 7091 7096 7082 709a 7083 726a     .p.p.p.p.p.p.pjr
   10c70:	72d6 72cb 72d8 72c9 72dc 72d2 72d4 72da     .r.r.r.r.r.r.r.r
   10c80:	72cc 72d1 73a4 73a1 73ad 73a6 73a2 73a0     .r.r.s.s.s.s.s.s
   10c90:	73ac 739d 74dd 74e8 753f 7540 753e 758c     .s.s.t.t?u@u>u.u
   10ca0:	7598 76af 76f3 76f1 76f0 76f5 77f8 77fc     .u.v.v.v.v.v.w.w
   10cb0:	77f9 77fb 77fa 77f7 7942 793f 79c5 7a78     .w.w.w.wBy?y.yxz
   10cc0:	7a7b 7afb 7c75 7cfd 8035 808f 80ae 80a3     {z.zu|.|5.......
   10cd0:	80b8 80b5 80ad 8220 82a0 82c0 82ab 829a     ...... .........
   10ce0:	8298 829b 82b5 82a7 82ae 82bc 829e 82ba     ................
   10cf0:	82b4 82a8 82a1 82a9 82c2 82a4 82c3 82b6     ................
   10d00:	82a2 8670 866f 866d 866e 8c56 8fd2 8fcb     ..p.o.m.n.V.....
   10d10:	8fd3 8fcd 8fd6 8fd5 8fd7 90b2 90b4 90af     ................
   10d20:	90b3 90b0 9639 963d 963c 963a 9643 4fcd     ....9.=.<.:.C..O
   10d30:	4fc5 4fd3 4fb2 4fc9 4fcb 4fc1 4fd4 4fdc     .O.O.O.O.O.O.O.O
   10d40:	4fd9 4fbb 4fb3 4fdb 4fc7 4fd6 4fba 4fc0     .O.O.O.O.O.O.O.O
   10d50:	4fb9 4fec 5244 5249 52c0 52c2 533d 537c     .O.ODRIR.R.R=S|S
   10d60:	5397 5396 5399 5398 54ba 54a1 54ad 54a5     .S.S.S.S.T.T.T.T
   10d70:	54cf 54c3 830d 54b7 54ae 54d6 54b6 54c5     .T.T...T.T.T.T.T
   10d80:	54c6 54a0 5470 54bc 54a2 54be 5472 54de     .T.TpT.T.T.TrT.T
   10d90:	54b0 57b5 579e 579f 57a4 578c 5797 579d     .T.W.W.W.W.W.W.W
   10da0:	579b 5794 5798 578f 5799 57a5 579a 5795     .W.W.W.W.W.W.W.W
   10db0:	58f4 590d 5953 59e1 59de 59ee 5a00 59f1     .X.YSY.Y.Y.Y.Z.Y
   10dc0:	59dd 59fa 59fd 59fc 59f6 59e4 59f2 59f7     .Y.Y.Y.Y.Y.Y.Y.Y
   10dd0:	59db 59e9 59f3 59f5 59e0 59fe 59f4 59ed     .Y.Y.Y.Y.Y.Y.Y.Y
   10de0:	5ba8 5c4c 5cd0 5cd8 5ccc 5cd7 5ccb 5cdb     .[L\.\.\.\.\.\.\
   10df0:	5cde 5cda 5cc9 5cc7 5cca 5cd6 5cd3 5cd4     .\.\.\.\.\.\.\.\
   10e00:	5ccf 5cc8 5cc6 5cce 5cdf 5cf8 5df9 5e21     .\.\.\.\.\.\.]!^
   10e10:	5e22 5e23 5e20 5e24 5eb0 5ea4 5ea2 5e9b     "^#^ ^$^.^.^.^.^
   10e20:	5ea3 5ea5 5f07 5f2e 5f56 5f86 6037 6039     .^.^._._V_._7`9`
   10e30:	6054 6072 605e 6045 6053 6047 6049 605b     T`r`^`E`S`G`I`[`
   10e40:	604c 6040 6042 605f 6024 6044 6058 6066     L`@`B`_`$`D`X`f`
   10e50:	606e 6242 6243 62cf 630d 630b 62f5 630e     n`BbCb.b.c.c.b.c
   10e60:	6303 62eb 62f9 630f 630c 62f8 62f6 6300     .c.b.b.c.c.b.b.c
   10e70:	6313 6314 62fa 6315 62fb 62f0 6541 6543     .c.c.b.c.b.bAeCe
   10e80:	65aa 65bf 6636 6621 6632 6635 661c 6626     .e.e6f!f2f5f.f&f
   10e90:	6622 6633 662b 663a 661d 6634 6639 662e     "f3f+f:f.f4f9f.f
   10ea0:	670f 6710 67c1 67f2 67c8 67ba 67dc 67bb     .g.g.g.g.g.g.g.g
   10eb0:	67f8 67d8 67c0 67b7 67c5 67eb 67e4 67df     .g.g.g.g.g.g.g.g
   10ec0:	67b5 67cd 67b3 67f7 67f6 67ee 67e3 67c2     .g.g.g.g.g.g.g.g
   10ed0:	67b9 67ce 67e7 67f0 67b2 67fc 67c6 67ed     .g.g.g.g.g.g.g.g
   10ee0:	67cc 67ae 67e6 67db 67fa 67c9 67ca 67c3     .g.g.g.g.g.g.g.g
   10ef0:	67ea 67cb 6b28 6b82 6b84 6bb6 6bd6 6bd8     .g.g(k.k.k.k.k.k
   10f00:	6be0 6c20 6c21 6d28 6d34 6d2d 6d1f 6d3c     .k l!l(m4m-m.m<m
   10f10:	6d3f 6d12 6d0a 6cda 6d33 6d04 6d19 6d3a     ?m.m.m.l3m.m.m:m
   10f20:	6d1a 6d11 6d00 6d1d 6d42 6d01 6d18 6d37     .m.m.m.mBm.m.m7m
   10f30:	6d03 6d0f 6d40 6d07 6d20 6d2c 6d08 6d22     .m.m@m.m m,m.m"m
   10f40:	6d09 6d10 70b7 709f 70be 70b1 70b0 70a1     .m.m.p.p.p.p.p.p
   10f50:	70b4 70b5 70a9 7241 7249 724a 726c 7270     .p.p.pArIrJrlrpr
   10f60:	7273 726e 72ca 72e4 72e8 72eb 72df 72ea     srnr.r.r.r.r.r.r
   10f70:	72e6 72e3 7385 73cc 73c2 73c8 73c5 73b9     .r.r.s.s.s.s.s.s
   10f80:	73b6 73b5 73b4 73eb 73bf 73c7 73be 73c3     .s.s.s.s.s.s.s.s
   10f90:	73c6 73b8 73cb 74ec 74ee 752e 7547 7548     .s.s.s.t.t.uGuHu
   10fa0:	75a7 75aa 7679 76c4 7708 7703 7704 7705     .u.uyv.v.w.w.w.w
   10fb0:	770a 76f7 76fb 76fa 77e7 77e8 7806 7811     .w.v.v.v.w.w.x.x
   10fc0:	7812 7805 7810 780f 780e 7809 7803 7813     .x.x.x.x.x.x.x.x
   10fd0:	794a 794c 794b 7945 7944 79d5 79cd 79cf     JyLyKyEyDy.y.y.y
   10fe0:	79d6 79ce 7a80 7a7e 7ad1 7b00 7b01 7c7a     .y.y.z~z.z.{.{z|
   10ff0:	7c78 7c79 7c7f 7c80 7c81 7d03 7d08 7d01     x|y|.|.|.|.}.}.}
   11000:	7f58 7f91 7f8d 7fbe 8007 800e 800f 8014     X...............
   11010:	8037 80d8 80c7 80e0 80d1 80c8 80c2 80d0     7...............
   11020:	80c5 80e3 80d9 80dc 80ca 80d5 80c9 80cf     ................
   11030:	80d7 80e6 80cd 81ff 8221 8294 82d9 82fe     ........!.......
   11040:	82f9 8307 82e8 8300 82d5 833a 82eb 82d6     ..........:.....
   11050:	82f4 82ec 82e1 82f2 82f5 830c 82fb 82f6     ................
   11060:	82f0 82ea 82e4 82e0 82fa 82f3 82ed 8677     ..............w.
   11070:	8674 867c 8673 8841 884e 8867 886a 8869     t.|.s.A.N.g.j.i.
   11080:	89d3 8a04 8a07 8d72 8fe3 8fe1 8fee 8fe0     ......r.........
   11090:	90f1 90bd 90bf 90d5 90c5 90be 90c7 90cb     ................
   110a0:	90c8 91d4 91d3 9654 964f 9651 9653 964a     ......T.O.Q.S.J.
   110b0:	964e 501e 5005 5007 5013 5022 5030 501b     N..P.P.P.P"P0P.P
   110c0:	4ff5 4ff4 5033 5037 502c 4ff6 4ff7 5017     .O.O3P7P,P.O.O.P
   110d0:	501c 5020 5027 5035 502f 5031 500e 515a     .P P'P5P/P1P.PZQ
   110e0:	5194 5193 51ca 51c4 51c5 51c8 51ce 5261     .Q.Q.Q.Q.Q.Q.QaR
   110f0:	525a 5252 525e 525f 5255 5262 52cd 530e     ZRRR^R_RURbR.R.S
   11100:	539e 5526 54e2 5517 5512 54e7 54f3 54e4     .S&U.T.U.U.T.T.T
   11110:	551a 54ff 5504 5508 54eb 5511 5505 54f1     .U.T.U.U.T.U.U.T
   11120:	550a 54fb 54f7 54f8 54e0 550e 5503 550b     .U.T.T.T.T.U.U.U
   11130:	5701 5702 57cc 5832 57d5 57d2 57ba 57c6     .W.W.W2X.W.W.W.W
   11140:	57bd 57bc 57b8 57b6 57bf 57c7 57d0 57b9     .W.W.W.W.W.W.W.W
   11150:	57c1 590e 594a 5a19 5a16 5a2d 5a2e 5a15     .W.YJY.Z.Z-Z.Z.Z
   11160:	5a0f 5a17 5a0a 5a1e 5a33 5b6c 5ba7 5bad     .Z.Z.Z.Z3Zl[.[.[
   11170:	5bac 5c03 5c56 5c54 5cec 5cff 5cee 5cf1     .[.\V\T\.\.\.\.\
   11180:	5cf7 5d00 5cf9 5e29 5e28 5ea8 5eae 5eaa     .\.].\)^(^.^.^.^
   11190:	5eac 5f33 5f30 5f67 605d 605a 6067 6041     .^3_0_g_]`Z`g`A`
   111a0:	60a2 6088 6080 6092 6081 609d 6083 6095     .`.`.`.`.`.`.`.`
   111b0:	609b 6097 6087 609c 608e 6219 6246 62f2     .`.`.`.`.`.bFb.b
   111c0:	6310 6356 632c 6344 6345 6336 6343 63e4     .cVc,cDcEc6cCc.c
   111d0:	6339 634b 634a 633c 6329 6341 6334 6358     9cKcJc<c)cAc4cXc
   111e0:	6354 6359 632d 6347 6333 635a 6351 6338     TcYc-cGc3cZcQc8c
   111f0:	6357 6340 6348 654a 6546 65c6 65c3 65c4     Wc@cHcJeFe.e.e.e
   11200:	65c2 664a 665f 6647 6651 6712 6713 681f     .eJf_fGfQf.g.g.h
   11210:	681a 6849 6832 6833 683b 684b 684f 6816     .hIh2h3h;hKhOh.h
   11220:	6831 681c 6835 682b 682d 682f 684e 6844     1h.h5h+h-h/hNhDh
   11230:	6834 681d 6812 6814 6826 6828 682e 684d     4h.h.h.h&h(h.hMh
   11240:	683a 6825 6820 6b2c 6b2f 6b2d 6b31 6b34     :h%h h,k/k-k1k4k
   11250:	6b6d 8082 6b88 6be6 6be4 6be8 6be3 6be2     mk...k.k.k.k.k.k
   11260:	6be7 6c25 6d7a 6d63 6d64 6d76 6d0d 6d61     .k%lzmcmdmvm.mam
   11270:	6d92 6d58 6d62 6d6d 6d6f 6d91 6d8d 6def     .mXmbmmmom.m.m.m
   11280:	6d7f 6d86 6d5e 6d67 6d60 6d97 6d70 6d7c     .m.m^mgm`m.mpm|m
   11290:	6d5f 6d82 6d98 6d2f 6d68 6d8b 6d7e 6d80     _m.m.m/mhm.m~m.m
   112a0:	6d84 6d16 6d83 6d7b 6d7d 6d75 6d90 70dc     .m.m.m{m}mum.m.p
   112b0:	70d3 70d1 70dd 70cb 7f39 70e2 70d7 70d2     .p.p.p.p9..p.p.p
   112c0:	70de 70e0 70d4 70cd 70c5 70c6 70c7 70da     .p.p.p.p.p.p.p.p
   112d0:	70ce 70e1 7242 7278 7277 7276 7300 72fa     .p.pBrxrwrvr.s.r
   112e0:	72f4 72fe 72f6 72f3 72fb 7301 73d3 73d9     .r.r.r.r.r.s.s.s
   112f0:	73e5 73d6 73bc 73e7 73e3 73e9 73dc 73d2     .s.s.s.s.s.s.s.s
   11300:	73db 73d4 73dd 73da 73d7 73d8 73e8 74de     .s.s.s.s.s.s.s.t
   11310:	74df 74f4 74f5 7521 755b 755f 75b0 75c1     .t.t.t!u[u_u.u.u
   11320:	75bb 75c4 75c0 75bf 75b6 75ba 768a 76c9     .u.u.u.u.u.u.v.v
   11330:	771d 771b 7710 7713 7712 7723 7711 7715     .w.w.w.w.w#w.w.w
   11340:	7719 771a 7722 7727 7823 782c 7822 7835     .w.w"w'w#x,x"x5x
   11350:	782f 7828 782e 782b 7821 7829 7833 782a     /x(x.x+x!x)x3x*x
   11360:	7831 7954 795b 794f 795c 7953 7952 7951     1xTy[yOy\ySyRyQy
   11370:	79eb 79ec 79e0 79ee 79ed 79ea 79dc 79de     .y.y.y.y.y.y.y.y
   11380:	79dd 7a86 7a89 7a85 7a8b 7a8c 7a8a 7a87     .y.z.z.z.z.z.z.z
   11390:	7ad8 7b10 7b04 7b13 7b05 7b0f 7b08 7b0a     .z.{.{.{.{.{.{.{
   113a0:	7b0e 7b09 7b12 7c84 7c91 7c8a 7c8c 7c88     .{.{.{.|.|.|.|.|
   113b0:	7c8d 7c85 7d1e 7d1d 7d11 7d0e 7d18 7d16     .|.|.}.}.}.}.}.}
   113c0:	7d13 7d1f 7d12 7d0f 7d0c 7f5c 7f61 7f5e     .}.}.}.}.}\.a.^.
   113d0:	7f60 7f5d 7f5b 7f96 7f92 7fc3 7fc2 7fc0     `.].[...........
   113e0:	8016 803e 8039 80fa 80f2 80f9 80f5 8101     ..>.9...........
   113f0:	80fb 8100 8201 822f 8225 8333 832d 8344     ....../.%.3.-.D.
   11400:	8319 8351 8325 8356 833f 8341 8326 831c     ..Q.%.V.?.A.&...
   11410:	8322 8342 834e 831b 832a 8308 833c 834d     ".B.N...*...<.M.
   11420:	8316 8324 8320 8337 832f 8329 8347 8345     ..$. .7./.).G.E.
   11430:	834c 8353 831e 832c 834b 8327 8348 8653     L.S...,.K.'.H.S.
   11440:	8652 86a2 86a8 8696 868d 8691 869e 8687     R...............
   11450:	8697 8686 868b 869a 8685 86a5 8699 86a1     ................
   11460:	86a7 8695 8698 868e 869d 8690 8694 8843     ..............C.
   11470:	8844 886d 8875 8876 8872 8880 8871 887f     D.m.u.v.r...q...
   11480:	886f 8883 887e 8874 887c 8a12 8c47 8c57     o...~.t.|...G.W.
   11490:	8c7b 8ca4 8ca3 8d76 8d78 8db5 8db7 8db6     {.....v.x.......
   114a0:	8ed1 8ed3 8ffe 8ff5 9002 8fff 8ffb 9004     ................
   114b0:	8ffc 8ff6 90d6 90e0 90d9 90da 90e3 90df     ................
   114c0:	90e5 90d8 90db 90d7 90dc 90e4 9150 914e     ............P.N.
   114d0:	914f 91d5 91e2 91da 965c 965f 96bc 98e3     O.......\._.....
   114e0:	9adf 9b2f 4e7f 5070 506a 5061 505e 5060     ../..NpPjPaP^P`P
   114f0:	5053 504b 505d 5072 5048 504d 5041 505b     SPKP]PrPHPMPAP[P
   11500:	504a 5062 5015 5045 505f 5069 506b 5063     JPbP.PEP_PiPkPcP
   11510:	5064 5046 5040 506e 5073 5057 5051 51d0     dPFP@PnPsPWPQP.Q
   11520:	526b 526d 526c 526e 52d6 52d3 532d 539c     kRmRlRnR.R.R-S.S
   11530:	5575 5576 553c 554d 5550 5534 552a 5551     uUvU<UMUPU4U*UQU
   11540:	5562 5536 5535 5530 5552 5545 550c 5532     bU6U5U0URUEU.U2U
   11550:	5565 554e 5539 5548 552d 553b 5540 554b     eUNU9UHU-U;U@UKU
   11560:	570a 5707 57fb 5814 57e2 57f6 57dc 57f4     .W.W.W.X.W.W.W.W
   11570:	5800 57ed 57fd 5808 57f8 580b 57f3 57cf     .X.W.W.X.W.X.W.W
   11580:	5807 57ee 57e3 57f2 57e5 57ec 57e1 580e     .X.W.W.W.W.W.W.X
   11590:	57fc 5810 57e7 5801 580c 57f1 57e9 57f0     .W.X.W.X.X.W.W.W
   115a0:	580d 5804 595c 5a60 5a58 5a55 5a67 5a5e     .X.X\Y`ZXZUZgZ^Z
   115b0:	5a38 5a35 5a6d 5a50 5a5f 5a65 5a6c 5a53     8Z5ZmZPZ_ZeZlZSZ
   115c0:	5a64 5a57 5a43 5a5d 5a52 5a44 5a5b 5a48     dZWZCZ]ZRZDZ[ZHZ
   115d0:	5a8e 5a3e 5a4d 5a39 5a4c 5a70 5a69 5a47     .Z>ZMZ9ZLZpZiZGZ
   115e0:	5a51 5a56 5a42 5a5c 5b72 5b6e 5bc1 5bc0     QZVZBZ\Zr[n[.[.[
   115f0:	5c59 5d1e 5d0b 5d1d 5d1a 5d20 5d0c 5d28     Y\.].].].] ].](]
   11600:	5d0d 5d26 5d25 5d0f 5d30 5d12 5d23 5d1f     .]&]%].]0].]#].]
   11610:	5d2e 5e3e 5e34 5eb1 5eb4 5eb9 5eb2 5eb3     .]>^4^.^.^.^.^.^
   11620:	5f36 5f38 5f9b 5f96 5f9f 608a 6090 6086     6_8_._._._.`.`.`
   11630:	60be 60b0 60ba 60d3 60d4 60cf 60e4 60d9     .`.`.`.`.`.`.`.`
   11640:	60dd 60c8 60b1 60db 60b7 60ca 60bf 60c3     .`.`.`.`.`.`.`.`
   11650:	60cd 60c0 6332 6365 638a 6382 637d 63bd     .`.`2cec.c.c}c.c
   11660:	639e 63ad 639d 6397 63ab 638e 636f 6387     .c.c.c.c.c.coc.c
   11670:	6390 636e 63af 6375 639c 636d 63ae 637c     .cnc.cuc.cmc.c|c
   11680:	63a4 633b 639f 6378 6385 6381 6391 638d     .c;c.cxc.c.c.c.c
   11690:	6370 6553 65cd 6665 6661 665b 6659 665c     pcSe.eefaf[fYf\f
   116a0:	6662 6718 6879 6887 6890 689c 686d 686e     bf.gyh.h.h.hmhnh
   116b0:	68ae 68ab 6956 686f 68a3 68ac 68a9 6875     .h.hVioh.h.h.huh
   116c0:	6874 68b2 688f 6877 6892 687c 686b 6872     th.h.hwh.h|hkhrh
   116d0:	68aa 6880 6871 687e 689b 6896 688b 68a0     .h.hqh~h.h.h.h.h
   116e0:	6889 68a4 6878 687b 6891 688c 688a 687d     .h.hxh{h.h.h.h}h
   116f0:	6b36 6b33 6b37 6b38 6b91 6b8f 6b8d 6b8e     6k3k7k8k.k.k.k.k
   11700:	6b8c 6c2a 6dc0 6dab 6db4 6db3 6e74 6dac     .k*l.m.m.m.mtn.m
   11710:	6de9 6de2 6db7 6df6 6dd4 6e00 6dc8 6de0     .m.m.m.m.m.n.m.m
   11720:	6ddf 6dd6 6dbe 6de5 6ddc 6ddd 6ddb 6df4     .m.m.m.m.m.m.m.m
   11730:	6dca 6dbd 6ded 6df0 6dba 6dd5 6dc2 6dcf     .m.m.m.m.m.m.m.m
   11740:	6dc9 6dd0 6df2 6dd3 6dfd 6dd7 6dcd 6de3     .m.m.m.m.m.m.m.m
   11750:	6dbb 70fa 710d 70f7 7117 70f4 710c 70f0     .m.p.q.p.q.p.q.p
   11760:	7104 70f3 7110 70fc 70ff 7106 7113 7100     .q.p.q.p.p.q.q.q
   11770:	70f8 70f6 710b 7102 710e 727e 727b 727c     .p.p.q.q.q~r{r|r
   11780:	727f 731d 7317 7307 7311 7318 730a 7308     .r.s.s.s.s.s.s.s
   11790:	72ff 730f 731e 7388 73f6 73f8 73f5 7404     .r.s.s.s.s.s.s.t
   117a0:	7401 73fd 7407 7400 73fa 73fc 73ff 740c     .t.s.t.t.s.s.s.t
   117b0:	740b 73f4 7408 7564 7563 75ce 75d2 75cf     .t.s.tducu.u.u.u
   117c0:	75cb 75cc 75d1 75d0 768f 7689 76d3 7739     .u.u.u.u.v.v.v9w
   117d0:	772f 772d 7731 7732 7734 7733 773d 7725     /w-w1w2w4w3w=w%w
   117e0:	773b 7735 7848 7852 7849 784d 784a 784c     ;w5wHxRxIxMxJxLx
   117f0:	7826 7845 7850 7964 7967 7969 796a 7963     &xExPxdygyiyjycy
   11800:	796b 7961 79bb 79fa 79f8 79f6 79f7 7a8f     kyay.y.y.y.y.y.z
   11810:	7a94 7a90 7b35 7b47 7b34 7b25 7b30 7b22     .z.z5{G{4{%{0{"{
   11820:	7b24 7b33 7b18 7b2a 7b1d 7b31 7b2b 7b2d     ${3{.{*{.{1{+{-{
   11830:	7b2f 7b32 7b38 7b1a 7b23 7c94 7c98 7c96     /{2{8{.{#{.|.|.|
   11840:	7ca3 7d35 7d3d 7d38 7d36 7d3a 7d45 7d2c     .|5}=}8}6}:}E},}
   11850:	7d29 7d41 7d47 7d3e 7d3f 7d4a 7d3b 7d28     )}A}G}>}?}J};}(}
   11860:	7f63 7f95 7f9c 7f9d 7f9b 7fca 7fcb 7fcd     c...............
   11870:	7fd0 7fd1 7fc7 7fcf 7fc9 801f 801e 801b     ................
   11880:	8047 8043 8048 8118 8125 8119 811b 812d     G.C.H...%.....-.
   11890:	811f 812c 811e 8121 8115 8127 811d 8122     ..,...!...'...".
   118a0:	8211 8238 8233 823a 8234 8232 8274 8390     ..8.3.:.4.2.t...
   118b0:	83a3 83a8 838d 837a 8373 83a4 8374 838f     ......z.s...t...
   118c0:	8381 8395 8399 8375 8394 83a9 837d 8383     ......u.....}...
   118d0:	838c 839d 839b 83aa 838b 837e 83a5 83af     ..........~.....
   118e0:	8388 8397 83b0 837f 83a6 8387 83ae 8376     ..............v.
   118f0:	839a 8659 8656 86bf 86b7 86c2 86c1 86c5     ..Y.V...........
   11900:	86ba 86b0 86c8 86b9 86b3 86b8 86cc 86b4     ................
   11910:	86bb 86bc 86c3 86bd 86be 8852 8889 8895     ..........R.....
   11920:	88a8 88a2 88aa 889a 8891 88a1 889f 8898     ................
   11930:	88a7 8899 889b 8897 88a4 88ac 888c 8893     ................
   11940:	888e 8982 89d6 89d9 89d5 8a30 8a27 8a2c     ..........0.'.,.
   11950:	8a1e 8c39 8c3b 8c5c 8c5d 8c7d 8ca5 8d7d     ..9.;.\.].}...}.
   11960:	8d7b 8d79 8dbc 8dc2 8db9 8dbf 8dc1 8ed8     {.y.............
   11970:	8ede 8edd 8edc 8ed7 8ee0 8ee1 9024 900b     ............$...
   11980:	9011 901c 900c 9021 90ef 90ea 90f0 90f4     ......!.........
   11990:	90f2 90f3 90d4 90eb 90ec 90e9 9156 9158     ............V.X.
   119a0:	915a 9153 9155 91ec 91f4 91f1 91f3 91f8     Z.S.U...........
   119b0:	91e4 91f9 91ea 91eb 91f7 91e8 91ee 957a     ..............z.
   119c0:	9586 9588 967c 966d 966b 9671 966f 96bf     ....|.m.k.q.o...
   119d0:	976a 9804 98e5 9997 509b 5095 5094 509e     j........P.P.P.P
   119e0:	508b 50a3 5083 508c 508e 509d 5068 509c     .P.P.P.P.P.PhP.P
   119f0:	5092 5082 5087 515f 51d4 5312 5311 53a4     .P.P.P_Q.Q.S.S.S
   11a00:	53a7 5591 55a8 55a5 55ad 5577 5645 55a2     .S.U.U.U.UwUEV.U
   11a10:	5593 5588 558f 55b5 5581 55a3 5592 55a4     .U.U.U.U.U.U.U.U
   11a20:	557d 558c 55a6 557f 5595 55a1 558e 570c     }U.U.U.U.U.U.U.W
   11a30:	5829 5837 5819 581e 5827 5823 5828 57f5     )X7X.X.X'X#X(X.W
   11a40:	5848 5825 581c 581b 5833 583f 5836 582e     HX%X.X.X3X?X6X.X
   11a50:	5839 5838 582d 582c 583b 5961 5aaf 5a94     9X8X-X,X;XaY.Z.Z
   11a60:	5a9f 5a7a 5aa2 5a9e 5a78 5aa6 5a7c 5aa5     .ZzZ.Z.ZxZ.Z|Z.Z
   11a70:	5aac 5a95 5aae 5a37 5a84 5a8a 5a97 5a83     .Z.Z.Z7Z.Z.Z.Z.Z
   11a80:	5a8b 5aa9 5a7b 5a7d 5a8c 5a9c 5a8f 5a93     .Z.Z{Z}Z.Z.Z.Z.Z
   11a90:	5a9d 5bea 5bcd 5bcb 5bd4 5bd1 5bca 5bce     .Z.[.[.[.[.[.[.[
   11aa0:	5c0c 5c30 5d37 5d43 5d6b 5d41 5d4b 5d3f     .\0\7]C]k]A]K]?]
   11ab0:	5d35 5d51 5d4e 5d55 5d33 5d3a 5d52 5d3d     5]Q]N]U]3]:]R]=]
   11ac0:	5d31 5d59 5d42 5d39 5d49 5d38 5d3c 5d32     1]Y]B]9]I]8]<]2]
   11ad0:	5d36 5d40 5d45 5e44 5e41 5f58 5fa6 5fa5     6]@]E]D^A^X_._._
   11ae0:	5fab 60c9 60b9 60cc 60e2 60ce 60c4 6114     ._.`.`.`.`.`.`.a
   11af0:	60f2 610a 6116 6105 60f5 6113 60f8 60fc     .`.a.a.a.`.a.`.`
   11b00:	60fe 60c1 6103 6118 611d 6110 60ff 6104     .`.`.a.a.a.a.`.a
   11b10:	610b 624a 6394 63b1 63b0 63ce 63e5 63e8     .aJb.c.c.c.c.c.c
   11b20:	63ef 63c3 649d 63f3 63ca 63e0 63f6 63d5     .c.c.d.c.c.c.c.c
   11b30:	63f2 63f5 6461 63df 63be 63dd 63dc 63c4     .c.cad.c.c.c.c.c
   11b40:	63d8 63d3 63c2 63c7 63cc 63cb 63c8 63f0     .c.c.c.c.c.c.c.c
   11b50:	63d7 63d9 6532 6567 656a 6564 655c 6568     .c.c2egejede\ehe
   11b60:	6565 658c 659d 659e 65ae 65d0 65d2 667c     ee.e.e.e.e.e.e|f
   11b70:	666c 667b 6680 6671 6679 666a 6672 6701     lf{f.fqfyfjfrf.g
   11b80:	690c 68d3 6904 68dc 692a 68ec 68ea 68f1     .i.h.i.h*i.h.h.h
   11b90:	690f 68d6 68f7 68eb 68e4 68f6 6913 6910     .i.h.h.h.h.h.i.i
   11ba0:	68f3 68e1 6907 68cc 6908 6970 68b4 6911     .h.h.i.h.ipi.h.i
   11bb0:	68ef 68c6 6914 68f8 68d0 68fd 68fc 68e8     .h.h.i.h.h.h.h.h
   11bc0:	690b 690a 6917 68ce 68c8 68dd 68de 68e6     .i.i.i.h.h.h.h.h
   11bd0:	68f4 68d1 6906 68d4 68e9 6915 6925 68c7     .h.h.i.h.h.i%i.h
   11be0:	6b39 6b3b 6b3f 6b3c 6b94 6b97 6b99 6b95     9k;k?k<k.k.k.k.k
   11bf0:	6bbd 6bf0 6bf2 6bf3 6c30 6dfc 6e46 6e47     .k.k.k.k0l.mFnGn
   11c00:	6e1f 6e49 6e88 6e3c 6e3d 6e45 6e62 6e2b     .nIn.n<n=nEnbn+n
   11c10:	6e3f 6e41 6e5d 6e73 6e1c 6e33 6e4b 6e40     ?nAn]nsn.n3nKn@n
   11c20:	6e51 6e3b 6e03 6e2e 6e5e 6e68 6e5c 6e61     Qn;n.n.n^nhn\nan
   11c30:	6e31 6e28 6e60 6e71 6e6b 6e39 6e22 6e30     1n(n`nqnkn9n"n0n
   11c40:	6e53 6e65 6e27 6e78 6e64 6e77 6e55 6e79     Snen'nxndnwnUnyn
   11c50:	6e52 6e66 6e35 6e36 6e5a 7120 711e 712f     Rnfn5n6nZn q.q/q
   11c60:	70fb 712e 7131 7123 7125 7122 7132 711f     .p.q1q#q%q"q2q.q
   11c70:	7128 713a 711b 724b 725a 7288 7289 7286     (q:q.qKrZr.r.r.r
   11c80:	7285 728b 7312 730b 7330 7322 7331 7333     .r.r.s.s0s"s1s3s
   11c90:	7327 7332 732d 7326 7323 7335 730c 742e     's2s-s&s#s5s.s.t
   11ca0:	742c 7430 742b 7416 741a 7421 742d 7431     ,t0t+t.t.t!t-t1t
   11cb0:	7424 7423 741d 7429 7420 7432 74fb 752f     $t#t.t)t t2t.t/u
   11cc0:	756f 756c 75e7 75da 75e1 75e6 75dd 75df     oulu.u.u.u.u.u.u
   11cd0:	75e4 75d7 7695 7692 76da 7746 7747 7744     .u.u.v.v.vFwGwDw
   11ce0:	774d 7745 774a 774e 774b 774c 77de 77ec     MwEwJwNwKwLw.w.w
   11cf0:	7860 7864 7865 785c 786d 7871 786a 786e     `xdxex\xmxqxjxnx
   11d00:	7870 7869 7868 785e 7862 7974 7973 7972     pxixhx^xbxtysyry
   11d10:	7970 7a02 7a0a 7a03 7a0c 7a04 7a99 7ae6     py.z.z.z.z.z.z.z
   11d20:	7ae4 7b4a 7b3b 7b44 7b48 7b4c 7b4e 7b40     .zJ{;{D{H{L{N{@{
   11d30:	7b58 7b45 7ca2 7c9e 7ca8 7ca1 7d58 7d6f     X{E{.|.|.|.|X}o}
   11d40:	7d63 7d53 7d56 7d67 7d6a 7d4f 7d6d 7d5c     c}S}V}g}j}O}m}\}
   11d50:	7d6b 7d52 7d54 7d69 7d51 7d5f 7d4e 7f3e     k}R}T}i}Q}_}N}>.
   11d60:	7f3f 7f65 7f66 7fa2 7fa0 7fa1 7fd7 8051     ?.e.f.........Q.
   11d70:	804f 8050 80fe 80d4 8143 814a 8152 814f     O.P.....C.J.R.O.
   11d80:	8147 813d 814d 813a 81e6 81ee 81f7 81f8     G.=.M.:.........
   11d90:	81f9 8204 823c 823d 823f 8275 833b 83cf     ....<.=.?.u.;...
   11da0:	83f9 8423 83c0 83e8 8412 83e7 83e4 83fc     ..#.............
   11db0:	83f6 8410 83c6 83c8 83eb 83e3 83bf 8401     ................
   11dc0:	83dd 83e5 83d8 83ff 83e1 83cb 83ce 83d6     ................
   11dd0:	83f5 83c9 8409 840f 83de 8411 8406 83c2     ................
   11de0:	83f3 83d5 83fa 83c7 83d1 83ea 8413 83c3     ................
   11df0:	83ec 83ee 83c4 83fb 83d7 83e2 841b 83db     ................
   11e00:	83fe 86d8 86e2 86e6 86d3 86e3 86da 86ea     ................
   11e10:	86dd 86eb 86dc 86ec 86e9 86d7 86e8 86d1     ................
   11e20:	8848 8856 8855 88ba 88d7 88b9 88b8 88c0     H.V.U...........
   11e30:	88be 88b6 88bc 88b7 88bd 88b2 8901 88c9     ................
   11e40:	8995 8998 8997 89dd 89da 89db 8a4e 8a4d     ............N.M.
   11e50:	8a39 8a59 8a40 8a57 8a58 8a44 8a45 8a52     9.Y.@.W.X.D.E.R.
   11e60:	8a48 8a51 8a4a 8a4c 8a4f 8c5f 8c81 8c80     H.Q.J.L.O._.....
   11e70:	8cba 8cbe 8cb0 8cb9 8cb5 8d84 8d80 8d89     ................
   11e80:	8dd8 8dd3 8dcd 8dc7 8dd6 8ddc 8dcf 8dd5     ................
   11e90:	8dd9 8dc8 8dd7 8dc5 8eef 8ef7 8efa 8ef9     ................
   11ea0:	8ee6 8eee 8ee5 8ef5 8ee7 8ee8 8ef6 8eeb     ................
   11eb0:	8ef1 8eec 8ef4 8ee9 902d 9034 902f 9106     ........-.4./...
   11ec0:	912c 9104 90ff 90fc 9108 90f9 90fb 9101     ,...............
   11ed0:	9100 9107 9105 9103 9161 9164 915f 9162     ........a.d._.b.
   11ee0:	9160 9201 920a 9225 9203 921a 9226 920f     `.....%.....&...
   11ef0:	920c 9200 9212 91ff 91fd 9206 9204 9227     ..............'.
   11f00:	9202 921c 9224 9219 9217 9205 9216 957b     ....$.........{.
   11f10:	958d 958c 9590 9687 967e 9688 9689 9683     ........~.......
   11f20:	9680 96c2 96c8 96c3 96f1 96f0 976c 9770     ............l.p.
   11f30:	976e 9807 98a9 98eb 9ce6 9ef9 4e83 4e84     n............N.N
   11f40:	4eb6 50bd 50bf 50c6 50ae 50c4 50ca 50b4     .N.P.P.P.P.P.P.P
   11f50:	50c8 50c2 50b0 50c1 50ba 50b1 50cb 50c9     .P.P.P.P.P.P.P.P
   11f60:	50b6 50b8 51d7 527a 5278 527b 527c 55c3     .P.P.QzRxR{R|R.U
   11f70:	55db 55cc 55d0 55cb 55ca 55dd 55c0 55d4     .U.U.U.U.U.U.U.U
   11f80:	55c4 55e9 55bf 55d2 558d 55cf 55d5 55e2     .U.U.U.U.U.U.U.U
   11f90:	55d6 55c8 55f2 55cd 55d9 55c2 5714 5853     .U.U.U.U.U.U.WSX
   11fa0:	5868 5864 584f 584d 5849 586f 5855 584e     hXdXOXMXIXoXUXNX
   11fb0:	585d 5859 5865 585b 583d 5863 5871 58fc     ]XYXeX[X=XcXqX.X
   11fc0:	5ac7 5ac4 5acb 5aba 5ab8 5ab1 5ab5 5ab0     .Z.Z.Z.Z.Z.Z.Z.Z
   11fd0:	5abf 5ac8 5abb 5ac6 5ab7 5ac0 5aca 5ab4     .Z.Z.Z.Z.Z.Z.Z.Z
   11fe0:	5ab6 5acd 5ab9 5a90 5bd6 5bd8 5bd9 5c1f     .Z.Z.Z.Z.[.[.[.\
   11ff0:	5c33 5d71 5d63 5d4a 5d65 5d72 5d6c 5d5e     3\q]c]J]e]r]l]^]
   12000:	5d68 5d67 5d62 5df0 5e4f 5e4e 5e4a 5e4d     h]g]b].]O^N^J^M^
   12010:	5e4b 5ec5 5ecc 5ec6 5ecb 5ec7 5f40 5faf     K^.^.^.^.^.^@_._
   12020:	5fad 60f7 6149 614a 612b 6145 6136 6132     ._.`IaJa+aEa6a2a
   12030:	612e 6146 612f 614f 6129 6140 6220 9168     .aFa/aOa)a@a bh.
   12040:	6223 6225 6224 63c5 63f1 63eb 6410 6412     #b%b$b.c.c.c.d.d
   12050:	6409 6420 6424 6433 6443 641f 6415 6418     .d d$d3dCd.d.d.d
   12060:	6439 6437 6422 6423 640c 6426 6430 6428     9d7d"d#d.d&d0d(d
   12070:	6441 6435 642f 640a 641a 6440 6425 6427     Ad5d/d.d.d@d%d'd
   12080:	640b 63e7 641b 642e 6421 640e 656f 6592     .d.c.d.d!d.doe.e
   12090:	65d3 6686 668c 6695 6690 668b 668a 6699     .e.f.f.f.f.f.f.f
   120a0:	6694 6678 6720 6966 695f 6938 694e 6962     .fxf gfi_i8iNibi
   120b0:	6971 693f 6945 696a 6939 6942 6957 6959     qi?iEiji9iBiWiYi
   120c0:	697a 6948 6949 6935 696c 6933 693d 6965     ziHiIi5ili3i=iei
   120d0:	68f0 6978 6934 6969 6940 696f 6944 6976     .hxi4iii@ioiDivi
   120e0:	6958 6941 6974 694c 693b 694b 6937 695c     XiAitiLi;iKi7i\i
   120f0:	694f 6951 6932 6952 692f 697b 693c 6b46     OiQi2iRi/i{i<iFk
   12100:	6b45 6b43 6b42 6b48 6b41 6b9b fa0d 6bfb     EkCkBkHkAk.k...k
   12110:	6bfc 6bf9 6bf7 6bf8 6e9b 6ed6 6ec8 6e8f     .k.k.k.k.n.n.n.n
   12120:	6ec0 6e9f 6e93 6e94 6ea0 6eb1 6eb9 6ec6     .n.n.n.n.n.n.n.n
   12130:	6ed2 6ebd 6ec1 6e9e 6ec9 6eb7 6eb0 6ecd     .n.n.n.n.n.n.n.n
   12140:	6ea6 6ecf 6eb2 6ebe 6ec3 6edc 6ed8 6e99     .n.n.n.n.n.n.n.n
   12150:	6e92 6e8e 6e8d 6ea4 6ea1 6ebf 6eb3 6ed0     .n.n.n.n.n.n.n.n
   12160:	6eca 6e97 6eae 6ea3 7147 7154 7152 7163     .n.n.n.nGqTqRqcq
   12170:	7160 7141 715d 7162 7172 7178 716a 7161     `qAq]qbqrqxqjqaq
   12180:	7142 7158 7143 714b 7170 715f 7150 7153     BqXqCqKqpq_qPqSq
   12190:	7144 714d 715a 724f 728d 728c 7291 7290     DqMqZqOr.r.r.r.r
   121a0:	728e 733c 7342 733b 733a 7340 734a 7349     .r<sBs;s:s@sJsIs
   121b0:	7444 744a 744b 7452 7451 7457 7440 744f     DtJtKtRtQtWt@tOt
   121c0:	7450 744e 7442 7446 744d 7454 74e1 74ff     PtNtBtFtMtTt.t.t
   121d0:	74fe 74fd 751d 7579 7577 6983 75ef 760f     .t.t.uyuwu.i.u.v
   121e0:	7603 75f7 75fe 75fc 75f9 75f8 7610 75fb     .v.u.u.u.u.u.v.u
   121f0:	75f6 75ed 75f5 75fd 7699 76b5 76dd 7755     .u.u.u.u.v.v.vUw
   12200:	775f 7760 7752 7756 775a 7769 7767 7754     _w`wRwVwZwiwgwTw
   12210:	7759 776d 77e0 7887 789a 7894 788f 7884     Ywmw.w.x.x.x.x.x
   12220:	7895 7885 7886 78a1 7883 7879 7899 7880     .x.x.x.x.xyx.x.x
   12230:	7896 787b 797c 7982 797d 7979 7a11 7a18     .x{x|y.y}yyy.z.z
   12240:	7a19 7a12 7a17 7a15 7a22 7a13 7a1b 7a10     .z.z.z.z"z.z.z.z
   12250:	7aa3 7aa2 7a9e 7aeb 7b66 7b64 7b6d 7b74     .z.z.z.zf{d{m{t{
   12260:	7b69 7b72 7b65 7b73 7b71 7b70 7b61 7b78     i{r{e{s{q{p{a{x{
   12270:	7b76 7b63 7cb2 7cb4 7caf 7d88 7d86 7d80     v{c{.|.|.|.}.}.}
   12280:	7d8d 7d7f 7d85 7d7a 7d8e 7d7b 7d83 7d7c     .}.}.}z}.}{}.}|}
   12290:	7d8c 7d94 7d84 7d7d 7d92 7f6d 7f6b 7f67     .}.}.}}}.}m.k.g.
   122a0:	7f68 7f6c 7fa6 7fa5 7fa7 7fdb 7fdc 8021     h.l...........!.
   122b0:	8164 8160 8177 815c 8169 815b 8162 8172     d.`.w.\.i.[.b.r.
   122c0:	6721 815e 8176 8167 816f 8144 8161 821d     !g^.v.g.o.D.a...
   122d0:	8249 8244 8240 8242 8245 84f1 843f 8456     I.D.@.B.E...?.V.
   122e0:	8476 8479 848f 848d 8465 8451 8440 8486     v.y.....e.Q.@...
   122f0:	8467 8430 844d 847d 845a 8459 8474 8473     g.0.M.}.Z.Y.t.s.
   12300:	845d 8507 845e 8437 843a 8434 847a 8443     ]...^.7.:.4.z.C.
   12310:	8478 8432 8445 8429 83d9 844b 842f 8442     x.2.E.)...K./.B.
   12320:	842d 845f 8470 8439 844e 844c 8452 846f     -._.p.9.N.L.R.o.
   12330:	84c5 848e 843b 8447 8436 8433 8468 847e     ....;.G.6.3.h.~.
   12340:	8444 842b 8460 8454 846e 8450 870b 8704     D.+.`.T.n.P.....
   12350:	86f7 870c 86fa 86d6 86f5 874d 86f8 870e     ..........M.....
   12360:	8709 8701 86f6 870d 8705 88d6 88cb 88cd     ................
   12370:	88ce 88de 88db 88da 88cc 88d0 8985 899b     ................
   12380:	89df 89e5 89e4 89e1 89e0 89e2 89dc 89e6     ................
   12390:	8a76 8a86 8a7f 8a61 8a3f 8a77 8a82 8a84     v.....a.?.w.....
   123a0:	8a75 8a83 8a81 8a74 8a7a 8c3c 8c4b 8c4a     u.....t.z.<.K.J.
   123b0:	8c65 8c64 8c66 8c86 8c84 8c85 8ccc 8d68     e.d.f.........h.
   123c0:	8d69 8d91 8d8c 8d8e 8d8f 8d8d 8d93 8d94     i...............
   123d0:	8d90 8d92 8df0 8de0 8dec 8df1 8dee 8dd0     ................
   123e0:	8de9 8de3 8de2 8de7 8df2 8deb 8df4 8f06     ................
   123f0:	8eff 8f01 8f00 8f05 8f07 8f08 8f02 8f0b     ................
   12400:	9052 903f 9044 9049 903d 9110 910d 910f     R.?.D.I.=.......
   12410:	9111 9116 9114 910b 910e 916e 916f 9248     ..........n.o.H.
   12420:	9252 9230 923a 9266 9233 9265 925e 9283     R.0.:.f.3.e.^...
   12430:	922e 924a 9246 926d 926c 924f 9260 9267     ..J.F.m.l.O.`.g.
   12440:	926f 9236 9261 9270 9231 9254 9263 9250     o.6.a.p.1.T.c.P.
   12450:	9272 924e 9253 924c 9256 9232 959f 959c     r.N.S.L.V.2.....
   12460:	959e 959b 9692 9693 9691 9697 96ce 96fa     ................
   12470:	96fd 96f8 96f5 9773 9777 9778 9772 980f     ......s.w.x.r...
   12480:	980d 980e 98ac 98f6 98f9 99af 99b2 99b0     ................
   12490:	99b5 9aad 9aab 9b5b 9cea 9ced 9ce7 9e80     ......[.........
   124a0:	9efd 50e6 50d4 50d7 50e8 50f3 50db 50ea     ...P.P.P.P.P.P.P
   124b0:	50dd 50e4 50d3 50ec 50f0 50ef 50e3 50e0     .P.P.P.P.P.P.P.P
   124c0:	51d8 5280 5281 52e9 52eb 5330 53ac 5627     .Q.R.R.R.R0S.S'V
   124d0:	5615 560c 5612 55fc 560f 561c 5601 5613     .V.V.V.U.V.V.V.V
   124e0:	5602 55fa 561d 5604 55ff 55f9 5889 587c     .V.U.V.V.U.U.X|X
   124f0:	5890 5898 5886 5881 587f 5874 588b 587a     .X.X.X.X.XtX.XzX
   12500:	5887 5891 588e 5876 5882 5888 587b 5894     .X.X.XvX.X.X{X.X
   12510:	588f 58fe 596b 5adc 5aee 5ae5 5ad5 5aea     .X.XkY.Z.Z.Z.Z.Z
   12520:	5ada 5aed 5aeb 5af3 5ae2 5ae0 5adb 5aec     .Z.Z.Z.Z.Z.Z.Z.Z
   12530:	5ade 5add 5ad9 5ae8 5adf 5b77 5be0 5be3     .Z.Z.Z.Z.Zw[.[.[
   12540:	5c63 5d82 5d80 5d7d 5d86 5d7a 5d81 5d77     c\.].]}].]z].]w]
   12550:	5d8a 5d89 5d88 5d7e 5d7c 5d8d 5d79 5d7f     .].].]~]|].]y].]
   12560:	5e58 5e59 5e53 5ed8 5ed1 5ed7 5ece 5edc     X^Y^S^.^.^.^.^.^
   12570:	5ed5 5ed9 5ed2 5ed4 5f44 5f43 5f6f 5fb6     .^.^.^.^D_C_o_._
   12580:	612c 6128 6141 615e 6171 6173 6152 6153     ,a(aAa^aqasaRaSa
   12590:	6172 616c 6180 6174 6154 617a 615b 6165     rala.ataTaza[aea
   125a0:	613b 616a 6161 6156 6229 6227 622b 642b     ;ajaaaVa)b'b+b+d
   125b0:	644d 645b 645d 6474 6476 6472 6473 647d     Md[d]dtdvdrdsd}d
   125c0:	6475 6466 64a6 644e 6482 645e 645c 644b     udfd.dNd.d^d\dKd
   125d0:	6453 6460 6450 647f 643f 646c 646b 6459     Sd`dPd.d?dldkdYd
   125e0:	6465 6477 6573 65a0 66a1 66a0 669f 6705     edwdse.e.f.f.f.g
   125f0:	6704 6722 69b1 69b6 69c9 69a0 69ce 6996     .g"g.i.i.i.i.i.i
   12600:	69b0 69ac 69bc 6991 6999 698e 69a7 698d     .i.i.i.i.i.i.i.i
   12610:	69a9 69be 69af 69bf 69c4 69bd 69a4 69d4     .i.i.i.i.i.i.i.i
   12620:	69b9 69ca 699a 69cf 69b3 6993 69aa 69a1     .i.i.i.i.i.i.i.i
   12630:	699e 69d9 6997 6990 69c2 69b5 69a5 69c6     .i.i.i.i.i.i.i.i
   12640:	6b4a 6b4d 6b4b 6b9e 6b9f 6ba0 6bc3 6bc4     JkMkKk.k.k.k.k.k
   12650:	6bfe 6ece 6ef5 6ef1 6f03 6f25 6ef8 6f37     .k.n.n.n.o%o.n7o
   12660:	6efb 6f2e 6f09 6f4e 6f19 6f1a 6f27 6f18     .n.o.oNo.o.o'o.o
   12670:	6f3b 6f12 6eed 6f0a 6f36 6f73 6ef9 6eee     ;o.o.n.o6oso.n.n
   12680:	6f2d 6f40 6f30 6f3c 6f35 6eeb 6f07 6f0e     -o@o0o<o5o.n.o.o
   12690:	6f43 6f05 6efd 6ef6 6f39 6f1c 6efc 6f3a     Co.o.n.n9o.o.n:o
   126a0:	6f1f 6f0d 6f1e 6f08 6f21 7187 7190 7189     .o.o.o.o!o.q.q.q
   126b0:	7180 7185 7182 718f 717b 7186 7181 7197     .q.q.q.q{q.q.q.q
   126c0:	7244 7253 7297 7295 7293 7343 734d 7351     DrSr.r.r.rCsMsQs
   126d0:	734c 7462 7473 7471 7475 7472 7467 746e     Lsbtstqtutrtgtnt
   126e0:	7500 7502 7503 757d 7590 7616 7608 760c     .u.u.u}u.u.v.v.v
   126f0:	7615 7611 760a 7614 76b8 7781 777c 7785     .v.v.v.v.v.w|w.w
   12700:	7782 776e 7780 776f 777e 7783 78b2 78aa     .wnw.wow~w.w.x.x
   12710:	78b4 78ad 78a8 787e 78ab 789e 78a5 78a0     .x.x.x~x.x.x.x.x
   12720:	78ac 78a2 78a4 7998 798a 798b 7996 7995     .x.x.x.y.y.y.y.y
   12730:	7994 7993 7997 7988 7992 7990 7a2b 7a4a     .y.y.y.y.y.y+zJz
   12740:	7a30 7a2f 7a28 7a26 7aa8 7aab 7aac 7aee     0z/z(z&z.z.z.z.z
   12750:	7b88 7b9c 7b8a 7b91 7b90 7b96 7b8d 7b8c     .{.{.{.{.{.{.{.{
   12760:	7b9b 7b8e 7b85 7b98 5284 7b99 7ba4 7b82     .{.{.{.{.R.{.{.{
   12770:	7cbb 7cbf 7cbc 7cba 7da7 7db7 7dc2 7da3     .|.|.|.|.}.}.}.}
   12780:	7daa 7dc1 7dc0 7dc5 7d9d 7dce 7dc4 7dc6     .}.}.}.}.}.}.}.}
   12790:	7dcb 7dcc 7daf 7db9 7d96 7dbc 7d9f 7da6     .}.}.}.}.}.}.}.}
   127a0:	7dae 7da9 7da1 7dc9 7f73 7fe2 7fe3 7fe5     .}.}.}.}s.......
   127b0:	7fde 8024 805d 805c 8189 8186 8183 8187     ..$.].\.........
   127c0:	818d 818c 818b 8215 8497 84a4 84a1 849f     ................
   127d0:	84ba 84ce 84c2 84ac 84ae 84ab 84b9 84b4     ................
   127e0:	84c1 84cd 84aa 849a 84b1 84d0 849d 84a7     ................
   127f0:	84bb 84a2 8494 84c7 84cc 849b 84a9 84af     ................
   12800:	84a8 84d6 8498 84b6 84cf 84a0 84d7 84d4     ................
   12810:	84d2 84db 84b0 8491 8661 8733 8723 8728     ........a.3.#.(.
   12820:	876b 8740 872e 871e 8721 8719 871b 8743     k.@.....!.....C.
   12830:	872c 8741 873e 8746 8720 8732 872a 872d     ,.A.>.F. .2.*.-.
   12840:	873c 8712 873a 8731 8735 8742 8726 8727     <...:.1.5.B.&.'.
   12850:	8738 8724 871a 8730 8711 88f7 88e7 88f1     8.$...0.........
   12860:	88f2 88fa 88fe 88ee 88fc 88f6 88fb 88f0     ................
   12870:	88ec 88eb 899d 89a1 899f 899e 89e9 89eb     ................
   12880:	89e8 8aab 8a99 8a8b 8a92 8a8f 8a96 8c3d     ..............=.
   12890:	8c68 8c69 8cd5 8ccf 8cd7 8d96 8e09 8e02     h.i.............
   128a0:	8dff 8e0d 8dfd 8e0a 8e03 8e07 8e06 8e05     ................
   128b0:	8dfe 8e00 8e04 8f10 8f11 8f0e 8f0d 9123     ..............#.
   128c0:	911c 9120 9122 911f 911d 911a 9124 9121     .. .".......$.!.
   128d0:	911b 917a 9172 9179 9173 92a5 92a4 9276     ..z.r.y.s.....v.
   128e0:	929b 927a 92a0 9294 92aa 928d 92a6 929a     ..z.............
   128f0:	92ab 9279 9297 927f 92a3 92ee 928e 9282     ..y.............
   12900:	9295 92a2 927d 9288 92a1 928a 9286 928c     ....}...........
   12910:	9299 92a7 927e 9287 92a9 929d 928b 922d     ....~.........-.
   12920:	969e 96a1 96ff 9758 977d 977a 977e 9783     ......X.}.z.~...
   12930:	9780 9782 977b 9784 9781 977f 97ce 97cd     ....{...........
   12940:	9816 98ad 98ae 9902 9900 9907 999d 999c     ................
   12950:	99c3 99b9 99bb 99ba 99c2 99bd 99c7 9ab1     ................
   12960:	9ae3 9ae7 9b3e 9b3f 9b60 9b61 9b5f 9cf1     ....>.?.`.a._...
   12970:	9cf2 9cf5 9ea7 50ff 5103 5130 50f8 5106     .......P.Q0Q.P.Q
   12980:	5107 50f6 50fe 510b 510c 50fd 510a 528b     .Q.P.P.Q.Q.P.Q.R
   12990:	528c 52f1 52ef 5648 5642 564c 5635 5641     .R.R.RHVBVLV5VAV
   129a0:	564a 5649 5646 5658 565a 5640 5633 563d     JVIVFVXVZV@V3V=V
   129b0:	562c 563e 5638 562a 563a 571a 58ab 589d     ,V>V8V*V:V.W.X.X
   129c0:	58b1 58a0 58a3 58af 58ac 58a5 58a1 58ff     .X.X.X.X.X.X.X.X
   129d0:	5aff 5af4 5afd 5af7 5af6 5b03 5af8 5b02     .Z.Z.Z.Z.Z.[.Z.[
   129e0:	5af9 5b01 5b07 5b05 5b0f 5c67 5d99 5d97     .Z.[.[.[.[g\.].]
   129f0:	5d9f 5d92 5da2 5d93 5d95 5da0 5d9c 5da1     .].].].].].].].]
   12a00:	5d9a 5d9e 5e69 5e5d 5e60 5e5c 7df3 5edb     .].]i^]^`^\^.}.^
   12a10:	5ede 5ee1 5f49 5fb2 618b 6183 6179 61b1     .^.^I_._.a.aya.a
   12a20:	61b0 61a2 6189 619b 6193 61af 61ad 619f     .a.a.a.a.a.a.a.a
   12a30:	6192 61aa 61a1 618d 6166 61b3 622d 646e     .a.a.a.afa.a-bnd
   12a40:	6470 6496 64a0 6485 6497 649c 648f 648b     pd.d.d.d.d.d.d.d
   12a50:	648a 648c 64a3 649f 6468 64b1 6498 6576     .d.d.d.dhd.d.dve
   12a60:	657a 6579 657b 65b2 65b3 66b5 66b0 66a9     zeye{e.e.e.f.f.f
   12a70:	66b2 66b7 66aa 66af 6a00 6a06 6a17 69e5     .f.f.f.f.j.j.j.i
   12a80:	69f8 6a15 69f1 69e4 6a20 69ff 69ec 69e2     .i.j.i.i j.i.i.i
   12a90:	6a1b 6a1d 69fe 6a27 69f2 69ee 6a14 69f7     .j.j.i'j.i.i.j.i
   12aa0:	69e7 6a40 6a08 69e6 69fb 6a0d 69fc 69eb     .i@j.j.i.i.j.i.i
   12ab0:	6a09 6a04 6a18 6a25 6a0f 69f6 6a26 6a07     .j.j.j%j.j.i&j.j
   12ac0:	69f4 6a16 6b51 6ba5 6ba3 6ba2 6ba6 6c01     .i.jQk.k.k.k.k.l
   12ad0:	6c00 6bff 6c02 6f41 6f26 6f7e 6f87 6fc6     .l.k.lAo&o~o.o.o
   12ae0:	6f92 6f8d 6f89 6f8c 6f62 6f4f 6f85 6f5a     .o.o.o.oboOo.oZo
   12af0:	6f96 6f76 6f6c 6f82 6f55 6f72 6f52 6f50     .ovolo.oUoroRoPo
   12b00:	6f57 6f94 6f93 6f5d 6f00 6f61 6f6b 6f7d     Wo.o.o]o.oaoko}o
   12b10:	6f67 6f90 6f53 6f8b 6f69 6f7f 6f95 6f63     go.oSo.oio.o.oco
   12b20:	6f77 6f6a 6f7b 71b2 71af 719b 71b0 71a0     wojo{o.q.q.q.q.q
   12b30:	719a 71a9 71b5 719d 71a5 719e 71a4 71a1     .q.q.q.q.q.q.q.q
   12b40:	71aa 719c 71a7 71b3 7298 729a 7358 7352     .q.q.q.q.r.rXsRs
   12b50:	735e 735f 7360 735d 735b 7361 735a 7359     ^s_s`s]s[sasZsYs
   12b60:	7362 7487 7489 748a 7486 7481 747d 7485     bs.t.t.t.t.t}t.t
   12b70:	7488 747c 7479 7508 7507 757e 7625 761e     .t|tyt.u.u~u%v.v
   12b80:	7619 761d 761c 7623 761a 7628 761b 769c     .v.v.v#v.v(v.v.v
   12b90:	769d 769e 769b 778d 778f 7789 7788 78cd     .v.v.v.w.w.w.w.x
   12ba0:	78bb 78cf 78cc 78d1 78ce 78d4 78c8 78c3     .x.x.x.x.x.x.x.x
   12bb0:	78c4 78c9 799a 79a1 79a0 799c 79a2 799b     .x.x.y.y.y.y.y.y
   12bc0:	6b76 7a39 7ab2 7ab4 7ab3 7bb7 7bcb 7bbe     vk9z.z.z.z.{.{.{
   12bd0:	7bac 7bce 7baf 7bb9 7bca 7bb5 7cc5 7cc8     .{.{.{.{.{.{.|.|
   12be0:	7ccc 7ccb 7df7 7ddb 7dea 7de7 7dd7 7de1     .|.|.}.}.}.}.}.}
   12bf0:	7e03 7dfa 7de6 7df6 7df1 7df0 7dee 7ddf     .~.}.}.}.}.}.}.}
   12c00:	7f76 7fac 7fb0 7fad 7fed 7feb 7fea 7fec     v...............
   12c10:	7fe6 7fe8 8064 8067 81a3 819f 819e 8195     ....d.g.........
   12c20:	81a2 8199 8197 8216 824f 8253 8252 8250     ........O.S.R.P.
   12c30:	824e 8251 8524 853b 850f 8500 8529 850e     N.Q.$.;.....)...
   12c40:	8509 850d 851f 850a 8527 851c 84fb 852b     ........'.....+.
   12c50:	84fa 8508 850c 84f4 852a 84f2 8515 84f7     ........*.......
   12c60:	84eb 84f3 84fc 8512 84ea 84e9 8516 84fe     ................
   12c70:	8528 851d 852e 8502 84fd 851e 84f6 8531     (.............1.
   12c80:	8526 84e7 84e8 84f0 84ef 84f9 8518 8520     &............. .
   12c90:	8530 850b 8519 852f 8662 8756 8763 8764     0...../.b.V.c.d.
   12ca0:	8777 87e1 8773 8758 8754 875b 8752 8761     w...s.X.T.[.R.a.
   12cb0:	875a 8751 875e 876d 876a 8750 874e 875f     Z.Q.^.m.j.P.N._.
   12cc0:	875d 876f 876c 877a 876e 875c 8765 874f     ].o.l.z.n.\.e.O.
   12cd0:	877b 8775 8762 8767 8769 885a 8905 890c     {.u.b.g.i.Z.....
   12ce0:	8914 890b 8917 8918 8919 8906 8916 8911     ................
   12cf0:	890e 8909 89a2 89a4 89a3 89ed 89f0 89ec     ................
   12d00:	8acf 8ac6 8ab8 8ad3 8ad1 8ad4 8ad5 8abb     ................
   12d10:	8ad7 8abe 8ac0 8ac5 8ad8 8ac3 8aba 8abd     ................
   12d20:	8ad9 8c3e 8c4d 8c8f 8ce5 8cdf 8cd9 8ce8     ..>.M...........
   12d30:	8cda 8cdd 8ce7 8da0 8d9c 8da1 8d9b 8e20     .............. .
   12d40:	8e23 8e25 8e24 8e2e 8e15 8e1b 8e16 8e11     #.%.$...........
   12d50:	8e19 8e26 8e27 8e14 8e12 8e18 8e13 8e1c     ..&.'...........
   12d60:	8e17 8e1a 8f2c 8f24 8f18 8f1a 8f20 8f23     ....,.$..... .#.
   12d70:	8f16 8f17 9073 9070 906f 9067 906b 912f     ....s.p.o.g.k./.
   12d80:	912b 9129 912a 9132 9126 912e 9185 9186     +.).*.2.&.......
   12d90:	918a 9181 9182 9184 9180 92d0 92c3 92c4     ................
   12da0:	92c0 92d9 92b6 92cf 92f1 92df 92d8 92e9     ................
   12db0:	92d7 92dd 92cc 92ef 92c2 92e8 92ca 92c8     ................
   12dc0:	92ce 92e6 92cd 92d5 92c9 92e0 92de 92e7     ................
   12dd0:	92d1 92d3 92b5 92e1 92c6 92b4 957c 95ac     ............|...
   12de0:	95ab 95ae 95b0 96a4 96a2 96d3 9705 9708     ................
   12df0:	9702 975a 978a 978e 9788 97d0 97cf 981e     ..Z.............
   12e00:	981d 9826 9829 9828 9820 981b 9827 98b2     ..&.).(. ...'...
   12e10:	9908 98fa 9911 9914 9916 9917 9915 99dc     ................
   12e20:	99cd 99cf 99d3 99d4 99ce 99c9 99d6 99d8     ................
   12e30:	99cb 99d7 99cc 9ab3 9aec 9aeb 9af3 9af2     ................
   12e40:	9af1 9b46 9b43 9b67 9b74 9b71 9b66 9b76     ..F.C.g.t.q.f.v.
   12e50:	9b75 9b70 9b68 9b64 9b6c 9cfc 9cfa 9cfd     u.p.h.d.l.......
   12e60:	9cff 9cf7 9d07 9d00 9cf9 9cfb 9d08 9d05     ................
   12e70:	9d04 9e83 9ed3 9f0f 9f10 511c 5113 5117     ...........Q.Q.Q
   12e80:	511a 5111 51de 5334 53e1 5670 5660 566e     .Q.Q.Q4S.SpV`VnV
   12e90:	5673 5666 5663 566d 5672 565e 5677 571c     sVfVcVmVrV^VwV.W
   12ea0:	571b 58c8 58bd 58c9 58bf 58ba 58c2 58bc     .W.X.X.X.X.X.X.X
   12eb0:	58c6 5b17 5b19 5b1b 5b21 5b14 5b13 5b10     .X.[.[.[![.[.[.[
   12ec0:	5b16 5b28 5b1a 5b20 5b1e 5bef 5dac 5db1     .[([.[ [.[.[.].]
   12ed0:	5da9 5da7 5db5 5db0 5dae 5daa 5da8 5db2     .].].].].].].].]
   12ee0:	5dad 5daf 5db4 5e67 5e68 5e66 5e6f 5ee9     .].].]g^h^f^o^.^
   12ef0:	5ee7 5ee6 5ee8 5ee5 5f4b 5fbc 619d 61a8     .^.^.^.^K_._.a.a
   12f00:	6196 61c5 61b4 61c6 61c1 61cc 61ba 61bf     .a.a.a.a.a.a.a.a
   12f10:	61b8 618c 64d7 64d6 64d0 64cf 64c9 64bd     .a.a.d.d.d.d.d.d
   12f20:	6489 64c3 64db 64f3 64d9 6533 657f 657c     .d.d.d.d.d3e.e|e
   12f30:	65a2 66c8 66be 66c0 66ca 66cb 66cf 66bd     .e.f.f.f.f.f.f.f
   12f40:	66bb 66ba 66cc 6723 6a34 6a66 6a49 6a67     .f.f.f#g4jfjIjgj
   12f50:	6a32 6a68 6a3e 6a5d 6a6d 6a76 6a5b 6a51     2jhj>j]jmjvj[jQj
   12f60:	6a28 6a5a 6a3b 6a3f 6a41 6a6a 6a64 6a50     (jZj;j?jAjjjdjPj
   12f70:	6a4f 6a54 6a6f 6a69 6a60 6a3c 6a5e 6a56     OjTjojij`j<j^jVj
   12f80:	6a55 6a4d 6a4e 6a46 6b55 6b54 6b56 6ba7     UjMjNjFjUkTkVk.k
   12f90:	6baa 6bab 6bc8 6bc7 6c04 6c03 6c06 6fad     .k.k.k.k.l.l.l.o
   12fa0:	6fcb 6fa3 6fc7 6fbc 6fce 6fc8 6f5e 6fc4     .o.o.o.o.o.o^o.o
   12fb0:	6fbd 6f9e 6fca 6fa8 7004 6fa5 6fae 6fba     .o.o.o.o.p.o.o.o
   12fc0:	6fac 6faa 6fcf 6fbf 6fb8 6fa2 6fc9 6fab     .o.o.o.o.o.o.o.o
   12fd0:	6fcd 6faf 6fb2 6fb0 71c5 71c2 71bf 71b8     .o.o.o.o.q.q.q.q
   12fe0:	71d6 71c0 71c1 71cb 71d4 71ca 71c7 71cf     .q.q.q.q.q.q.q.q
   12ff0:	71bd 71d8 71bc 71c6 71da 71db 729d 729e     .q.q.q.q.q.q.r.r
   13000:	7369 7366 7367 736c 7365 736b 736a 747f     isfsgslsesksjs.t
   13010:	749a 74a0 7494 7492 7495 74a1 750b 7580     .t.t.t.t.t.t.u.u
   13020:	762f 762d 7631 763d 7633 763c 7635 7632     /v-v1v=v3v<v5v2v
   13030:	7630 76bb 76e6 779a 779d 77a1 779c 779b     0v.v.v.w.w.w.w.w
   13040:	77a2 77a3 7795 7799 7797 78dd 78e9 78e5     .w.w.w.w.w.x.x.x
   13050:	78ea 78de 78e3 78db 78e1 78e2 78ed 78df     .x.x.x.x.x.x.x.x
   13060:	78e0 79a4 7a44 7a48 7a47 7ab6 7ab8 7ab5     .x.yDzHzGz.z.z.z
   13070:	7ab1 7ab7 7bde 7be3 7be7 7bdd 7bd5 7be5     .z.z.{.{.{.{.{.{
   13080:	7bda 7be8 7bf9 7bd4 7bea 7be2 7bdc 7beb     .{.{.{.{.{.{.{.{
   13090:	7bd8 7bdf 7cd2 7cd4 7cd7 7cd0 7cd1 7e12     .{.{.|.|.|.|.|.~
   130a0:	7e21 7e17 7e0c 7e1f 7e20 7e13 7e0e 7e1c     !~.~.~.~ ~.~.~.~
   130b0:	7e15 7e1a 7e22 7e0b 7e0f 7e16 7e0d 7e14     .~.~"~.~.~.~.~.~
   130c0:	7e25 7e24 7f43 7f7b 7f7c 7f7a 7fb1 7fef     %~$~C.{.|.z.....
   130d0:	802a 8029 806c 81b1 81a6 81ae 81b9 81b5     *.).l...........
   130e0:	81ab 81b0 81ac 81b4 81b2 81b7 81a7 81f2     ................
   130f0:	8255 8256 8257 8556 8545 856b 854d 8553     U.V.W.V.E.k.M.S.
   13100:	8561 8558 8540 8546 8564 8541 8562 8544     a.X.@.F.d.A.b.D.
   13110:	8551 8547 8563 853e 855b 8571 854e 856e     Q.G.c.>.[.q.N.n.
   13120:	8575 8555 8567 8560 858c 8566 855d 8554     u.U.g.`...f.].T.
   13130:	8565 856c 8663 8665 8664 879b 878f 8797     e.l.c.e.d.......
   13140:	8793 8792 8788 8781 8796 8798 8779 8787     ............y...
   13150:	87a3 8785 8790 8791 879d 8784 8794 879c     ................
   13160:	879a 8789 891e 8926 8930 892d 892e 8927     ......&.0.-...'.
   13170:	8931 8922 8929 8923 892f 892c 891f 89f1     1.".).#./.,.....
   13180:	8ae0 8ae2 8af2 8af4 8af5 8add 8b14 8ae4     ................
   13190:	8adf 8af0 8ac8 8ade 8ae1 8ae8 8aff 8aef     ................
   131a0:	8afb 8c91 8c92 8c90 8cf5 8cee 8cf1 8cf0     ................
   131b0:	8cf3 8d6c 8d6e 8da5 8da7 8e33 8e3e 8e38     ..l.n.....3.>.8.
   131c0:	8e40 8e45 8e36 8e3c 8e3d 8e41 8e30 8e3f     @.E.6.<.=.A.0.?.
   131d0:	8ebd 8f36 8f2e 8f35 8f32 8f39 8f37 8f34     ..6...5.2.9.7.4.
   131e0:	9076 9079 907b 9086 90fa 9133 9135 9136     v.y.{.....3.5.6.
   131f0:	9193 9190 9191 918d 918f 9327 931e 9308     ..........'.....
   13200:	931f 9306 930f 937a 9338 933c 931b 9323     ......z.8.<...#.
   13210:	9312 9301 9346 932d 930e 930d 92cb 931d     ....F.-.........
   13220:	92fa 9325 9313 92f9 92f7 9334 9302 9324     ..%.......4...$.
   13230:	92ff 9329 9339 9335 932a 9314 930c 930b     ..).9.5.*.......
   13240:	92fe 9309 9300 92fb 9316 95bc 95cd 95be     ................
   13250:	95b9 95ba 95b6 95bf 95b5 95bd 96a9 96d4     ................
   13260:	970b 9712 9710 9799 9797 9794 97f0 97f8     ................
   13270:	9835 982f 9832 9924 991f 9927 9929 999e     5./.2.$...'.)...
   13280:	99ee 99ec 99e5 99e4 99f0 99e3 99ea 99e9     ................
   13290:	99e7 9ab9 9abf 9ab4 9abb 9af6 9afa 9af9     ................
   132a0:	9af7 9b33 9b80 9b85 9b87 9b7c 9b7e 9b7b     ..3.......|.~.{.
   132b0:	9b82 9b93 9b92 9b90 9b7a 9b95 9b7d 9b88     ........z...}...
   132c0:	9d25 9d17 9d20 9d1e 9d14 9d29 9d1d 9d18     %... .....).....
   132d0:	9d22 9d10 9d19 9d1f 9e88 9e86 9e87 9eae     "...............
   132e0:	9ead 9ed5 9ed6 9efa 9f12 9f3d 5126 5125     ..........=.&Q%Q
   132f0:	5122 5124 5120 5129 52f4 5693 568c 568d     "Q$Q Q)Q.R.V.V.V
   13300:	5686 5684 5683 567e 5682 567f 5681 58d6     .V.V.V~V.V.V.V.X
   13310:	58d4 58cf 58d2 5b2d 5b25 5b32 5b23 5b2c     .X.X.X-[%[2[#[,[
   13320:	5b27 5b26 5b2f 5b2e 5b7b 5bf1 5bf2 5db7     '[&[/[.[{[.[.[.]
   13330:	5e6c 5e6a 5fbe 5fbb 61c3 61b5 61bc 61e7     l^j^._._.a.a.a.a
   13340:	61e0 61e5 61e4 61e8 61de 64ef 64e9 64e3     .a.a.a.a.a.d.d.d
   13350:	64eb 64e4 64e8 6581 6580 65b6 65da 66d2     .d.d.d.e.e.e.e.f
   13360:	6a8d 6a96 6a81 6aa5 6a89 6a9f 6a9b 6aa1     .j.j.j.j.j.j.j.j
   13370:	6a9e 6a87 6a93 6a8e 6a95 6a83 6aa8 6aa4     .j.j.j.j.j.j.j.j
   13380:	6a91 6a7f 6aa6 6a9a 6a85 6a8c 6a92 6b5b     .j.j.j.j.j.j.j[k
   13390:	6bad 6c09 6fcc 6fa9 6ff4 6fd4 6fe3 6fdc     .k.l.o.o.o.o.o.o
   133a0:	6fed 6fe7 6fe6 6fde 6ff2 6fdd 6fe2 6fe8     .o.o.o.o.o.o.o.o
   133b0:	71e1 71f1 71e8 71f2 71e4 71f0 71e2 7373     .q.q.q.q.q.q.qss
   133c0:	736e 736f 7497 74b2 74ab 7490 74aa 74ad     nsos.t.t.t.t.t.t
   133d0:	74b1 74a5 74af 7510 7511 7512 750f 7584     .t.t.t.u.u.u.u.u
   133e0:	7643 7648 7649 7647 76a4 76e9 77b5 77ab     CvHvIvGv.v.v.w.w
   133f0:	77b2 77b7 77b6 77b4 77b1 77a8 77f0 78f3     .w.w.w.w.w.w.w.x
   13400:	78fd 7902 78fb 78fc 78f2 7905 78f9 78fe     .x.y.x.x.x.y.x.x
   13410:	7904 79ab 79a8 7a5c 7a5b 7a56 7a58 7a54     .y.y.y\z[zVzXzTz
   13420:	7a5a 7abe 7ac0 7ac1 7c05 7c0f 7bf2 7c00     Zz.z.z.z.|.|.{.|
   13430:	7bff 7bfb 7c0e 7bf4 7c0b 7bf3 7c02 7c09     .{.{.|.{.|.{.|.|
   13440:	7c03 7c01 7bf8 7bfd 7c06 7bf0 7bf1 7c10     .|.|.{.{.|.{.{.|
   13450:	7c0a 7ce8 7e2d 7e3c 7e42 7e33 9848 7e38     .|.|-~<~B~3~H.8~
   13460:	7e2a 7e49 7e40 7e47 7e29 7e4c 7e30 7e3b     *~I~@~G~)~L~0~;~
   13470:	7e36 7e44 7e3a 7f45 7f7f 7f7e 7f7d 7ff4     6~D~:~E...~.}...
   13480:	7ff2 802c 81bb 81c4 81cc 81ca 81c5 81c7     ..,.............
   13490:	81bc 81e9 825b 825a 825c 8583 8580 858f     ....[.Z.\.......
   134a0:	85a7 8595 85a0 858b 85a3 857b 85a4 859a     ..........{.....
   134b0:	859e 8577 857c 8589 85a1 857a 8578 8557     ..w.|.....z.x.W.
   134c0:	858e 8596 8586 858d 8599 859d 8581 85a2     ................
   134d0:	8582 8588 8585 8579 8576 8598 8590 859f     ......y.v.......
   134e0:	8668 87be 87aa 87ad 87c5 87b0 87ac 87b9     h...............
   134f0:	87b5 87bc 87ae 87c9 87c3 87c2 87cc 87b7     ................
   13500:	87af 87c4 87ca 87b4 87b6 87bf 87b8 87bd     ................
   13510:	87de 87b2 8935 8933 893c 893e 8941 8952     ....5.3.<.>.A.R.
   13520:	8937 8942 89ad 89af 89ae 89f2 89f3 8b1e     7.B.............
   13530:	8b18 8b16 8b11 8b05 8b0b 8b22 8b0f 8b12     ..........".....
   13540:	8b15 8b07 8b0d 8b08 8b06 8b1c 8b13 8b1a     ................
   13550:	8c4f 8c70 8c72 8c71 8c6f 8c95 8c94 8cf9     O.p.r.q.o.......
   13560:	8d6f 8e4e 8e4d 8e53 8e50 8e4c 8e47 8f43     o.N.M.S.P.L.G.C.
   13570:	8f40 9085 907e 9138 919a 91a2 919b 9199     @...~.8.........
   13580:	919f 91a1 919d 91a0 93a1 9383 93af 9364     ..............d.
   13590:	9356 9347 937c 9358 935c 9376 9349 9350     V.G.|.X.\.v.I.P.
   135a0:	9351 9360 936d 938f 934c 936a 9379 9357     Q.`.m...L.j.y.W.
   135b0:	9355 9352 934f 9371 9377 937b 9361 935e     U.R.O.q.w.{.a.^.
   135c0:	9363 9367 9380 934e 9359 95c7 95c0 95c9     c.g...N.Y.......
   135d0:	95c3 95c5 95b7 96ae 96b0 96ac 9720 971f     ............ ...
   135e0:	9718 971d 9719 979a 97a1 979c 979e 979d     ................
   135f0:	97d5 97d4 97f1 9841 9844 984a 9849 9845     ......A.D.J.I.E.
   13600:	9843 9925 992b 992c 992a 9933 9932 992f     C.%.+.,.*.3.2./.
   13610:	992d 9931 9930 9998 99a3 99a1 9a02 99fa     -.1.0...........
   13620:	99f4 99f7 99f9 99f8 99f6 99fb 99fd 99fe     ................
   13630:	99fc 9a03 9abe 9afe 9afd 9b01 9afc 9b48     ..............H.
   13640:	9b9a 9ba8 9b9e 9b9b 9ba6 9ba1 9ba5 9ba4     ................
   13650:	9b86 9ba2 9ba0 9baf 9d33 9d41 9d67 9d36     ........3.A.g.6.
   13660:	9d2e 9d2f 9d31 9d38 9d30 9d45 9d42 9d43     ../.1.8.0.E.B.C.
   13670:	9d3e 9d37 9d40 9d3d 7ff5 9d2d 9e8a 9e89     >.7.@.=...-.....
   13680:	9e8d 9eb0 9ec8 9eda 9efb 9eff 9f24 9f23     ............$.#.
   13690:	9f22 9f54 9fa0 5131 512d 512e 5698 569c     ".T...1Q-Q.Q.V.V
   136a0:	5697 569a 569d 5699 5970 5b3c 5c69 5c6a     .V.V.V.VpY<[i\j\
   136b0:	5dc0 5e6d 5e6e 61d8 61df 61ed 61ee 61f1     .]m^n^.a.a.a.a.a
   136c0:	61ea 61f0 61eb 61d6 61e9 64ff 6504 64fd     .a.a.a.a.a.d.e.d
   136d0:	64f8 6501 6503 64fc 6594 65db 66da 66db     .d.e.e.d.e.e.f.f
   136e0:	66d8 6ac5 6ab9 6abd 6ae1 6ac6 6aba 6ab6     .f.j.j.j.j.j.j.j
   136f0:	6ab7 6ac7 6ab4 6aad 6b5e 6bc9 6c0b 7007     .j.j.j.j^k.k.l.p
   13700:	700c 700d 7001 7005 7014 700e 6fff 7000     .p.p.p.p.p.p.o.p
   13710:	6ffb 7026 6ffc 6ff7 700a 7201 71ff 71f9     .o&p.o.o.p.r.q.q
   13720:	7203 71fd 7376 74b8 74c0 74b5 74c1 74be     .r.qvs.t.t.t.t.t
   13730:	74b6 74bb 74c2 7514 7513 765c 7664 7659     .t.t.t.u.u\vdvYv
   13740:	7650 7653 7657 765a 76a6 76bd 76ec 77c2     PvSvWvZv.v.v.v.w
   13750:	77ba 78ff 790c 7913 7914 7909 7910 7912     .w.x.y.y.y.y.y.y
   13760:	7911 79ad 79ac 7a5f 7c1c 7c29 7c19 7c20     .y.y.y_z.|)|.| |
   13770:	7c1f 7c2d 7c1d 7c26 7c28 7c22 7c25 7c30     .|-|.|&|(|"|%|0|
   13780:	7e5c 7e50 7e56 7e63 7e58 7e62 7e5f 7e51     \~P~V~c~X~b~_~Q~
   13790:	7e60 7e57 7e53 7fb5 7fb3 7ff7 7ff8 8075     `~W~S~........u.
   137a0:	81d1 81d2 81d0 825f 825e 85b4 85c6 85c0     ......_.^.......
   137b0:	85c3 85c2 85b3 85b5 85bd 85c7 85c4 85bf     ................
   137c0:	85cb 85ce 85c8 85c5 85b1 85b6 85d2 8624     ..............$.
   137d0:	85b8 85b7 85be 8669 87e7 87e6 87e2 87db     ......i.........
   137e0:	87eb 87ea 87e5 87df 87f3 87e4 87d4 87dc     ................
   137f0:	87d3 87ed 87d8 87e3 87a4 87d7 87d9 8801     ................
   13800:	87f4 87e8 87dd 8953 894b 894f 894c 8946     ......S.K.O.L.F.
   13810:	8950 8951 8949 8b2a 8b27 8b23 8b33 8b30     P.Q.I.*.'.#.3.0.
   13820:	8b35 8b47 8b2f 8b3c 8b3e 8b31 8b25 8b37     5.G./.<.>.1.%.7.
   13830:	8b26 8b36 8b2e 8b24 8b3b 8b3d 8b3a 8c42     &.6...$.;.=.:.B.
   13840:	8c75 8c99 8c98 8c97 8cfe 8d04 8d02 8d00     u...............
   13850:	8e5c 8e62 8e60 8e57 8e56 8e5e 8e65 8e67     \.b.`.W.V.^.e.g.
   13860:	8e5b 8e5a 8e61 8e5d 8e69 8e54 8f46 8f47     [.Z.a.].i.T.F.G.
   13870:	8f48 8f4b 9128 913a 913b 913e 91a8 91a5     H.K.(.:.;.>.....
   13880:	91a7 91af 91aa 93b5 938c 9392 93b7 939b     ................
   13890:	939d 9389 93a7 938e 93aa 939e 93a6 9395     ................
   138a0:	9388 9399 939f 938d 93b1 9391 93b2 93a4     ................
   138b0:	93a8 93b4 93a3 93a5 95d2 95d3 95d1 96b3     ................
   138c0:	96d7 96da 5dc2 96df 96d8 96dd 9723 9722     .....]......#.".
   138d0:	9725 97ac 97ae 97a8 97ab 97a4 97aa 97a2     %...............
   138e0:	97a5 97d7 97d9 97d6 97d8 97fa 9850 9851     ............P.Q.
   138f0:	9852 98b8 9941 993c 993a 9a0f 9a0b 9a09     R...A.<.:.......
   13900:	9a0d 9a04 9a11 9a0a 9a05 9a07 9a06 9ac0     ................
   13910:	9adc 9b08 9b04 9b05 9b29 9b35 9b4a 9b4c     ........).5.J.L.
   13920:	9b4b 9bc7 9bc6 9bc3 9bbf 9bc1 9bb5 9bb8     K...............
   13930:	9bd3 9bb6 9bc4 9bb9 9bbd 9d5c 9d53 9d4f     ..........\.S.O.
   13940:	9d4a 9d5b 9d4b 9d59 9d56 9d4c 9d57 9d52     J.[.K.Y.V.L.W.R.
   13950:	9d54 9d5f 9d58 9d5a 9e8e 9e8c 9edf 9f01     T._.X.Z.........
   13960:	9f00 9f16 9f25 9f2b 9f2a 9f29 9f28 9f4c     ....%.+.*.).(.L.
   13970:	9f55 5134 5135 5296 52f7 53b4 56ab 56ad     U.4Q5Q.R.R.S.V.V
   13980:	56a6 56a7 56aa 56ac 58da 58dd 58db 5912     .V.V.V.V.X.X.X.Y
   13990:	5b3d 5b3e 5b3f 5dc3 5e70 5fbf 61fb 6507     =[>[?[.]p^._.a.e
   139a0:	6510 650d 6509 650c 650e 6584 65de 65dd     .e.e.e.e.e.e.e.e
   139b0:	66de 6ae7 6ae0 6acc 6ad1 6ad9 6acb 6adf     .f.j.j.j.j.j.j.j
   139c0:	6adc 6ad0 6aeb 6acf 6acd 6ade 6b60 6bb0     .j.j.j.j.j.j`k.k
   139d0:	6c0c 7019 7027 7020 7016 702b 7021 7022     .l.p'p p.p+p!p"p
   139e0:	7023 7029 7017 7024 701c 702a 720c 720a     #p)p.p$p.p*p.r.r
   139f0:	7207 7202 7205 72a5 72a6 72a4 72a3 72a1     .r.r.r.r.r.r.r.r
   13a00:	74cb 74c5 74b7 74c3 7516 7660 77c9 77ca     .t.t.t.t.u`v.w.w
   13a10:	77c4 77f1 791d 791b 7921 791c 7917 791e     .w.w.y.y!y.y.y.y
   13a20:	79b0 7a67 7a68 7c33 7c3c 7c39 7c2c 7c3b     .ygzhz3|<|9|,|;|
   13a30:	7cec 7cea 7e76 7e75 7e78 7e70 7e77 7e6f     .|.|v~u~x~p~w~o~
   13a40:	7e7a 7e72 7e74 7e68 7f4b 7f4a 7f83 7f86     z~r~t~h~K.J.....
   13a50:	7fb7 7ffd 7ffe 8078 81d7 81d5 8264 8261     ......x.....d.a.
   13a60:	8263 85eb 85f1 85ed 85d9 85e1 85e8 85da     c...............
   13a70:	85d7 85ec 85f2 85f8 85d8 85df 85e3 85dc     ................
   13a80:	85d1 85f0 85e6 85ef 85de 85e2 8800 87fa     ................
   13a90:	8803 87f6 87f7 8809 880c 880b 8806 87fc     ................
   13aa0:	8808 87ff 880a 8802 8962 895a 895b 8957     ........b.Z.[.W.
   13ab0:	8961 895c 8958 895d 8959 8988 89b7 89b6     a.\.X.].Y.......
   13ac0:	89f6 8b50 8b48 8b4a 8b40 8b53 8b56 8b54     ..P.H.J.@.S.V.T.
   13ad0:	8b4b 8b55 8b51 8b42 8b52 8b57 8c43 8c77     K.U.Q.B.R.W.C.w.
   13ae0:	8c76 8c9a 8d06 8d07 8d09 8dac 8daa 8dad     v...............
   13af0:	8dab 8e6d 8e78 8e73 8e6a 8e6f 8e7b 8ec2     ..m.x.s.j.o.{...
   13b00:	8f52 8f51 8f4f 8f50 8f53 8fb4 9140 913f     R.Q.O.P.S...@.?.
   13b10:	91b0 91ad 93de 93c7 93cf 93c2 93da 93d0     ................
   13b20:	93f9 93ec 93cc 93d9 93a9 93e6 93ca 93d4     ................
   13b30:	93ee 93e3 93d5 93c4 93ce 93c0 93d2 93e7     ................
   13b40:	957d 95da 95db 96e1 9729 972b 972c 9728     }.......).+.,.(.
   13b50:	9726 97b3 97b7 97b6 97dd 97de 97df 985c     &.............\.
   13b60:	9859 985d 9857 98bf 98bd 98bb 98be 9948     Y.].W.........H.
   13b70:	9947 9943 99a6 99a7 9a1a 9a15 9a25 9a1d     G.C.........%...
   13b80:	9a24 9a1b 9a22 9a20 9a27 9a23 9a1e 9a1c     $...". .'.#.....
   13b90:	9a14 9ac2 9b0b 9b0a 9b0e 9b0c 9b37 9bea     ............7...
   13ba0:	9beb 9be0 9bde 9be4 9be6 9be2 9bf0 9bd4     ................
   13bb0:	9bd7 9bec 9bdc 9bd9 9be5 9bd5 9be1 9bda     ................
   13bc0:	9d77 9d81 9d8a 9d84 9d88 9d71 9d80 9d78     w.........q...x.
   13bd0:	9d86 9d8b 9d8c 9d7d 9d6b 9d74 9d75 9d70     ......}.k.t.u.p.
   13be0:	9d69 9d85 9d73 9d7b 9d82 9d6f 9d79 9d7f     i...s.{...o.y...
   13bf0:	9d87 9d68 9e94 9e91 9ec0 9efc 9f2d 9f40     ..h.........-.@.
   13c00:	9f41 9f4d 9f56 9f57 9f58 5337 56b2 56b5     A.M.V.W.X.7S.V.V
   13c10:	56b3 58e3 5b45 5dc6 5dc7 5eee 5eef 5fc0     .V.XE[.].].^.^._
   13c20:	5fc1 61f9 6517 6516 6515 6513 65df 66e8     ._.a.e.e.e.e.e.f
   13c30:	66e3 66e4 6af3 6af0 6aea 6ae8 6af9 6af1     .f.f.j.j.j.j.j.j
   13c40:	6aee 6aef 703c 7035 702f 7037 7034 7031     .j.j<p5p/p7p4p1p
   13c50:	7042 7038 703f 703a 7039 7040 703b 7033     Bp8p?p:p9p@p;p3p
   13c60:	7041 7213 7214 72a8 737d 737c 74ba 76ab     Ap.r.r.r}s|s.t.v
   13c70:	76aa 76be 76ed 77cc 77ce 77cf 77cd 77f2     .v.v.v.w.w.w.w.w
   13c80:	7925 7923 7927 7928 7924 7929 79b2 7a6e     %y#y'y(y$y)y.ynz
   13c90:	7a6c 7a6d 7af7 7c49 7c48 7c4a 7c47 7c45     lzmz.zI|H|J|G|E|
   13ca0:	7cee 7e7b 7e7e 7e81 7e80 7fba 7fff 8079     .|{~~~.~.~....y.
   13cb0:	81db 81d9 820b 8268 8269 8622 85ff 8601     ......h.i.".....
   13cc0:	85fe 861b 8600 85f6 8604 8609 8605 860c     ................
   13cd0:	85fd 8819 8810 8811 8817 8813 8816 8963     ..............c.
   13ce0:	8966 89b9 89f7 8b60 8b6a 8b5d 8b68 8b63     f.....`.j.].h.c.
   13cf0:	8b65 8b67 8b6d 8dae 8e86 8e88 8e84 8f59     e.g.m.........Y.
   13d00:	8f56 8f57 8f55 8f58 8f5a 908d 9143 9141     V.W.U.X.Z...C.A.
   13d10:	91b7 91b5 91b2 91b3 940b 9413 93fb 9420     .............. .
   13d20:	940f 9414 93fe 9415 9410 9428 9419 940d     ..........(.....
   13d30:	93f5 9400 93f7 9407 940e 9416 9412 93fa     ................
   13d40:	9409 93f8 940a 93ff 93fc 940c 93f6 9411     ................
   13d50:	9406 95de 95e0 95df 972e 972f 97b9 97bb     ........../.....
   13d60:	97fd 97fe 9860 9862 9863 985f 98c1 98c2     ....`.b.c._.....
   13d70:	9950 994e 9959 994c 994b 9953 9a32 9a34     P.N.Y.L.K.S.2.4.
   13d80:	9a31 9a2c 9a2a 9a36 9a29 9a2e 9a38 9a2d     1.,.*.6.)...8.-.
   13d90:	9ac7 9aca 9ac6 9b10 9b12 9b11 9c0b 9c08     ................
   13da0:	9bf7 9c05 9c12 9bf8 9c40 9c07 9c0e 9c06     ........@.......
   13db0:	9c17 9c14 9c09 9d9f 9d99 9da4 9d9d 9d92     ................
   13dc0:	9d98 9d90 9d9b 9da0 9d94 9d9c 9daa 9d97     ................
   13dd0:	9da1 9d9a 9da2 9da8 9d9e 9da3 9dbf 9da9     ................
   13de0:	9d96 9da6 9da7 9e99 9e9b 9e9a 9ee5 9ee4     ................
   13df0:	9ee7 9ee6 9f30 9f2e 9f5b 9f60 9f5e 9f5d     ....0...[.`.^.].
   13e00:	9f59 9f91 513a 5139 5298 5297 56c3 56bd     Y...:Q9Q.R.R.V.V
   13e10:	56be 5b48 5b47 5dcb 5dcf 5ef1 61fd 651b     .VH[G[.].].^.a.e
   13e20:	6b02 6afc 6b03 6af8 6b00 7043 7044 704a     .k.j.k.j.kCpDpJp
   13e30:	7048 7049 7045 7046 721d 721a 7219 737e     HpIpEpFp.r.r.r~s
   13e40:	7517 766a 77d0 792d 7931 792f 7c54 7c53     .ujv.w-y1y/yT|S|
   13e50:	7cf2 7e8a 7e87 7e88 7e8b 7e86 7e8d 7f4d     .|.~.~.~.~.~.~M.
   13e60:	7fbb 8030 81dd 8618 862a 8626 861f 8623     ..0.....*.&...#.
   13e70:	861c 8619 8627 862e 8621 8620 8629 861e     ....'...!. .)...
   13e80:	8625 8829 881d 881b 8820 8824 881c 882b     %.)..... .$...+.
   13e90:	884a 896d 8969 896e 896b 89fa 8b79 8b78     J.m.i.n.k...y.x.
   13ea0:	8b45 8b7a 8b7b 8d10 8d14 8daf 8e8e 8e8c     E.z.{...........
   13eb0:	8f5e 8f5b 8f5d 9146 9144 9145 91b9 943f     ^.[.].F.D.E...?.
   13ec0:	943b 9436 9429 943d 943c 9430 9439 942a     ;.6.).=.<.0.9.*.
   13ed0:	9437 942c 9440 9431 95e5 95e4 95e3 9735     7.,.@.1.......5.
   13ee0:	973a 97bf 97e1 9864 98c9 98c6 98c0 9958     :.....d.......X.
   13ef0:	9956 9a39 9a3d 9a46 9a44 9a42 9a41 9a3a     V.9.=.F.D.B.A.:.
   13f00:	9a3f 9acd 9b15 9b17 9b18 9b16 9b3a 9b52     ?...........:.R.
   13f10:	9c2b 9c1d 9c1c 9c2c 9c23 9c28 9c29 9c24     +.....,.#.(.).$.
   13f20:	9c21 9db7 9db6 9dbc 9dc1 9dc7 9dca 9dcf     !...............
   13f30:	9dbe 9dc5 9dc3 9dbb 9db5 9dce 9db9 9dba     ................
   13f40:	9dac 9dc8 9db1 9dad 9dcc 9db3 9dcd 9db2     ................
   13f50:	9e7a 9e9c 9eeb 9eee 9eed 9f1b 9f18 9f1a     z...............
   13f60:	9f31 9f4e 9f65 9f64 9f92 4eb9 56c6 56c5     1.N.e.d....N.V.V
   13f70:	56cb 5971 5b4b 5b4c 5dd5 5dd1 5ef2 6521     .VqYK[L[.].].^!e
   13f80:	6520 6526 6522 6b0b 6b08 6b09 6c0d 7055      e&e"e.k.k.k.lUp
   13f90:	7056 7057 7052 721e 721f 72a9 737f 74d8     VpWpRp.r.r.r.s.t
   13fa0:	74d5 74d9 74d7 766d 76ad 7935 79b4 7a70     .t.t.tmv.v5y.ypz
   13fb0:	7a71 7c57 7c5c 7c59 7c5b 7c5a 7cf4 7cf1     qzW|\|Y|[|Z|.|.|
   13fc0:	7e91 7f4f 7f87 81de 826b 8634 8635 8633     .~O.....k.4.5.3.
   13fd0:	862c 8632 8636 882c 8828 8826 882a 8825     ,.2.6.,.(.&.*.%.
   13fe0:	8971 89bf 89be 89fb 8b7e 8b84 8b82 8b86     q.......~.......
   13ff0:	8b85 8b7f 8d15 8e95 8e94 8e9a 8e92 8e90     ................
   14000:	8e96 8e97 8f60 8f62 9147 944c 9450 944a     ....`.b.G.L.P.J.
   14010:	944b 944f 9447 9445 9448 9449 9446 973f     K.O.G.E.H.I.F.?.
   14020:	97e3 986a 9869 98cb 9954 995b 9a4e 9a53     ..j.i...T.[.N.S.
   14030:	9a54 9a4c 9a4f 9a48 9a4a 9a49 9a52 9a50     T.L.O.H.J.I.R.P.
   14040:	9ad0 9b19 9b2b 9b3b 9b56 9b55 9c46 9c48     ....+.;.V.U.F.H.
   14050:	9c3f 9c44 9c39 9c33 9c41 9c3c 9c37 9c34     ?.D.9.3.A.<.7.4.
   14060:	9c32 9c3d 9c36 9ddb 9dd2 9dde 9dda 9dcb     2.=.6...........
   14070:	9dd0 9ddc 9dd1 9ddf 9de9 9dd9 9dd8 9dd6     ................
   14080:	9df5 9dd5 9ddd 9eb6 9ef0 9f35 9f33 9f32     ..........5.3.2.
   14090:	9f42 9f6b 9f95 9fa2 513d 5299 58e8 58e7     B.k.....=Q.R.X.X
   140a0:	5972 5b4d 5dd8 882f 5f4f 6201 6203 6204     rYM[.]/.O_.b.b.b
   140b0:	6529 6525 6596 66eb 6b11 6b12 6b0f 6bca     )e%e.e.f.k.k.k.k
   140c0:	705b 705a 7222 7382 7381 7383 7670 77d4     [pZp"r.s.s.spv.w
   140d0:	7c67 7c66 7e95 826c 863a 8640 8639 863c     g|f|.~l.:.@.9.<.
   140e0:	8631 863b 863e 8830 8832 882e 8833 8976     1.;.>.0.2...3.v.
   140f0:	8974 8973 89fe 8b8c 8b8e 8b8b 8b88 8c45     t.s...........E.
   14100:	8d19 8e98 8f64 8f63 91bc 9462 9455 945d     ....d.c...b.U.].
   14110:	9457 945e 97c4 97c5 9800 9a56 9a59 9b1e     W.^.......V.Y...
   14120:	9b1f 9b20 9c52 9c58 9c50 9c4a 9c4d 9c4b     .. .R.X.P.J.M.K.
   14130:	9c55 9c59 9c4c 9c4e 9dfb 9df7 9def 9de3     U.Y.L.N.........
   14140:	9deb 9df8 9de4 9df6 9de1 9dee 9de6 9df2     ................
   14150:	9df0 9de2 9dec 9df4 9df3 9de8 9ded 9ec2     ................
   14160:	9ed0 9ef2 9ef3 9f06 9f1c 9f38 9f37 9f36     ..........8.7.6.
   14170:	9f43 9f4f 9f71 9f70 9f6e 9f6f 56d3 56cd     C.O.q.p.n.o..V.V
   14180:	5b4e 5c6d 652d 66ed 66ee 6b13 705f 7061     N[m\-e.f.f.k_pap
   14190:	705d 7060 7223 74db 74e5 77d5 7938 79b7     ]p`p#r.t.t.w8y.y
   141a0:	79b6 7c6a 7e97 7f89 826d 8643 8838 8837     .yj|.~..m.C.8.7.
   141b0:	8835 884b 8b94 8b95 8e9e 8e9f 8ea0 8e9d     5.K.............
   141c0:	91be 91bd 91c2 946b 9468 9469 96e5 9746     ......k.h.i...F.
   141d0:	9743 9747 97c7 97e5 9a5e 9ad5 9b59 9c63     C.G.....^...Y.c.
   141e0:	9c67 9c66 9c62 9c5e 9c60 9e02 9dfe 9e07     g.f.b.^.`.......
   141f0:	9e03 9e06 9e05 9e00 9e01 9e09 9dff 9dfd     ................
   14200:	9e04 9ea0 9f1e 9f46 9f74 9f75 9f76 56d4     ......F.t.u.v..V
   14210:	652e 65b8 6b18 6b19 6b17 6b1a 7062 7226     .e.e.k.k.k.kbp&r
   14220:	72aa 77d8 77d9 7939 7c69 7c6b 7cf6 7e9a     .r.w.w9yi|k|.|.~
   14230:	7e98 7e9b 7e99 81e0 81e1 8646 8647 8648     .~.~.~....F.G.H.
   14240:	8979 897a 897c 897b 89ff 8b98 8b99 8ea5     y.z.|.{.........
   14250:	8ea4 8ea3 946e 946d 946f 9471 9473 9749     ....n.m.o.q.s.I.
   14260:	9872 995f 9c68 9c6e 9c6d 9e0b 9e0d 9e10     r._.h.n.m.......
   14270:	9e0f 9e12 9e11 9ea1 9ef5 9f09 9f47 9f78     ............G.x.
   14280:	9f7b 9f7a 9f79 571e 7066 7c6f 883c 8db2     {.z.y..Wfpo|<...
   14290:	8ea6 91c3 9474 9478 9476 9475 9a60 9c74     ....t.x.v.u.`.t.
   142a0:	9c73 9c71 9c75 9e14 9e13 9ef6 9f0a 9fa4     s.q.u...........
   142b0:	7068 7065 7cf7 866a 883e 883d 883f 8b9e     hpep.|j.>.=.?...
   142c0:	8c9c 8ea9 8ec9 974b 9873 9874 98cc 9961     ......K.s.t...a.
   142d0:	99ab 9a64 9a66 9a67 9b24 9e15 9e17 9f48     ..d.f.g.$.....H.
   142e0:	6207 6b1e 7227 864c 8ea8 9482 9480 9481     .b.k'rL.........
   142f0:	9a69 9a68 9b2e 9e19 7229 864b 8b9f 9483     i.h.....)rK.....
   14300:	9c79 9eb7 7675 9a6b 9c7a 9e1d 7069 706a     y...uvk.z...ipjp
   14310:	9ea4 9f7e 9f49 9f98 7881 92b9 88cf 58bb     ..~.I....x.....X
   14320:	6052 7ca7 5afa 2554 2566 2557 2560 256c     R`.|.ZT%f%W%`%l%
   14330:	2563 255a 2569 255d 2552 2564 2555 255e     c%Z%i%]%R%d%U%^%
   14340:	256a 2561 2558 2567 255b 2553 2565 2556     j%a%X%g%[%S%e%V%
   14350:	255f 256b 2562 2559 2568 255c 2551 2550     _%k%b%Y%h%\%Q%P%
   14360:	256d 256e 2570 256f 2593 0000               m%n%p%o%.%..

0001436c <uni2oem950>:
   1436c:	0000 0001 0002 0003 0004 0005 0006 0007     ................
   1437c:	0008 0009 000a 000b 000c 000d 000e 000f     ................
   1438c:	0010 0011 0012 0013 0014 0015 0016 0017     ................
   1439c:	0018 0019 001a 001b 001c 001d 001e 001f     ................
   143ac:	0020 0021 0022 0023 0024 0025 0026 0027      .!.".#.$.%.&.'.
   143bc:	0028 0029 002a 002b 002c 002d 002e 002f     (.).*.+.,.-.../.
   143cc:	0030 0031 0032 0033 0034 0035 0036 0037     0.1.2.3.4.5.6.7.
   143dc:	0038 0039 003a 003b 003c 003d 003e 003f     8.9.:.;.<.=.>.?.
   143ec:	0040 0041 0042 0043 0044 0045 0046 0047     @.A.B.C.D.E.F.G.
   143fc:	0048 0049 004a 004b 004c 004d 004e 004f     H.I.J.K.L.M.N.O.
   1440c:	0050 0051 0052 0053 0054 0055 0056 0057     P.Q.R.S.T.U.V.W.
   1441c:	0058 0059 005a 005b 005c 005d 005e 005f     X.Y.Z.[.\.].^._.
   1442c:	0060 0061 0062 0063 0064 0065 0066 0067     `.a.b.c.d.e.f.g.
   1443c:	0068 0069 006a 006b 006c 006d 006e 006f     h.i.j.k.l.m.n.o.
   1444c:	0070 0071 0072 0073 0074 0075 0076 0077     p.q.r.s.t.u.v.w.
   1445c:	0078 0079 007a 007b 007c 007d 007e 007f     x.y.z.{.|.}.~...
	...
   144b8:	0000 a1b1 0000 0000 0000 0000 0000 0000     ................
   144c8:	0000 a1c2 a258 a1d3 0000 0000 0000 0000     ....X...........
   144d8:	0000 a150 0000 0000 0000 0000 0000 0000     ..P.............
	...
   14518:	0000 a1d1 0000 0000 0000 0000 0000 0000     ................
	...
   14558:	0000 a1d2 0000 0000 0000 0000 0000 0000     ................
	...
   148f8:	0000 a3be 0000 a3bc a3bd a3bf 0000 a1c5     ................
	...
   1491c:	0000 a3bb 0000 0000 0000 0000 0000 0000     ................
	...
   14a8c:	0000 a344 a345 a346 a347 a348 a349 a34a     ..D.E.F.G.H.I.J.
   14a9c:	a34b a34c a34d a34e a34f a350 a351 a352     K.L.M.N.O.P.Q.R.
   14aac:	a353 a354 0000 a355 a356 a357 a358 a359     S.T...U.V.W.X.Y.
   14abc:	a35a a35b 0000 0000 0000 0000 0000 0000     Z.[.............
   14acc:	0000 a35c a35d a35e a35f a360 a361 a362     ..\.].^._.`.a.b.
   14adc:	a363 a364 a365 a366 a367 a368 a369 a36a     c.d.e.f.g.h.i.j.
   14aec:	a36b a36c 0000 a36d a36e a36f a370 a371     k.l...m.n.o.p.q.
   14afc:	a372 a373 0000 0000 0000 0000 0000 0000     r.s.............
	...
   14b90:	0000 a156 a158 0000 0000 0000 a1a5 a1a6     ..V.X...........
   14ba0:	0000 0000 a1a7 a1a8 0000 0000 0000 0000     ................
   14bb0:	0000 0000 0000 a14c a14b a145 0000 0000     ......L.K.E.....
	...
   14bd0:	a1ac 0000 0000 a1ab 0000 0000 0000 0000     ................
   14be0:	0000 a1b0 0000 0000 0000 0000 0000 0000     ................
	...
   14cc4:	a3e1 0000 0000 0000 0000 0000 0000 0000     ................
	...
   14d70:	0000 a24a 0000 a1c1 0000 0000 0000 a24b     ..J...........K.
	...
   14e2c:	a2b9 a2ba a2bb a2bc a2bd a2be a2bf a2c0     ................
   14e3c:	a2c1 a2c2 0000 0000 0000 0000 0000 0000     ................
	...
   14e8c:	a1f6 a1f4 a1f7 a1f5 0000 0000 a1f8 a1f9     ................
   14e9c:	a1fb a1fa 0000 0000 0000 0000 0000 0000     ................
	...
   14f94:	0000 a241 0000 0000 0000 0000 a1d4 0000     ..A.............
   14fa4:	0000 0000 a1db a1e8 a1e7 0000 0000 a1fd     ................
   14fb4:	0000 a1fc 0000 0000 0000 a1e4 a1e5 a1ec     ................
   14fc4:	0000 0000 a1ed 0000 0000 0000 0000 0000     ................
   14fd4:	a1ef a1ee 0000 0000 0000 0000 0000 0000     ................
	...
   15010:	a1dc 0000 0000 0000 0000 0000 0000 0000     ................
	...
   1502c:	a1da a1dd 0000 0000 0000 0000 a1d8 a1d9     ................
	...
   15094:	0000 a1f2 0000 0000 0000 a1f3 0000 0000     ................
	...
   150b4:	0000 a1e6 0000 0000 0000 0000 0000 0000     ................
	...
   150e8:	0000 a1e9 0000 0000 0000 0000 0000 0000     ................
	...
   1516c:	a277 0000 a278 0000 0000 0000 0000 0000     w...x...........
	...
   15184:	a27a 0000 0000 0000 a27b 0000 0000 0000     z.......{.......
   15194:	a27c 0000 0000 0000 a27d 0000 0000 0000     |.......}.......
   151a4:	a275 0000 0000 0000 0000 0000 0000 0000     u...............
   151b4:	a274 0000 0000 0000 0000 0000 0000 0000     t...............
   151c4:	a273 0000 0000 0000 0000 0000 0000 0000     s...............
   151d4:	a272 0000 0000 0000 0000 0000 0000 0000     r...............
   151e4:	a271 0000 0000 0000 0000 0000 0000 0000     q...............
	...
   1520c:	f9f9 f9f8 f9e6 f9ef f9dd f9e8 f9f1 f9df     ................
   1521c:	f9ec f9f5 f9e3 f9ee f9f7 f9e5 f9e9 f9f2     ................
   1522c:	f9e0 a2a7 f9f4 f9e2 f9e7 f9f0 f9de f9ed     ................
   1523c:	f9f6 f9e4 a2a6 f9f3 f9e1 a27e a2a1 f9fd     ..........~.....
   1524c:	f9fc a2ac a2ad a2ae a15a 0000 0000 0000     ........Z.......
	...
   1526c:	0000 a262 a263 a264 a265 a266 a267 a268     ..b.c.d.e.f.g.h.
   1527c:	a269 a270 a26f a26e a26d a26c a26b a26a     i.p.o.n.m.l.k.j.
   1528c:	0000 0000 0000 f9fe a276 a279 0000 0000     ........v.y.....
	...
   152ac:	a1bd a1bc 0000 0000 0000 0000 0000 0000     ................
	...
   152d0:	a1b6 a1b5 0000 0000 0000 0000 0000 0000     ................
   152e0:	0000 0000 a1bf a1be 0000 0000 0000 0000     ................
	...
   152f8:	a1bb a1ba 0000 0000 0000 a1b3 0000 0000     ................
   15308:	a1b7 a1b4 0000 0000 0000 0000 0000 0000     ................
	...
   15330:	a2a8 a2a9 a2ab a2aa 0000 0000 0000 0000     ................
	...
   15374:	0000 a1b9 a1b8 0000 0000 0000 0000 0000     ................
	...
   153ec:	a1f0 0000 a1f1 0000 0000 0000 0000 0000     ................
	...
   1556c:	a140 a142 a143 a1b2 0000 0000 0000 0000     @.B.C...........
   1557c:	a171 a172 a16d a16e a175 a176 a179 a17a     q.r.m.n.u.v.y.z.
   1558c:	a169 a16a a245 0000 a165 a166 0000 0000     i.j.E...e.f.....
	...
   155a4:	0000 a1a9 a1aa 0000 0000 a2c3 a2c4 a2c5     ................
   155b4:	a2c6 a2c7 a2c8 a2c9 a2ca a2cb 0000 0000     ................
	...
   15774:	0000 a374 a375 a376 a377 a378 a379 a37a     ..t.u.v.w.x.y.z.
   15784:	a37b a37c a37d a37e a3a1 a3a2 a3a3 a3a4     {.|.}.~.........
   15794:	a3a5 a3a6 a3a7 a3a8 a3a9 a3aa a3ab a3ac     ................
   157a4:	a3ad a3ae a3af a3b0 a3b1 a3b2 a3b3 a3b4     ................
   157b4:	a3b5 a3b6 a3b7 a3b8 a3b9 a3ba 0000 0000     ................
	...
   15ab0:	0000 a1c0 0000 0000 0000 0000 0000 0000     ................
	...
   15c88:	a255 a256 0000 0000 0000 0000 0000 0000     U.V.............
	...
   15ca4:	a250 a251 a252 0000 0000 a254 0000 0000     P.Q.R.....T.....
	...
   15cf4:	a257 0000 0000 0000 0000 0000 0000 0000     W...............
   15d04:	0000 0000 a253 0000 0000 a1eb a1ea 0000     ....S...........
   15d14:	0000 a24f 0000 0000 0000 0000 0000 0000     ..O.............
	...
   15d6c:	a440 a442 0000 a443 0000 0000 0000 c945     @.B...C.......E.
   15d7c:	a456 a454 a457 a455 c946 a4a3 c94f c94d     V.T.W.U.F...O.M.
   15d8c:	a4a2 a4a1 0000 0000 a542 a541 a540 0000     ........B.A.@...
   15d9c:	a543 a4fe 0000 0000 0000 0000 a5e0 a5e1     C...............
	...
   15db8:	a8c3 0000 0000 0000 0000 a458 0000 a4a4     ..........X.....
   15dc8:	c950 0000 a4a5 c963 a6ea cbb1 0000 0000     P.....c.........
   15dd8:	0000 0000 a459 a4a6 0000 a544 c964 0000     ....Y.....D.d...
	...
   15df0:	c940 a444 0000 a45b 0000 c947 a45c 0000     @.D...[...G.\...
   15e00:	0000 a4a7 0000 a545 a547 a546 0000 0000     ......E.G.F.....
   15e10:	a5e2 a5e3 0000 0000 a8c4 0000 adbc a441     ..............A.
   15e20:	0000 0000 c941 a445 a45e a45d 0000 0000     ....A.E.^.].....
	...
   15e3c:	0000 a5e4 0000 0000 0000 0000 0000 0000     ................
   15e4c:	0000 0000 0000 a8c5 0000 0000 0000 0000     ................
	...
   15e68:	b0ae d44b 0000 0000 b6c3 dcb1 dcb2 0000     ..K.............
   15e78:	a446 0000 a4a9 0000 0000 a8c6 a447 c948     F...........G.H.
   15e88:	a45f 0000 0000 a4aa a4ac c951 a4ad a4ab     _.........Q.....
   15e98:	0000 0000 0000 a5e5 0000 a8c7 0000 0000     ................
   15ea8:	a8c8 ab45 0000 a460 a4ae 0000 a5e6 a5e8     ..E...`.........
   15eb8:	a5e7 0000 a6eb 0000 0000 a8c9 a8ca ab46     ..............F.
   15ec8:	ab47 0000 0000 0000 0000 adbd 0000 0000     G...............
   15ed8:	dcb3 0000 0000 f6d6 a448 0000 0000 0000     ........H.......
   15ee8:	0000 0000 a4b0 a4af c952 a4b1 a4b7 0000     ........R.......
   15ef8:	a4b2 a4b3 c954 c953 a4b5 a4b6 0000 a4b4     ....T.S.........
	...
   15f14:	a54a a54b a54c a54d a549 a550 c96a 0000     J.K.L.M.I.P.j...
   15f24:	c966 c969 a551 a561 0000 c968 0000 a54e     f.i.Q.a...h...N.
   15f34:	a54f a548 0000 0000 c965 c967 0000 0000     O.H.....e.g.....
	...
   15f4c:	a5f5 c9b0 a5f2 a5f6 c9ba c9ae a5f3 c9b2     ................
   15f5c:	0000 0000 0000 a5f4 0000 a5f7 0000 a5e9     ................
   15f6c:	c9b1 a5f8 c9b5 0000 c9b9 c9b6 0000 0000     ................
   15f7c:	c9b3 a5ea a5ec a5f9 0000 a5ee c9ab a5f1     ................
   15f8c:	a5ef a5f0 c9bb c9b8 c9af a5ed 0000 0000     ................
   15f9c:	c9ac a5eb 0000 0000 0000 c9b4 0000 0000     ................
   15fac:	0000 0000 c9b7 0000 0000 0000 0000 0000     ................
	...
   15fc4:	c9ad ca66 0000 a742 a6f4 0000 0000 ca67     ..f...B.......g.
   15fd4:	a6f1 0000 a744 0000 a6f9 0000 a6f8 ca5b     ....D.........[.
   15fe4:	a6fc a6f7 ca60 ca68 0000 ca64 0000 a6fa     ....`.h...d.....
   15ff4:	0000 0000 a6fd a6ee a747 ca5d 0000 0000     ........G.].....
   16004:	cbbd a6ec a743 a6ed a6f5 a6f6 ca62 ca5e     ....C.......b.^.
   16014:	a6fb a6f3 ca5a a6ef ca65 a745 a748 a6f2     ....Z...e.E.H...
   16024:	a740 a746 a6f0 ca63 a741 ca69 ca5c a6fe     @.F...c.A.i.\...
   16034:	ca5f 0000 0000 ca61 0000 a8d8 cbbf cbcb     _.....a.........
   16044:	a8d0 0000 cbcc a8cb a8d5 0000 0000 a8ce     ................
   16054:	cbb9 a8d6 cbb8 cbbc cbc3 cbc1 a8de a8d9     ................
   16064:	cbb3 cbb5 a8db a8cf cbb6 cbc2 cbc9 a8d4     ................
   16074:	cbbb cbb4 a8d3 cbb7 a8d7 cbba 0000 a8d2     ................
   16084:	0000 a8cd 0000 a8dc cbc4 a8dd cbc8 0000     ................
   16094:	cbc6 cbca a8da cbbe cbb2 0000 cbc0 a8d1     ................
   160a4:	cbc5 a8cc cbc7 0000 0000 0000 0000 0000     ................
	...
   160c8:	ab56 ab4a 0000 0000 cde0 cde8 0000 ab49     V.J...........I.
   160d8:	ab51 ab5d 0000 cdee cdec cde7 0000 0000     Q.].............
   160e8:	0000 ab4b cded cde3 ab59 ab50 ab58 cdde     ..K.....Y.P.X...
   160f8:	0000 cdea 0000 cde1 ab54 cde2 0000 cddd     ........T.......
   16108:	ab5b ab4e ab57 ab4d 0000 cddf cde4 0000     [.N.W.M.........
   16118:	cdeb ab55 ab52 cde6 ab5a cde9 cde5 ab4f     ..U.R...Z.....O.
   16128:	ab5c ab53 ab4c ab48 0000 0000 0000 0000     \.S.L.H.........
	...
   16144:	cdef 0000 add7 adc1 0000 add1 0000 add6     ................
   16154:	d0d0 d0cf d0d4 d0d5 adc4 0000 adcd 0000     ................
   16164:	0000 0000 adda 0000 adce 0000 0000 0000     ................
   16174:	0000 d0c9 adc7 d0ca 0000 addc 0000 add3     ................
   16184:	adbe adbf d0dd b0bf 0000 adcc adcb d0cb     ................
   16194:	adcf d45b adc6 d0d6 add5 add4 adca d0ce     ..[.............
   161a4:	d0d7 0000 d0c8 adc9 d0d8 add2 d0cc adc0     ................
   161b4:	0000 adc3 adc2 d0d9 add0 adc5 add9 addb     ................
   161c4:	d0d3 add8 0000 d0db d0cd d0dc 0000 d0d1     ................
   161d4:	0000 d0da 0000 d0d2 0000 0000 0000 0000     ................
   161e4:	adc8 0000 0000 0000 d463 d457 0000 b0b3     ........c.W.....
   161f4:	0000 d45c d462 b0b2 d455 b0b6 d459 d452     ..\.b...U...Y.R.
   16204:	b0b4 d456 b0b9 b0be 0000 d467 0000 d451     ..V.......g...Q.
   16214:	0000 b0ba 0000 d466 0000 0000 b0b5 d458     ......f.......X.
   16224:	b0b1 d453 d44f d45d d450 d44e d45a d460     ..S.O.].P.N.Z.`.
   16234:	d461 b0b7 0000 0000 d85b d45e d44d d45f     a.......[.^.M._.
   16244:	0000 b0c1 d464 b0c0 d44c 0000 d454 d465     ....d...L...T.e.
   16254:	b0bc b0bb b0b8 b0bd 0000 0000 b0af 0000     ................
   16264:	0000 b0b0 0000 0000 b3c8 0000 d85e d857     ............^.W.
   16274:	0000 b3c5 0000 d85f 0000 0000 0000 d855     ......_.......U.
   16284:	d858 b3c4 d859 0000 0000 b3c7 d85d 0000     X...Y.......]...
   16294:	d853 d852 b3c9 0000 b3ca b3c6 b3cb d851     S.R...........Q.
   162a4:	d85c d85a d854 0000 0000 0000 b3c3 d856     \.Z.T.........V.
	...
   162c4:	b6ca b6c4 dcb7 b6cd dcbd dcc0 b6c6 b6c7     ................
   162d4:	dcba b6c5 dcc3 b6cb dcc4 0000 dcbf b6cc     ................
   162e4:	0000 dcb4 b6c9 dcb5 0000 dcbe dcbc 0000     ................
   162f4:	dcb8 b6c8 dcb6 b6ce dcbb dcc2 dcb9 dcc1     ................
   16304:	0000 0000 b9b6 b9b3 0000 b9b4 0000 e0f9     ................
   16314:	e0f1 b9b2 b9af e0f2 0000 0000 b9b1 e0f5     ................
   16324:	0000 e0f7 0000 0000 e0fe 0000 0000 e0fd     ................
   16334:	e0f8 b9ae e0f0 b9ac e0f3 b9b7 e0f6 0000     ................
   16344:	e0fa b9b0 b9ad e0fc e0fb b9b5 0000 e0f4     ................
   16354:	0000 bbf8 e4ec 0000 e4e9 bbf9 0000 bbf7     ................
   16364:	0000 e4f0 e4ed e4e6 bbf6 0000 bbfa e4e7     ................
   16374:	bbf5 bbfd e4ea e4eb bbfb bbfc e4f1 e4ee     ................
   16384:	e4ef 0000 0000 0000 beaa e8f8 bea7 e8f5     ................
   16394:	bea9 beab 0000 e8f6 bea8 0000 e8f7 0000     ................
   163a4:	e8f4 0000 0000 c076 ecbd c077 ecbb 0000     ......v...w.....
   163b4:	ecbc ecba ecb9 0000 0000 ecbe c075 0000     ............u...
   163c4:	0000 efb8 efb9 0000 e4e8 efb7 c078 c35f     ............x._.
   163d4:	f1eb f1ec 0000 c4d7 c4d8 f5c1 f5c0 c56c     ..............l.
   163e4:	c56b f7d0 0000 a449 a461 a4b9 0000 a4b8     k.....I.a.......
   163f4:	a553 a552 a5fc a5fb a5fd a5fa 0000 a74a     S.R...........J.
   16404:	a749 a74b 0000 0000 0000 0000 a8e0 0000     I.K.............
   16414:	a8df a8e1 0000 ab5e 0000 a259 d0de a25a     ......^...Y...Z.
   16424:	b0c2 a25c a25b d860 0000 a25d b9b8 a25e     ..\.[.`...]...^.
   16434:	0000 a44a 0000 a4ba a5fe a8e2 0000 a44b     ..J...........K.
   16444:	a4bd a4bb a4bc 0000 0000 a640 0000 0000     ..........@.....
   16454:	0000 a74c a8e4 a8e3 a8e5 0000 0000 0000     ..L.............
   16464:	addd 0000 0000 0000 beac 0000 0000 0000     ................
   16474:	0000 0000 0000 c94e 0000 a554 a555 0000     ......N...T.U...
   16484:	0000 a641 0000 ca6a 0000 ab60 ab5f d0e0     ..A...j...`._...
   16494:	d0df b0c3 0000 a4be c955 0000 0000 0000     ........U.......
   164a4:	0000 0000 cbcd 0000 ab61 0000 ade0 0000     ........a.......
   164b4:	adde addf 0000 0000 0000 0000 bead 0000     ................
   164c4:	a556 0000 0000 0000 a642 c9bc 0000 0000     V.......B.......
   164d4:	0000 0000 a74d a74e 0000 ca6b 0000 0000     ....M.N...k.....
   164e4:	cbce a8e6 cbcf 0000 0000 0000 0000 0000     ................
   164f4:	d0e2 d0e3 ade3 0000 d0e4 0000 d0e1 ade4     ................
   16504:	ade2 ade1 d0e5 0000 d468 0000 0000 0000     ........h.......
   16514:	d861 0000 0000 dcc5 e140 0000 0000 0000     a.......@.......
   16524:	bbfe beae e8f9 0000 a44c a45a 0000 0000     ........L.Z.....
	...
   1654c:	b0c4 b3cd 0000 b9b9 0000 c942 a4bf 0000     ..........B.....
   1655c:	a559 a557 a558 0000 0000 a8e7 0000 0000     Y.W.X...........
   1656c:	a44d a44e 0000 a462 0000 0000 a4c0 a4c1     M.N...b.........
   1657c:	a4c2 c9be a55a 0000 c96b 0000 a646 0000     ....Z...k...F...
   1658c:	c9bf a644 a645 c9bd 0000 0000 a647 a643     ..D.E.......G.C.
	...
   165a4:	ca6c aaec ca6d 0000 0000 ca6e 0000 0000     l...m.....n.....
   165b4:	a750 a74f 0000 0000 a753 a751 a752 0000     P.O.....S.Q.R...
   165c4:	0000 0000 a8ed 0000 a8ec cbd4 cbd1 cbd2     ................
   165d4:	0000 cbd0 a8ee a8ea a8e9 0000 a8eb a8e8     ................
	...
   165ec:	0000 a8ef 0000 ab63 cdf0 0000 cbd3 ab68     ......c.......h.
   165fc:	0000 cdf1 ab64 ab67 ab66 ab65 ab62 0000     ....d.g.f.e.b...
   1660c:	0000 0000 d0e8 0000 ade7 d0eb ade5 0000     ................
   1661c:	0000 0000 d0e7 ade8 ade6 ade9 d0e9 d0ea     ................
   1662c:	0000 d0e6 d0ec 0000 0000 0000 0000 0000     ................
   1663c:	0000 b3d1 b0c5 d469 d46b d46a d46c b0c6     ......i.k.j.l...
   1664c:	0000 0000 b3ce 0000 b3cf b3d0 0000 b6d0     ................
   1665c:	dcc7 0000 dcc6 dcc8 dcc9 b6d1 0000 b6cf     ................
   1666c:	e141 e142 b9bb b9ba e35a 0000 0000 bc40     A.B.....Z.....@.
   1667c:	bc41 bc42 bc44 e4f2 e4f3 bc43 0000 0000     A.B.D.....C.....
   1668c:	0000 beaf 0000 beb0 0000 0000 f1ed f5c3     ................
   1669c:	f5c2 f7d1 0000 a44f 0000 0000 0000 a55c     ......O.......\.
   166ac:	a55b 0000 0000 a648 0000 0000 c9c0 0000     [.....H.........
   166bc:	0000 a755 a756 a754 a757 ca6f ca70 0000     ..U.V.T.W.o.p...
	...
   166e0:	0000 a8f1 cbd5 0000 a8f0 0000 cdf2 ab6c     ..............l.
   166f0:	cdf3 ab6b 0000 0000 0000 ab69 0000 ab6a     ..k.......i...j.
   16700:	0000 0000 0000 d0ed 0000 0000 0000 0000     ................
   16710:	b0c7 d46e 0000 b0ca d46d b1e5 b0c9 b0c8     ..n.....m.......
   16720:	0000 b3d4 0000 b3d3 b3d2 b6d2 0000 0000     ................
   16730:	b6d5 b6d6 b6d4 0000 b6d3 0000 0000 e143     ..............C.
   16740:	0000 e144 0000 0000 0000 e4f5 bc45 e4f4     ..D.........E...
   16750:	0000 beb1 ecbf c079 0000 f1ee c455 0000     ......y.....U...
   16760:	a463 a4c3 c956 0000 a4c4 a4c5 0000 0000     c...V...........
   16770:	0000 0000 0000 a55d a55e 0000 a649 ca71     ......].^...I.q.
   16780:	cbd6 cbd7 0000 ab6d d0ee b0cc b0cb d863     ......m.......c.
   16790:	d862 0000 0000 a450 a4c6 a55f 0000 b0cd     b.....P..._.....
   167a0:	c943 0000 c96c a560 0000 c9c2 a64b a64a     C...l.`.....K.J.
   167b0:	c9c1 a758 0000 0000 0000 0000 0000 0000     ..X.............
   167c0:	adea 0000 0000 d46f 0000 b6d7 e145 b9bc     ......o.....E...
   167d0:	0000 0000 e8fa 0000 0000 f3fd 0000 a4c7     ................
   167e0:	0000 0000 cbd8 cdf4 b0d0 b0ce b0cf a2cc     ................
   167f0:	0000 a464 a2cd a2ce 0000 a4c9 a4c8 a563     ..d...........c.
   16800:	a562 0000 c96d c9c3 0000 0000 0000 a8f5     b...m...........
   16810:	a8f2 a8f4 a8f3 0000 0000 ab6e 0000 0000     ..........n.....
   16820:	b3d5 0000 a452 0000 a4cb 0000 a565 a564     ....R.......e.d.
   16830:	0000 ca72 0000 0000 a8f6 0000 0000 0000     ..r.............
   16840:	0000 0000 c957 0000 a567 a566 a64c a64d     ....W...g.f.L.M.
   16850:	ca73 a759 0000 a75a 0000 a8f7 a8f8 a8f9     s.Y...Z.........
   16860:	0000 ab6f cdf5 0000 0000 adeb 0000 0000     ..o.............
   16870:	c944 0000 a4cc 0000 0000 0000 0000 0000     D...............
   16880:	c9c4 0000 0000 0000 ca74 ca75 0000 0000     ........t.u.....
   16890:	cbd9 0000 cbda 0000 cdf7 cdf6 cdf9 cdf8     ................
   168a0:	ab70 0000 d470 aded d0ef adec 0000 0000     p...p...........
   168b0:	0000 0000 d864 b3d6 0000 d865 0000 0000     ....d.....e.....
   168c0:	0000 0000 e146 b9bd 0000 0000 0000 0000     ....F...........
   168d0:	bc46 0000 f1ef 0000 0000 0000 0000 c958     F.............X.
   168e0:	0000 a568 0000 0000 0000 0000 0000 0000     ..h.............
   168f0:	0000 b0d1 0000 0000 0000 0000 a453 a465     ............S.e.
   16900:	a4ce a4cd 0000 a4cf 0000 0000 0000 0000     ................
   16910:	0000 0000 a8fb 0000 a8fa a8fc 0000 0000     ................
   16920:	0000 ab71 0000 0000 0000 adee 0000 e8fb     ..q.............
   16930:	c24f a466 a56a a579 a574 0000 a56f a56e     O.f.j.y.t...o.n.
   16940:	a575 a573 a56c a57a a56d a569 a578 a577     u.s.l.z.m.i.x.w.
   16950:	a576 a56b 0000 a572 0000 0000 a571 0000     v.k...r.....q...
   16960:	0000 a57b a570 0000 0000 0000 0000 a653     ..{.p.........S.
   16970:	0000 a659 a655 0000 a65b c9c5 a658 a64e     ..Y.U...[...X.N.
   16980:	a651 a654 a650 a657 a65a a64f a652 a656     Q.T.P.W.Z.O.R.V.
   16990:	a65c 0000 0000 0000 0000 0000 ca7e ca7b     \...........~.{.
   169a0:	0000 a767 ca7c a75b a75d a775 a770 0000     ..g.|.[.].u.p...
   169b0:	0000 0000 caa5 ca7d a75f a761 caa4 a768     ......}._.a...h.
   169c0:	ca78 a774 a776 a75c a76d 0000 ca76 a773     x.t.v.\.m...v.s.
   169d0:	0000 a764 0000 a76e a76f ca77 a76c a76a     ..d...n.o.w.l.j.
   169e0:	0000 a76b a771 caa1 a75e 0000 a772 caa3     ..k.q...^...r...
   169f0:	a766 a763 0000 ca7a a762 caa6 a765 0000     f.c...z.b...e...
   16a00:	a769 0000 0000 0000 a760 caa2 0000 0000     i.......`.......
   16a10:	0000 0000 ca79 0000 0000 0000 0000 0000     ....y...........
	...
   16a2c:	cbeb cbea a94f cbed cbef cbe4 cbe7 cbee     ....O...........
   16a3c:	a950 0000 0000 cbe1 cbe5 0000 0000 cbe9     P...............
   16a4c:	ce49 a94b ce4d a8fd cbe6 a8fe a94c a945     I.K.M.......L.E.
   16a5c:	a941 0000 cbe2 a944 a949 a952 cbe3 cbdc     A.....D.I.R.....
   16a6c:	a943 cbdd cbdf 0000 a946 0000 a948 cbdb     C.......F...H...
   16a7c:	cbe0 0000 0000 a951 a94d cbe8 a953 0000     ......Q.M...S...
   16a8c:	a94a cbde a947 0000 0000 a942 a940 0000     J...G.....B.@...
   16a9c:	cbec 0000 a94e 0000 0000 0000 0000 0000     ....N...........
   16aac:	ce48 cdfb ce4b 0000 0000 cdfd ab78 aba8     H...K.......x...
   16abc:	ab74 aba7 ab7d aba4 ab72 cdfc ce43 aba3     t...}...r...C...
   16acc:	ce4f aba5 0000 ab79 0000 0000 ce45 ce42     O.....y.....E.B.
   16adc:	ab77 0000 cdfa aba6 ce4a ab7c ce4c aba9     w.......J.|.L...
   16aec:	ab73 ab7e ab7b ce40 aba1 ce46 ce47 ab7a     s.~.{.@...F.G.z.
   16afc:	aba2 ab76 0000 0000 0000 0000 ab75 cdfe     ..v.........u...
	...
   16b18:	ce44 0000 0000 0000 0000 0000 0000 0000     D...............
   16b28:	ce4e 0000 d144 adfb d0f1 0000 d0f6 adf4     N...D...........
   16b38:	ae40 d0f4 adef adf9 adfe d0fb 0000 adfa     @...............
   16b48:	adfd 0000 0000 d0fe adf5 d0f5 0000 0000     ................
   16b58:	0000 d142 d143 0000 adf7 d141 adf3 ae43     ..B.C.....A...C.
   16b68:	0000 d0f8 0000 adf1 0000 d146 d0f9 d0fd     ..........F.....
   16b78:	adf6 ae42 d0fa adfc d140 d147 d4a1 0000     ..B.....@.G.....
   16b88:	d145 ae44 adf0 d0fc d0f3 0000 adf8 0000     E.D.............
   16b98:	0000 d0f2 0000 0000 d0f7 0000 0000 0000     ................
	...
   16bb8:	d0f0 ae41 0000 0000 d477 0000 b0e4 d4a7     ..A.....w.......
   16bc8:	b0e2 b0df d47c b0db d4a2 b0e6 d476 d47b     ....|.......v.{.
   16bd8:	d47a adf2 b0e1 d4a5 0000 d4a8 d473 0000     z...........s...
   16be8:	b3e8 0000 d4a9 b0e7 0000 b0d9 b0d6 d47e     ..............~.
   16bf8:	b0d3 0000 d4a6 0000 b0da d4aa 0000 d474     ..............t.
   16c08:	d4a4 b0dd d475 d478 d47d 0000 0000 b0de     ....u.x.}.......
   16c18:	b0dc b0e8 0000 0000 0000 0000 b0e3 0000     ................
   16c28:	b0d7 b1d2 0000 b0d8 d479 b0e5 b0e0 d4a3     ........y.......
   16c38:	b0d5 0000 0000 0000 b0d4 0000 0000 0000     ................
	...
   16c54:	0000 d471 d472 d86a 0000 0000 0000 b3d7     ..q.r.j.........
   16c64:	b3da d875 b3ee d878 b3d8 d871 b3de b3e4     ..u...x...q.....
   16c74:	b5bd 0000 0000 b3e2 d86e b3ef b3db b3e3     ........n.......
   16c84:	d876 dcd7 d87b d86f 0000 d866 d873 d86d     v...{.o...f.s.m.
   16c94:	b3e1 d879 0000 0000 b3dd b3f1 b3ea 0000     ..y.............
   16ca4:	b3df b3dc 0000 b3e7 0000 d87a d86c d872     ..........z.l.r.
   16cb4:	d874 d868 d877 b3d9 d867 0000 b3e0 b3f0     t.h.w...g.......
   16cc4:	b3ec d869 b3e6 0000 0000 b3ed b3e9 b3e5     ..i.............
   16cd4:	0000 d870 0000 0000 0000 0000 0000 b3eb     ..p.............
   16ce4:	0000 0000 0000 dcd5 dcd1 0000 dce0 dcca     ................
   16cf4:	dcd3 b6e5 b6e6 b6de dcdc b6e8 dccf dcce     ................
   16d04:	dccc dcde b6dc dcd8 dccd b6df dcd6 b6da     ................
   16d14:	dcd2 dcd9 dcdb 0000 0000 dcdf b6e3 dccb     ................
   16d24:	b6dd dcd0 0000 b6d8 0000 b6e4 dcda b6e0     ................
   16d34:	b6e1 b6e7 b6db a25f b6d9 dcd4 0000 0000     ......_.........
   16d44:	0000 0000 0000 b6e2 0000 0000 dcdd 0000     ................
   16d54:	0000 0000 b9cd b9c8 0000 e155 e151 0000     ..........U.Q...
   16d64:	e14b b9c2 b9be e154 b9bf e14e e150 0000     K.....T...N.P...
   16d74:	e153 0000 b9c4 0000 b9cb b9c5 0000 0000     S...............
   16d84:	e149 b9c6 b9c7 e14c b9cc 0000 e14a e14f     I.....L.....J.O.
   16d94:	b9c3 e148 b9c9 b9c1 0000 0000 0000 b9c0     ..H.............
   16da4:	e14d e152 0000 b9ca 0000 0000 0000 0000     M.R.............
   16db4:	0000 0000 0000 e147 0000 bc4d e547 0000     ......G...M.G...
   16dc4:	e544 0000 bc47 bc53 bc54 0000 bc4a e542     D...G.S.T...J.B.
   16dd4:	bc4c e4f9 bc52 0000 e546 bc49 e548 bc48     L...R...F.I.H.H.
   16de4:	0000 e543 e545 bc4b e541 e4fa e4f7 0000     ..C.E.K.A.......
   16df4:	0000 d86b e4fd 0000 e4f6 e4fc e4fb 0000     ..k.............
   16e04:	e4f8 0000 bc4f 0000 0000 0000 0000 bc4e     ....O.........N.
   16e14:	0000 0000 0000 bc50 e4fe beb2 e540 0000     ......P.....@...
   16e24:	0000 0000 e945 0000 e8fd 0000 bebe e942     ....E.........B.
   16e34:	beb6 beba e941 0000 beb9 beb5 beb8 beb3     ....A...........
   16e44:	bebd e943 e8fe bebc e8fc bebb e944 e940     ..C.........D.@.
   16e54:	bc51 0000 bebf e946 beb7 beb4 0000 0000     Q.....F.........
   16e64:	0000 0000 ecc6 ecc8 c07b ecc9 ecc7 ecc5     ........{.......
   16e74:	ecc4 c07d ecc3 c07e 0000 0000 0000 0000     ..}...~.........
   16e84:	ecc1 ecc2 c07a c0a1 c07c 0000 0000 ecc0     ....z...|.......
   16e94:	0000 c250 0000 efbc efba efbf efbd 0000     ..P.............
   16ea4:	efbb efbe 0000 0000 0000 0000 0000 0000     ................
   16eb4:	0000 c360 f1f2 f1f3 c456 0000 f1f4 f1f0     ..`.....V.......
   16ec4:	f1f5 f1f1 c251 0000 0000 0000 f3fe f441     ....Q.........A.
   16ed4:	c459 f440 c458 c457 0000 0000 0000 0000     Y.@.X.W.........
   16ee4:	c45a f5c5 f5c6 0000 c4da c4d9 c4db f5c4     Z...............
   16ef4:	0000 f6d8 f6d7 0000 c56d c56f c56e f6d9     ........m.o.n...
   16f04:	c5c8 f8a6 0000 0000 0000 c5f1 0000 f8a5     ................
   16f14:	f8ee 0000 0000 c949 0000 0000 a57d a57c     ......I.....}.|.
   16f24:	0000 a65f a65e c9c7 a65d c9c6 0000 0000     .._.^...].......
   16f34:	a779 caa9 0000 caa8 0000 0000 a777 a77a     y...........w.z.
   16f44:	0000 0000 caa7 0000 a778 0000 0000 0000     ........x.......
   16f54:	0000 0000 0000 cbf0 0000 cbf1 a954 0000     ............T...
   16f64:	0000 0000 0000 abaa 0000 d148 d149 ae45     ..........H.I.E.
   16f74:	ae46 0000 0000 d4ac b0e9 b0eb d4ab b0ea     F...............
   16f84:	d87c b3f2 0000 0000 0000 0000 b6e9 b6ea     |...............
   16f94:	dce1 0000 b9cf 0000 b9ce 0000 e549 e948     ............I.H.
   16fa4:	e947 0000 f96b a467 c959 0000 c96e c96f     G...k.g.Y...n.o.
	...
   16fbc:	a662 a666 c9c9 0000 a664 a663 c9c8 a665     b.f.....d.c...e.
   16fcc:	a661 0000 0000 a660 c9ca 0000 0000 0000     a.....`.........
   16fdc:	0000 0000 0000 a7a6 0000 0000 a7a3 0000     ................
   16fec:	a77d caaa 0000 0000 0000 caab 0000 a7a1     }...............
   16ffc:	0000 caad a77b caae caac a77e a7a2 a7a5     ....{.....~.....
   1700c:	a7a4 a77c caaf 0000 0000 0000 0000 0000     ..|.............
	...
   1702c:	0000 a959 cbfe 0000 a95b 0000 a95a 0000     ..Y.....[...Z...
   1703c:	cc40 a958 a957 cbf5 0000 cbf4 0000 cbf2     @.X.W...........
   1704c:	cbf7 cbf6 cbf3 cbfc cbfd cbfa cbf8 a956     ..............V.
   1705c:	0000 0000 0000 cbfb a95c cc41 0000 0000     ........\.A.....
   1706c:	cbf9 0000 abab a955 0000 0000 0000 0000     ......U.........
   1707c:	0000 0000 0000 abac ce54 0000 0000 ce5a     ........T.....Z.
   1708c:	0000 0000 0000 abb2 ce58 ce5e 0000 ce55     ........X.^...U.
   1709c:	ce59 ce5b ce5d ce57 0000 ce56 ce51 ce52     Y.[.].W...V.Q.R.
   170ac:	abad 0000 abaf abae ce53 ce5c 0000 0000     ........S.\.....
	...
   170c8:	abb1 0000 0000 0000 0000 0000 0000 ce50     ..............P.
   170d8:	d153 0000 d152 d157 d14e 0000 d151 d150     S...R.W.N...Q.P.
   170e8:	0000 d154 0000 d158 ae47 ae4a 0000 0000     ..T...X.G.J.....
   170f8:	d14f d155 0000 0000 0000 ae49 d14a 0000     O.U.......I.J...
   17108:	abb0 d4ba d156 0000 d14d 0000 ae48 d14c     ....V...M...H.L.
	...
   17124:	d4b1 0000 0000 b0ec b0f0 d4c1 d4af d4bd     ................
   17134:	b0f1 d4bf 0000 d4c5 0000 d4c9 0000 0000     ................
   17144:	d4c0 d4b4 d4bc 0000 d4ca d4c8 d4be d4b9     ................
   17154:	d4b2 d8a6 d4b0 b0f5 d4b7 b0f6 b0f2 d4ad     ................
   17164:	d4c3 d4b5 0000 0000 d4b3 d4c6 b0f3 0000     ................
   17174:	d4cc b0ed b0ef d4bb d4b6 ae4b b0ee d4b8     ..........K.....
   17184:	d4c7 d4cb d4c2 0000 d4c4 0000 0000 0000     ................
   17194:	d4ae 0000 0000 0000 0000 d8a1 0000 d8aa     ................
   171a4:	d8a9 b3fa d8a2 0000 b3fb b3f9 0000 d8a4     ................
   171b4:	b3f6 d8a8 0000 d8a3 d8a5 d87d b3f4 0000     ..........}.....
   171c4:	d8b2 d8b1 d8ae b3f3 b3f7 b3f8 d14b d8ab     ............K...
   171d4:	b3f5 b0f4 d8ad d87e d8b0 d8af 0000 d8b3     ......~.........
   171e4:	0000 dcef 0000 d8ac 0000 0000 0000 0000     ................
	...
   171fc:	d8a7 dce7 b6f4 b6f7 b6f2 dce6 dcea dce5     ................
   1720c:	0000 b6ec b6f6 dce2 b6f0 dce9 0000 b6ee     ................
   1721c:	b6ed dcec b6ef dcee 0000 dceb b6eb 0000     ................
   1722c:	0000 0000 b6f5 dcf0 dce4 dced 0000 0000     ................
   1723c:	dce3 0000 0000 b6f1 0000 b6f3 0000 dce8     ................
   1724c:	0000 dcf1 0000 0000 e15d b9d0 e163 0000     ........]...c...
   1725c:	0000 b9d5 e15f e166 e157 b9d7 b9d1 e15c     ...._.f.W.....\.
   1726c:	bc55 e15b e164 b9d2 0000 b9d6 e15a e160     U.[.d.......Z.`.
   1727c:	e165 e156 b9d4 e15e 0000 0000 e162 e168     e.V...^.....b.h.
   1728c:	e158 e161 0000 b9d3 e167 0000 0000 0000     X.a.....g.......
   1729c:	e159 0000 0000 0000 bc59 e54b bc57 bc56     Y.......Y.K.W.V.
   172ac:	e54d e552 0000 e54e 0000 e551 bc5c 0000     M.R...N...Q.\...
   172bc:	bea5 bc5b 0000 e54a e550 0000 bc5a e54f     ..[...J.P...Z.O.
   172cc:	0000 e54c 0000 bc58 0000 0000 0000 0000     ..L...X.........
   172dc:	0000 0000 e94d f9d9 e94f e94a bec1 e94c     ....M...O.J...L.
   172ec:	0000 bec0 e94e 0000 0000 bec3 e950 bec2     ....N.......P...
   172fc:	e949 e94b 0000 0000 0000 0000 c0a5 eccc     I.K.............
   1730c:	0000 c0a4 eccd c0a3 eccb c0a2 ecca 0000     ................
   1731c:	c253 c252 f1f6 f1f8 0000 f1f7 c361 c362     S.R.........a.b.
   1732c:	0000 0000 c363 f442 c45b 0000 0000 f7d3     ....c.B.[.......
   1733c:	f7d2 c5f2 0000 a468 a4d0 0000 0000 a7a7     ......h.........
	...
   17354:	ce5f 0000 0000 0000 0000 b3fc b3fd 0000     _...............
   17364:	dcf2 b9d8 e169 e553 0000 0000 0000 c95a     ....i.S.......Z.
   17374:	0000 0000 cab0 0000 0000 0000 0000 0000     ................
   17384:	cc42 ce60 d159 ae4c 0000 0000 f1f9 0000     B.`.Y.L.........
   17394:	c4dc a469 a57e c970 0000 a667 a668 0000     ..i.~.p...g.h...
   173a4:	a95d 0000 0000 0000 b0f7 0000 b9da 0000     ]...............
   173b4:	b9db b9d9 0000 a46a 0000 a4d1 a4d3 a4d2     ......j.........
   173c4:	c95b a4d4 a5a1 c971 0000 a5a2 0000 0000     [.....q.........
   173d4:	0000 0000 0000 a669 a66a 0000 0000 0000     ......i.j.......
   173e4:	c9cb 0000 a7a8 0000 cab1 0000 0000 0000     ................
   173f4:	a961 cc43 0000 a95f a960 a95e d15a 0000     a.C..._.`.^.Z...
   17404:	0000 0000 abb6 abb5 abb7 abb4 0000 ce61     ..............a.
   17414:	a962 abb3 0000 ae4d ae4e 0000 ae4f 0000     b.....M.N...O...
   17424:	d4cd 0000 0000 0000 b3fe d8b4 b0f8 0000     ................
   17434:	0000 0000 0000 b6f8 0000 b9dd b9dc e16a     ..............j.
   17444:	0000 bc5d bec4 0000 efc0 f6da f7d4 a46b     ..]...........k.
   17454:	a5a3 0000 a5a4 c9d1 a66c a66f 0000 c9cf     ........l.o.....
   17464:	c9cd a66e c9d0 c9d2 c9cc a671 a670 a66d     ..n.......q.p.m.
   17474:	a66b c9ce 0000 0000 0000 0000 a7b3 0000     k...............
   17484:	0000 a7b0 cab6 cab9 cab8 0000 a7aa a7b2     ................
   17494:	0000 0000 a7af cab5 cab3 a7ae 0000 0000     ................
   174a4:	0000 a7a9 a7ac 0000 cab4 cabb cab7 a7ad     ................
   174b4:	a7b1 a7b4 cab2 caba a7ab 0000 0000 0000     ................
   174c4:	0000 0000 a967 a96f 0000 cc4f cc48 a970     ....g.o...O.H.p.
   174d4:	cc53 cc44 cc4b 0000 0000 a966 cc45 a964     S.D.K.....f.E.d.
   174e4:	cc4c cc50 a963 0000 cc51 cc4a 0000 cc4d     L.P.c...Q.J...M.
   174f4:	0000 a972 a969 cc54 cc52 0000 a96e a96c     ..r.i.T.R...n.l.
   17504:	cc49 a96b cc47 cc46 a96a a968 a971 a96d     I.k.G.F.j.h.q.m.
   17514:	a965 0000 cc4e 0000 abb9 0000 abc0 ce6f     e...N.........o.
   17524:	abb8 ce67 ce63 0000 ce73 ce62 0000 abbb     ..g.c...s.b.....
   17534:	ce6c abbe abc1 0000 abbc ce70 abbf 0000     l.........p.....
   17544:	ae56 ce76 ce64 0000 0000 ce66 ce6d ce71     V.v.d.....f.m.q.
   17554:	ce75 ce72 ce6b ce6e 0000 0000 ce68 abc3     u.r.k.n.....h...
   17564:	ce6a ce69 ce74 abba ce65 abc2 0000 abbd     j.i.t...e.......
	...
   1757c:	0000 ae5c d162 0000 ae5b 0000 0000 d160     ..\.b...[.....`.
   1758c:	0000 ae50 0000 ae55 0000 d15f d15c d161     ..P...U..._.\.a.
   1759c:	ae51 d15b 0000 ae54 ae52 0000 d163 ae53     Q.[...T.R...c.S.
   175ac:	ae57 0000 0000 ae58 0000 ae5a 0000 0000     W.....X...Z.....
   175bc:	0000 ae59 0000 0000 0000 d15d d15e 0000     ..Y.......].^...
   175cc:	0000 0000 0000 d164 0000 d4d4 b0f9 d8c2     ......d.........
   175dc:	d4d3 d4e6 0000 0000 b140 0000 d4e4 0000     ........@.......
   175ec:	b0fe b0fa d4ed d4dd d4e0 0000 b143 d4ea     ............C...
   175fc:	d4e2 b0fb b144 0000 d4e7 d4e5 0000 0000     ....D...........
   1760c:	d4d6 d4eb d4df d4da 0000 d4d0 d4ec d4dc     ................
   1761c:	d4cf 0000 b142 d4e1 d4ee d4de d4d2 d4d7     ....B...........
   1762c:	d4ce 0000 b141 0000 d4db d4d8 b0fc d4d1     ....A...........
   1763c:	0000 d4e9 b0fd 0000 d4d9 d4d5 0000 0000     ................
   1764c:	d4e8 0000 0000 0000 0000 0000 0000 b440     ..............@.
   1765c:	d8bb 0000 d8b8 d8c9 d8bd d8ca 0000 b442     ..............B.
   1766c:	0000 0000 0000 d8c6 d8c3 0000 0000 0000     ................
   1767c:	0000 0000 d8c4 d8c7 d8cb 0000 d4e3 d8cd     ................
   1768c:	dd47 0000 b443 d8ce d8b6 d8c0 0000 d8c5     G...C...........
   1769c:	0000 0000 b441 b444 d8cc d8cf d8ba d8b7     ....A.D.........
   176ac:	0000 0000 d8b9 0000 0000 d8be d8bc b445     ..............E.
   176bc:	0000 d8c8 0000 0000 d8bf 0000 d8c1 d8b5     ................
   176cc:	dcfa dcf8 b742 b740 dd43 dcf9 dd44 dd40     ....B.@.C...D.@.
   176dc:	dcf7 dd46 dcf6 dcfd b6fe b6fd b6fc dcfb     ..F.............
   176ec:	dd41 b6f9 b741 0000 dcf4 0000 dcfe dcf3     A...A...........
   176fc:	dcfc b6fa dd42 dcf5 b6fb dd45 0000 0000     ....B.....E.....
	...
   17714:	0000 e16e b9e2 b9e1 b9e3 e17a e170 e176     ..n.......z.p.v.
   17724:	e16b e179 e178 e17c e175 b9de e174 b9e4     k.y.x.|.u...t...
   17734:	0000 e16d b9df 0000 e17b b9e0 e16f e172     ..m.....{...o.r.
   17744:	e177 e171 e16c 0000 0000 0000 0000 e173     w.q.l.........s.
   17754:	e555 bc61 e558 e557 e55a e55c f9dc bc5f     U.a.X.W.Z.\..._.
   17764:	0000 e556 0000 e554 0000 e55d e55b e559     ..V...T...].[.Y.
   17774:	0000 e55f 0000 e55e bc63 bc5e 0000 bc60     .._...^.c.^...`.
   17784:	bc62 0000 0000 e560 e957 0000 0000 e956     b.....`.W.....V.
   17794:	e955 0000 e958 e951 0000 e952 e95a e953     U...X.Q...R.Z.S.
   177a4:	0000 bec5 e95c 0000 e95b e954 0000 ecd1     ....\...[.T.....
   177b4:	c0a8 eccf ecd4 ecd3 e959 0000 c0a7 0000     ........Y.......
   177c4:	ecd2 ecce ecd6 ecd5 c0a6 0000 ecd0 0000     ................
   177d4:	bec6 0000 0000 0000 c254 0000 0000 0000     ........T.......
   177e4:	efc1 f1fa f1fb f1fc c45c 0000 0000 c45d     ........\.....].
   177f4:	0000 f443 0000 f5c8 f5c7 0000 0000 f6db     ..C.............
   17804:	f6dc f7d5 f8a7 0000 a46c a46d 0000 a46e     ........l.m...n.
   17814:	a4d5 a5a5 c9d3 a672 a673 0000 a7b7 a7b8     ......r.s.......
   17824:	a7b6 a7b5 0000 a973 0000 0000 cc55 a975     ......s.....U.u.
   17834:	a974 cc56 0000 0000 0000 abc4 0000 ae5d     t.V...........].
   17844:	d165 0000 d4f0 0000 b145 b447 d4ef b446     e.......E.G...F.
   17854:	0000 b9e5 0000 e17d bec7 0000 c0a9 ecd7     ......}.........
   17864:	0000 c45e 0000 c570 0000 c972 0000 a5a6     ..^...p...r.....
   17874:	c973 a676 0000 a674 a675 a677 0000 a7ba     s.v...t.u.w.....
   17884:	a7b9 0000 cabc a7bb 0000 0000 cabd cc57     ..............W.
   17894:	0000 cc58 0000 a976 a978 a97a a977 a97b     ..X...v.x.z.w.{.
   178a4:	a979 0000 0000 0000 0000 0000 abc8 abc5     y...............
   178b4:	abc7 abc9 abc6 d166 ce77 0000 0000 0000     ......f.w.......
   178c4:	d168 d167 ae63 0000 ae5f 0000 0000 ae60     h.g.c..._.....`.
   178d4:	ae62 ae64 ae61 0000 ae66 ae65 0000 0000     b.d.a...f.e.....
   178e4:	0000 0000 0000 b14a d4f2 d4f1 b149 0000     ......J.....I...
   178f4:	b148 b147 b14b b146 0000 0000 d8d5 d8d2     H.G.K.F.........
   17904:	b449 d8d1 d8d6 0000 b44b d8d4 b448 b44a     I.......K...H.J.
   17914:	d8d3 0000 dd48 0000 dd49 dd4a 0000 0000     ....H...I.J.....
   17924:	0000 0000 b9e6 b9ee e17e b9e8 b9ec e1a1     ........~.......
   17934:	b9ed b9e9 b9ea b9e7 b9eb bc66 d8d0 bc67     ..........f...g.
   17944:	bc65 0000 bc64 e95d bec8 ecd8 ecd9 0000     e...d.].........
   17954:	0000 c364 c45f 0000 a46f 0000 a678 0000     ..d._...o...x...
	...
   1796c:	0000 abca 0000 d169 ae67 0000 0000 b14e     ......i.g.....N.
   1797c:	b14d b14c b44c b44d d8d7 b9ef bec9 a470     M.L.L.M.......p.
   1798c:	c95c a4d6 c974 0000 0000 c9d4 a679 0000     \...t.......y...
   1799c:	0000 0000 a97c 0000 0000 0000 0000 dd4b     ....|.........K.
   179ac:	0000 0000 a471 0000 a4d7 c9d5 0000 0000     ....q...........
   179bc:	cabe 0000 cabf 0000 a7bc 0000 0000 0000     ................
   179cc:	d8d8 b44e 0000 dd4c 0000 0000 0000 c0aa     ..N...L.........
   179dc:	a472 a4a8 a4d8 c975 a5a7 0000 a7c0 a7bf     r.....u.........
   179ec:	a7bd a7be 0000 0000 cc59 a97e a9a1 cc5a     ........Y.~...Z.
   179fc:	a97d 0000 0000 abce ce78 abcd abcb abcc     }.......x.......
   17a0c:	ae6a ae68 0000 0000 d16b ae69 d16a 0000     j.h.....k.i.j...
   17a1c:	ae5e d4f3 0000 0000 b150 b151 0000 0000     ^.......P.Q.....
   17a2c:	b14f 0000 b9f0 e1a2 bc68 bc69 0000 e561     O.......h.i...a.
   17a3c:	c0ab efc2 efc3 0000 c4dd f8a8 c94b a4d9     ............K...
   17a4c:	0000 a473 0000 c977 c976 0000 0000 0000     ..s...w.v.......
   17a5c:	0000 a67a c9d7 c9d8 c9d6 0000 c9d9 0000     ..z.............
	...
   17a78:	cac7 0000 cac2 cac4 cac6 cac3 a7c4 cac0     ................
   17a88:	0000 cac1 a7c1 a7c2 cac5 cac8 a7c3 cac9     ................
	...
   17aa4:	0000 cc68 0000 cc62 cc5d a9a3 cc65 cc63     ..h...b.]...e.c.
   17ab4:	cc5c cc69 cc6c cc67 cc60 a9a5 cc66 a9a6     \.i.l.g.`...f...
   17ac4:	cc61 cc64 cc5b cc5f cc6b a9a7 0000 a9a8     a.d.[._.k.......
   17ad4:	0000 cc5e cc6a a9a2 a9a4 0000 0000 0000     ..^.j...........
	...
   17af8:	ceab cea4 ceaa cea3 cea5 ce7d ce7b 0000     ..........}.{...
   17b08:	ceac cea9 ce79 0000 abd0 cea7 cea8 0000     ....y...........
   17b18:	cea6 ce7c ce7a abcf cea2 ce7e 0000 0000     ..|.z.....~.....
   17b28:	cea1 cead 0000 0000 0000 0000 0000 0000     ................
   17b38:	0000 0000 ae6f 0000 ae6e 0000 d16c ae6b     ....o...n...l.k.
   17b48:	d16e 0000 ae70 d16f 0000 0000 ae73 0000     n...p.o.....s...
   17b58:	ae71 d170 ceae d172 0000 ae6d 0000 ae6c     q.p...r...m...l.
   17b68:	0000 d16d d171 ae72 0000 0000 0000 0000     ..m.q.r.........
   17b78:	b153 b152 0000 0000 0000 d4f5 d4f9 d4fb     S.R.............
   17b88:	b154 d4fe 0000 b158 d541 0000 b15a 0000     T.....X.A...Z...
   17b98:	b156 b15e 0000 b15b d4f7 b155 0000 d4f6     V.^...[...U.....
   17ba8:	d4f4 d543 d4f8 0000 b157 d542 b15c d4fd     ..C.....W.B.\...
   17bb8:	d4fc b15d d4fa b159 0000 0000 0000 0000     ..]...Y.........
   17bc8:	d544 0000 d540 d8e7 d8ee d8e3 b451 d8df     D...@.......Q...
   17bd8:	d8ef d8d9 d8ec d8ea d8e4 0000 d8ed d8e6     ................
   17be8:	0000 d8de d8f0 d8dc d8e9 d8da 0000 d8f1     ................
   17bf8:	0000 b452 0000 d8eb dd4f d8dd b44f 0000     ..R.....O...O...
   17c08:	d8e1 0000 b450 d8e0 d8e5 0000 0000 d8e2     ....P...........
   17c18:	0000 0000 0000 d8e8 0000 0000 0000 0000     ................
   17c28:	dd53 0000 0000 0000 dd56 dd4e 0000 dd50     S.......V.N...P.
   17c38:	0000 dd55 dd54 b743 0000 d8db dd52 0000     ..U.T.C.....R...
   17c48:	0000 b744 0000 dd4d dd51 0000 0000 0000     ..D...M.Q.......
   17c58:	0000 e1a9 0000 e1b0 e1a7 0000 e1ae e1a5     ................
   17c68:	e1ad e1b1 e1a4 e1a8 e1a3 0000 b9f1 0000     ................
   17c78:	e1a6 b9f2 e1ac e1ab e1aa 0000 0000 e1af     ................
	...
   17c90:	e565 e567 bc6b e568 0000 e563 0000 e562     e.g.k.h...c...b.
   17ca0:	e56c 0000 e56a bc6a e56d e564 e569 e56b     l...j.j.m.d.i.k.
   17cb0:	e566 0000 0000 0000 0000 e961 e966 e960     f.........a.f.`.
   17cc0:	e965 0000 e95e e968 e964 e969 e963 e95f     e...^.h.d.i.c._.
   17cd0:	e967 0000 e96a e962 0000 ecda c0af 0000     g...j.b.........
   17ce0:	c0ad 0000 c0ac c0ae 0000 0000 efc4 0000     ................
   17cf0:	f172 f1fd 0000 0000 f444 f445 0000 c460     r.......D.E...`.
   17d00:	0000 f5c9 0000 c4de 0000 f5ca 0000 f6de     ................
   17d10:	c572 0000 c571 f6dd c5c9 0000 f7d6 0000     r...q...........
   17d20:	0000 0000 0000 a474 a67b c9da caca a8b5     ......t.{.......
   17d30:	b15f 0000 0000 a475 a5aa a5a9 a5a8 0000     _.....u.........
   17d40:	0000 a7c5 0000 0000 ae74 0000 dd57 a476     ........t...W.v.
   17d50:	a477 a478 a4da 0000 0000 abd1 0000 ceaf     w.x.............
   17d60:	0000 0000 0000 b453 a479 c95d 0000 0000     ......S.y.].....
   17d70:	a5ab a5ac c978 0000 a67c 0000 0000 0000     ....x...|.......
   17d80:	cacb 0000 a7c6 0000 cacc 0000 0000 a9ae     ................
   17d90:	0000 0000 cc6e a9ac a9ab cc6d a9a9 cc6f     ....n.....m...o.
   17da0:	a9aa a9ad 0000 abd2 0000 abd4 ceb3 ceb0     ................
   17db0:	ceb1 ceb2 ceb4 abd3 0000 0000 d174 d173     ............t.s.
   17dc0:	0000 ae76 0000 ae75 0000 0000 0000 0000     ..v...u.........
   17dd0:	0000 b162 d546 0000 b161 b163 b160 0000     ..b.F...a.c.`...
   17de0:	0000 0000 0000 b455 d545 0000 b456 d8f3     ......U.E...V...
   17df0:	0000 b457 d8f2 b454 0000 0000 0000 0000     ..W...T.........
   17e00:	dd5a dd5c b745 dd5b dd59 dd58 0000 0000     Z.\.E.[.Y.X.....
   17e10:	0000 e1b4 b9f7 b9f5 0000 b9f6 e1b2 e1b3     ................
   17e20:	0000 b9f3 e571 e56f 0000 bc6d e570 bc6e     ....q.o...m.p.n.
   17e30:	bc6c b9f4 0000 0000 e96d e96b e96c e56e     l.......m.k.l.n.
   17e40:	ecdc c0b0 ecdb efc5 efc6 e96e f1fe 0000     ..........n.....
   17e50:	a47a a5ad a67e c9db a67d 0000 a9af b746     z...~...}.....F.
   17e60:	0000 a4db a5ae abd5 b458 0000 c979 0000     ........X...y...
   17e70:	c97a 0000 c9dc 0000 0000 a7c8 cad0 cace     z...............
   17e80:	a7c9 cacd cacf cad1 0000 a7c7 0000 0000     ................
   17e90:	0000 0000 0000 a9b3 a9b4 a9b1 0000 0000     ................
   17ea0:	a9b0 ceb8 a9b2 0000 0000 0000 abd6 0000     ................
   17eb0:	ceb7 ceb9 ceb6 ceba abd7 ae79 d175 0000     ..........y.u...
   17ec0:	d177 ae77 d178 ae78 d176 0000 ceb5 d547     w.w.x.x.v.....G.
   17ed0:	d54a d54b d548 b167 b166 b164 b165 d549     J.K.H.g.f.d.e.I.
	...
   17ee8:	b168 0000 0000 b45a b45b 0000 b45c dd5d     h.....Z.[...\.].
   17ef8:	dd5f dd61 b748 b747 b459 dd60 dd5e 0000     _.a.H.G.Y.`.^...
   17f08:	e1b8 0000 0000 e1b6 e1bc b9f8 e1bd e1ba     ................
   17f18:	b9f9 e1b7 e1b5 e1bb bc70 e573 e1b9 bc72     ........p.s...r.
   17f28:	e574 bc71 bc74 e575 bc6f bc73 0000 e973     t.q.t.u.o.s...s.
   17f38:	e971 e970 e972 e96f 0000 0000 c366 0000     q.p.r.o.....f...
   17f48:	f446 f447 0000 f5cb f6df c655 0000 0000     F.G.......U.....
   17f58:	a9b5 a7ca 0000 0000 abd8 0000 0000 0000     ................
   17f68:	a47b a4dc 0000 a5af c9dd 0000 a7cb cad2     {...............
   17f78:	0000 cebb abd9 0000 b9fa a47c 0000 0000     ..........|.....
   17f88:	0000 a6a1 0000 0000 b749 a47d a4dd a4de     ........I.}.....
   17f98:	0000 a5b1 a5b0 0000 c9de a6a2 0000 cad3     ................
   17fa8:	0000 a7cc 0000 0000 cc71 cc72 cc73 0000     ........q.r.s...
   17fb8:	a9b6 a9b7 cc70 a9b8 0000 0000 0000 abda     ....p...........
   17fc8:	cebc 0000 d17a ae7a 0000 d179 0000 b169     ....z.z...y...i.
   17fd8:	d54c b16a d54d 0000 0000 0000 b45d 0000     L.j.M.......]...
   17fe8:	0000 0000 dd62 0000 0000 e1bf e1be 0000     ....b...........
   17ff8:	b9fb 0000 bc75 e576 beca e974 c0b1 0000     ....u.v...t.....
   18008:	c573 f7d8 0000 0000 0000 0000 cc74 0000     s...........t...
   18018:	cebd b16b d8f4 b74a 0000 0000 0000 c255     ..k...J.......U.
	...
   18030:	a7ce 0000 a7cd abdb 0000 d17b 0000 b16d     ..........{...m.
   18040:	b343 b16e b16c b45e 0000 e1c0 b9fc bc76     C.n.l.^.......v.
   18050:	0000 c94c c9df 0000 cad5 a7cf cad4 a7d0     ..L.............
   18060:	0000 0000 a9bc cc77 cc76 a9bb a9b9 a9ba     ......w.v.......
   18070:	cc75 0000 0000 abdd cebe abe0 abdc abe2     u...............
   18080:	abde abdf abe1 0000 0000 0000 ae7d ae7c     ............}.|.
   18090:	ae7b 0000 0000 0000 d54f b16f b172 b170     {.......O.o.r.p.
   180a0:	0000 d54e b175 0000 b171 d550 b174 b173     ..N.u...q.P.t.s.
   180b0:	0000 0000 0000 d8f6 d8f5 0000 b461 b45f     ............a._.
   180c0:	b460 d8f7 b74b dd64 b74c dd63 0000 0000     `...K.d.L.c.....
   180d0:	e577 0000 0000 bc78 e1c1 bc77 0000 b9fd     w.....x...w.....
   180e0:	0000 ecde e975 c0b2 ecdd f240 f448 f449     ....u.....@.H.I.
   180f0:	0000 a4df 0000 a5b2 0000 0000 0000 c97b     ..............{.
   18100:	0000 0000 a7d2 a7d4 0000 c9e2 cad8 cad7     ................
   18110:	cad6 0000 c9e1 c9e0 a6a4 a7d3 a7d1 a6a3     ................
   18120:	0000 0000 0000 a9bd cc78 0000 a9be cadd     ........x.......
   18130:	0000 cadf cade cc79 0000 0000 cada 0000     ......y.........
   18140:	a7d8 a7d6 0000 cad9 cadb cae1 0000 a7d5     ................
   18150:	0000 cadc cae5 a9c0 0000 cae2 a7d7 0000     ................
   18160:	cae0 cae3 0000 a9bf 0000 a9c1 cae4 0000     ................
	...
   1817c:	0000 ccaf cca2 cc7e ccae cca9 abe7 a9c2     ......~.........
   1818c:	ccaa ccad abe3 ccac a9c3 a9c8 a9c6 cca3     ................
   1819c:	0000 cc7c cca5 a9cd ccb0 abe4 cca6 0000     ..|.............
   181ac:	abe5 a9c9 cca8 0000 cecd abe6 cc7b a9ca     ............{...
   181bc:	abe8 a9cb a9c7 a9cc cca7 cc7a ccab a9c4     ..........z.....
   181cc:	0000 0000 cc7d cca4 cca1 a9c5 0000 cebf     ....}...........
   181dc:	0000 cec0 0000 0000 0000 0000 0000 0000     ................
   181ec:	ceca d1a1 cecb abee cece cec4 abed cec6     ................
   181fc:	0000 cec7 0000 0000 cec9 abe9 0000 0000     ................
   1820c:	aea3 0000 f9da cec5 cec1 aea4 0000 0000     ................
   1821c:	cecf ae7e d17d cec8 0000 d17c cec3 cecc     ..~.}.....|.....
   1822c:	0000 0000 abec aea1 abf2 aea2 ced0 d17e     ..............~.
   1823c:	abeb aea6 abf1 abf0 abef aea5 ced1 aea7     ................
   1824c:	abea 0000 cec2 0000 0000 0000 0000 0000     ................
	...
   18268:	0000 b176 d1a4 d1a6 0000 d1a8 aea8 aeae     ..v.............
   18278:	d553 d1ac d1a3 b178 d551 0000 aead aeab     S.....x.Q.......
   18288:	d1ae 0000 d552 0000 d1a5 0000 aeac d1a9     ....R...........
   18298:	aeaf d1ab 0000 0000 aeaa d1aa d1ad d1a7     ................
   182a8:	0000 aea9 b179 0000 d1a2 b177 0000 0000     ....y.....w.....
   182b8:	0000 0000 b17a 0000 0000 0000 0000 0000     ....z...........
   182c8:	0000 0000 d555 d55e b464 0000 b17c b1a3     ....U.^.d...|...
   182d8:	b465 d560 b1aa d8f9 d556 b1a2 b1a5 b17e     e.`.....V.....~.
   182e8:	d554 d562 d565 d949 0000 d563 d8fd b1a1     T.b.e.I...c.....
   182f8:	b1a8 b1ac d55d d8f8 d561 b17b d8fa d564     ....]...a.{...d.
   18308:	d8fc d559 0000 b462 0000 d557 d558 b1a7     ..Y...b...W.X...
   18318:	0000 0000 b1a6 d55b b1ab d55f b1a4 d55c     ......[..._...\.
   18328:	0000 b1a9 b466 b463 d8fb 0000 d55a 0000     ....f.c.....Z...
   18338:	b17d 0000 0000 0000 0000 0000 0000 0000     }...............
   18348:	0000 0000 b46b b46f d940 b751 b46d d944     ....k.o.@.Q.m.D.
   18358:	b471 dd65 d946 b753 b469 b46c d947 0000     q.e.F.S.i.l.G...
   18368:	d948 d94e b473 b754 0000 d94a d94f d943     H.N.s.T...J.O.C.
   18378:	b75e 0000 b755 b472 d941 d950 0000 b75d     ^...U.r.A.P...].
   18388:	b470 b74e d94d 0000 b474 d945 d8fe b46a     p.N.M...t.E...j.
   18398:	d942 0000 d94b 0000 b74d b752 b467 d94c     B...K...M.R.g.L.
   183a8:	0000 b750 0000 0000 0000 b468 0000 0000     ..P.......h.....
   183b8:	0000 b75c e1c3 dd70 0000 dd68 e1c2 0000     ..\...p...h.....
   183c8:	dd6c dd6e 0000 0000 dd6b 0000 b75b 0000     l.n.....k...[...
   183d8:	dd6a b75f 0000 0000 0000 e1d2 0000 0000     j._.............
   183e8:	b75a ba40 dd71 e1c4 0000 0000 b758 dd69     Z.@.q.......X.i.
   183f8:	dd6d b9fe b74f dd66 dd67 ba41 b757 b759     m...O.f.g.A.W.Y.
   18408:	b756 dd6f 0000 0000 e1c8 e1c9 e1ce bc7d     V.o...........}.
   18418:	e1d5 0000 ba47 0000 ba46 e1d0 0000 bc7c     ....G...F.....|.
   18428:	e1c5 ba45 0000 e1d4 ba43 ba44 0000 e1d1     ..E.....C.D.....
   18438:	e5aa bc7a b46e 0000 e1d3 bca3 e1cb 0000     ..z.n...........
   18448:	bc7b 0000 bca2 e1c6 e1ca e1c7 e1cd ba48     {.............H.
   18458:	bc79 ba42 0000 e57a e1cf 0000 bca1 0000     y.B...z.........
   18468:	bca4 0000 e1cc 0000 bc7e e579 0000 0000     ........~.y.....
   18478:	0000 0000 0000 e57e bece e578 e9a3 e5a9     ......~...x.....
   18488:	bca8 0000 bca6 becc e5a6 e5a2 bcac 0000     ................
   18498:	e978 0000 0000 0000 bcaa e5a1 0000 e976     x.............v.
   184a8:	0000 e5a5 0000 e5a8 e57d 0000 bcab 0000     ........}.......
   184b8:	0000 bca5 e977 becd e5a7 bca7 bca9 e5a4     ....w...........
   184c8:	bcad e5a3 e57c e57b becb e5ab e97a ece0     ....|.{.....z...
   184d8:	bed0 0000 e9a2 0000 e97e 0000 ece1 0000     ........~.......
   184e8:	bed1 e9a1 0000 e97c c0b4 ecdf 0000 e979     ......|.......y.
   184f8:	e97b c0b5 bed3 c0b3 bed2 c0b7 e97d becf     {...........}...
	...
   18518:	efcf 0000 efc7 0000 0000 0000 0000 0000     ................
   18528:	ece7 efc8 ece3 0000 0000 c256 ece5 ece4     ..........V.....
   18538:	c0b6 ece2 ece6 efd0 efcc efce 0000 efc9     ................
   18548:	efca 0000 efcd efcb c367 0000 0000 c36a     ........g.....j.
   18558:	c369 c368 c461 f44a c462 f241 c4df f5cc     i.h.a.J.b.A.....
   18568:	c4e0 c574 c5ca f7d9 0000 f7da f7db 0000     ..t.............
   18578:	0000 f9ba a4e0 c97c a5b3 0000 a6a6 a6a7     ......|.........
   18588:	a6a5 0000 a6a8 a7da a7d9 0000 ccb1 a9cf     ................
   18598:	a9ce 0000 0000 d1af b1ad b1ae 0000 0000     ................
   185a8:	0000 b475 dd72 b760 b761 dd74 dd76 dd75     ..u.r.`.a.t.v.u.
   185b8:	0000 e1d7 0000 e1d6 ba49 e1d8 0000 e5ac     ........I.......
   185c8:	bcae 0000 bed4 0000 c0b8 c257 c0b9 0000     ..........W.....
   185d8:	a4e1 0000 0000 0000 cae6 0000 0000 ccb2     ................
   185e8:	a9d1 a9d0 a9d2 abf3 ced2 ced3 0000 0000     ................
   185f8:	d1b0 aeb0 b1af b476 d951 a4e2 0000 a47e     ......v.Q.....~.
   18608:	a4e3 0000 c97d a5b7 a5b6 a5b4 a5b5 0000     ....}...........
   18618:	0000 0000 a6ab c9e9 c9eb a6aa c9e3 0000     ................
   18628:	c9e4 0000 c9ea c9e6 c9e8 a6a9 c9e5 c9ec     ................
   18638:	c9e7 0000 0000 0000 0000 0000 0000 a7e1     ................
   18648:	a7ea a7e8 caf0 caed caf5 a7e6 caf6 0000     ................
   18658:	a7df caf3 0000 a7e5 caef caee a7e3 caf4     ................
   18668:	a7e4 a9d3 a7de caf1 0000 cae7 a7db 0000     ................
   18678:	a7ee caec caf2 a7e0 a7e2 0000 cae8 0000     ................
   18688:	cae9 caea 0000 a7ed a7e7 a7ec caeb a7eb     ................
   18698:	a7dd a7dc a7e9 0000 0000 0000 0000 0000     ................
	...
   186bc:	a9e1 ccbe ccb7 a9dc a9ef ccb3 ccba ccbc     ................
   186cc:	ccbf a9ea 0000 ccbb ccb4 a9e8 ccb8 0000     ................
   186dc:	ccc0 a9d9 0000 ccbd a9e3 a9e2 ccb6 a9d7     ................
   186ec:	0000 0000 a9d8 0000 a9d6 0000 a9ee a9e6     ................
   186fc:	a9e0 a9d4 ccb9 a9df a9d5 a9e7 a9f0 ced4     ................
   1870c:	a9e4 ccb5 a9da a9dd a9de 0000 a9ec a9ed     ................
   1871c:	a9eb a9e5 a9e9 a9db abf4 0000 0000 0000     ................
	...
   18740:	0000 ceda ac41 abf8 abfa ac40 cee6 abfd     ....A.....@.....
   18750:	d1b1 aeb1 ac43 ced7 cedf abfe cede cedb     ....C...........
   18760:	cee3 cee5 abf7 abfb ac42 aeb3 cee0 abf9     ........B.......
   18770:	ac45 ced9 0000 0000 0000 abfc aeb2 abf6     E...............
   18780:	0000 ced6 cedd ced5 ced8 cedc d1b2 ac44     ..............D.
   18790:	0000 cee1 cee2 cee4 abf5 0000 0000 0000     ................
	...
   187bc:	aec1 d1be aebf aec0 d1b4 d1c4 0000 aeb6     ................
   187cc:	0000 0000 d566 d1c6 d1c0 0000 d1b7 0000     ....f...........
   187dc:	d1c9 d1ba aebc d57d d1bd aebe aeb5 0000     ......}.........
   187ec:	d1cb d1bf aeb8 d1b8 d1b5 d1b6 aeb9 d1c5     ................
   187fc:	d1cc aebb d1bc d1bb aec3 aec2 aeb4 aeba     ................
   1880c:	aebd d1c8 0000 0000 d1c2 aeb7 d1b3 d1ca     ................
   1881c:	d1c1 d1c3 d1c7 0000 0000 0000 0000 0000     ................
	...
   18834:	0000 d567 0000 b1b7 b1cb b1ca 0000 b1bf     ..g.............
   18844:	0000 d579 d575 d572 d5a6 b1ba b1b2 0000     ..y.u.r.........
   18854:	0000 d577 b4a8 b1b6 d5a1 0000 b1cc b1c9     ..w.............
   18864:	d57b d56a 0000 0000 b1c8 d5a3 d569 b1bd     {.j.........i...
   18874:	b1c1 d5a2 0000 d573 b1c2 b1bc d568 0000     ......s.....h...
   18884:	b478 d5a5 d571 b1c7 d574 d5a4 b1c6 0000     x...q...t.......
   18894:	d952 0000 b1b3 d56f b1b8 b1c3 0000 b1be     R.....o.........
   188a4:	d578 d56e d56c d57e b1b0 b1c4 b1b4 b477     x.n.l.~.......w.
   188b4:	d57c b1b5 0000 b1b1 b1c0 b1bb b1b9 d570     |.............p.
   188c4:	b1c5 d56d d57a d576 d954 d953 0000 0000     ..m.z.v.T.S.....
	...
   188e4:	0000 d56b d964 0000 b47a 0000 d96a d959     ..k.d...z...j.Y.
   188f4:	d967 dd77 b47d d96b d96e b47c d95c d96d     g.w.}.k.n.|.\.m.
   18904:	d96c b47e d955 b479 b4a3 0000 b4a1 d969     l.~.U.y.......i.
   18914:	0000 d95f b4a5 d970 d968 d971 b4ad b4ab     .._...p.h.q.....
   18924:	d966 d965 0000 d963 d95d b4a4 0000 b4a2     f.e...c.].......
   18934:	d1b9 d956 0000 ddb7 d957 b47b b4aa dd79     ..V.....W.{...y.
   18944:	0000 b4a6 b4a7 d958 d96f dd78 d960 d95b     ......X.o.x.`.[.
   18954:	b4a9 d961 d95e 0000 0000 b4ae 0000 0000     ..a.^...........
	...
   18978:	b770 0000 0000 dd7c ddb1 ddb6 ddaa b76c     p.....|.......l.
   18988:	ddbb b769 dd7a 0000 dd7b b762 b76b dda4     ..i.z...{.b.k...
   18998:	b76e b76f dda5 0000 ddb2 ddb8 b76a 0000     n.o.........j...
   189a8:	b764 dda3 dd7d ddba dda8 dda9 dd7e ddb4     d...}.......~...
   189b8:	ddab ddb5 ddad 0000 b765 e1d9 b768 b766     ........e...h.f.
   189c8:	ddb9 ddb0 ddac 0000 0000 dda1 ba53 ddaf     ............S...
   189d8:	b76d dda7 0000 dda6 0000 0000 0000 b767     m.............g.
   189e8:	b763 e1ee ddb3 ddae 0000 dda2 0000 0000     c...............
	...
   18a00:	0000 e1e9 0000 e1da e1e5 0000 e1ec ba51     ..............Q.
   18a10:	b4ac e1ea ba4c 0000 0000 0000 ba4b e1f1     ....L.......K...
   18a20:	0000 e1db e1e8 e1dc e1e7 ba4f e1eb d962     ..........O...b.
   18a30:	0000 0000 0000 e1f2 e1e3 ba52 e5ba bcaf     ..........R.....
   18a40:	0000 e1f0 e1ef ba54 e5ad bcb0 e5ae 0000     ......T.........
   18a50:	e1df e1e0 e1dd e1e2 e1de e1f3 ba4e bcb1     ............N...
   18a60:	ba50 ba55 0000 e1e1 0000 e1ed 0000 0000     P.U.............
   18a70:	e1e6 0000 0000 e5b1 0000 ba4a bcb4 e9aa     ..........J.....
   18a80:	e5b6 e5b5 e5b7 0000 0000 e5b4 bcb5 0000     ................
   18a90:	bcbb bcb8 0000 bcb9 e5af e5b2 e5bc bcc1     ................
   18aa0:	bcbf 0000 e5b3 d95a bcb2 e5b9 e5b0 0000     ......Z.........
   18ab0:	bcc2 e5b8 ba4d bcb7 e1e4 0000 0000 bcba     ....M...........
   18ac0:	0000 bcbe bcc0 bcbd bcbc 0000 bcb6 e5bb     ................
   18ad0:	bcb3 bcc3 0000 0000 0000 0000 0000 0000     ................
   18ae0:	0000 bed8 bed9 e9a9 bee2 bedf 0000 bed6     ................
   18af0:	bedd e9ab bedb bed5 0000 bedc 0000 e9a8     ................
   18b00:	c0bb bed7 0000 bede c0ba e9a7 e9a6 0000     ................
   18b10:	bee0 0000 bee1 0000 e9a5 e9a4 c0bc e9ae     ................
   18b20:	beda e9ac 0000 0000 0000 0000 c0bd 0000     ................
   18b30:	c0c2 ecea ecec 0000 c0bf 0000 eced ece9     ................
   18b40:	0000 eceb c0c0 c0c3 0000 ece8 c0be c0c1     ................
   18b50:	c259 e9ad c258 0000 0000 c25e efd4 0000     Y...X.....^.....
   18b60:	c25c c25d efd7 efd3 c25a efd1 c36b efd5     \.].....Z...k...
   18b70:	0000 efd6 efd2 0000 c25b f242 0000 f245     ........[.B...E.
   18b80:	0000 0000 f246 f244 f247 c36c f243 0000     ....F.D.G.l.C...
   18b90:	0000 f44e c464 f44d f44c f44b c463 c465     ..N.d.M.L.K.c.e.
   18ba0:	0000 f5cd c4e2 c4e1 0000 0000 f6e1 f6e0     ................
   18bb0:	f6e3 c5cb c575 f7dd f6e2 0000 0000 f7dc     ....u...........
   18bc0:	c5cd c5cc c5f3 f8a9 f8ef a4e4 0000 0000     ................
   18bd0:	d972 e9af 0000 0000 a6ac caf7 a7f1 a7ef     r...............
   18be0:	0000 a7f0 0000 ccc1 a9f1 ac46 0000 cee7     ..........F.....
   18bf0:	0000 cee8 0000 ac47 d1ce 0000 aec4 aec5     ......G.........
   18c00:	d1cd 0000 0000 0000 0000 b1d3 0000 b1cf     ................
   18c10:	0000 d5a7 b1d6 b1d5 b1ce b1d1 b1d4 b1d0     ................
   18c20:	0000 0000 d976 b1cd b4af 0000 0000 0000     ....v...........
   18c30:	b4b1 b4b2 d975 d978 b4b0 d973 d977 0000     ....u.x...s.w...
   18c40:	d974 0000 b771 0000 0000 ddbc 0000 0000     t...q...........
   18c50:	ba56 e1f4 bee3 bcc4 e5bd bcc5 bcc6 e5bf     V...............
   18c60:	e5be e5c0 e9b1 0000 0000 e9b0 ecef ecee     ................
   18c70:	c0c4 c0c5 f248 0000 0000 a4e5 0000 0000     ....H...........
   18c80:	0000 0000 d979 0000 0000 0000 b4b4 b4b3     ....y...........
   18c90:	ddbd 0000 efd8 c4e3 f7de a4e6 0000 aec6     ................
   18ca0:	0000 b1d8 b1d7 d97a d97b b772 e1f5 ba57     ......z.{.r...W.
   18cb0:	e9b2 0000 a4e7 a5b8 0000 a9f2 ccc2 0000     ................
   18cc0:	cee9 ac48 b1d9 0000 d97c b4b5 b773 0000     ..H.....|...s...
   18cd0:	e5c1 e5c2 0000 0000 ecf0 c25f f8f0 a4e8     .........._.....
   18ce0:	0000 ccc3 a9f3 ac49 0000 ceea 0000 aec7     ......I.........
   18cf0:	d1d2 d1d0 d1d1 aec8 d1cf 0000 0000 0000     ................
   18d00:	0000 b1db b1dc d5a8 b1dd b1da d97d 0000     ............}...
   18d10:	d97e ddbe 0000 0000 ba59 ba58 0000 0000     ~.......Y.X.....
   18d20:	ecf1 efd9 0000 f24a f249 f44f 0000 c95e     ......J.I.O...^.
   18d30:	ac4a 0000 0000 a4e9 a5b9 0000 a6ae a6ad     J...............
   18d40:	0000 0000 a6af a6b0 c9ee c9ed caf8 a7f2     ................
   18d50:	cafb cafa caf9 cafc 0000 0000 0000 0000     ................
   18d60:	a9f4 ccc9 ccc5 ccce 0000 0000 a9fb 0000     ................
   18d70:	a9f9 ccca ccc6 cccd a9f8 aa40 ccc8 ccc4     ..........@.....
   18d80:	a9fe cccb a9f7 cccc a9fa a9fc ccd0 cccf     ................
   18d90:	ccc7 a9f6 a9f5 a9fd 0000 0000 0000 0000     ................
   18da0:	0000 0000 ceef cef5 0000 ac50 ac4d ceec     ..........P.M...
   18db0:	cef1 0000 ac53 ac4b cef0 ac4e ac51 0000     ....S.K...N.Q...
   18dc0:	0000 cef3 0000 ac4c cef8 ac4f 0000 ac52     ......L...O...R.
   18dd0:	ceed cef2 cef6 ceee ceeb 0000 0000 cef7     ................
   18de0:	cef4 0000 0000 0000 0000 0000 0000 aed0     ................
   18df0:	aec9 aecc 0000 aecf 0000 d1d5 0000 aeca     ................
   18e00:	d1d3 0000 aece 0000 0000 aecb 0000 d1d6     ................
   18e10:	aecd 0000 0000 0000 0000 0000 0000 d5ac     ................
   18e20:	b1df d5ab d5ad b1de b1e3 d1d4 0000 d5aa     ................
   18e30:	d5ae 0000 b1e0 d5a9 b1e2 0000 b1e1 0000     ................
   18e40:	d9a7 0000 d9a2 0000 b4b6 b4ba b4b7 d9a5     ................
   18e50:	d9a8 0000 b4b8 0000 b4b9 b4be ddc7 d9a6     ................
   18e60:	b4bc d9a3 d9a1 0000 b4bd 0000 d9a4 0000     ................
   18e70:	0000 0000 b779 0000 ddbf b776 b777 b775     ....y.....v.w.u.
   18e80:	ddc4 ddc3 ddc0 b77b 0000 0000 ddc2 b4bb     ......{.........
   18e90:	0000 0000 ddc6 ddc1 b778 b774 b77a ddc5     ........x.t.z...
   18ea0:	0000 0000 0000 ba5c 0000 e1f8 e1f7 e1f6     ......\.........
   18eb0:	ba5a 0000 0000 0000 0000 0000 ba5b e5c5     Z...........[...
   18ec0:	e5c8 bcc8 0000 0000 bcc7 e5c9 e5c4 bcca     ................
   18ed0:	e5c6 0000 bcc9 e5c3 0000 e5c7 bee9 bee6     ................
   18ee0:	e9bb e9ba 0000 e9b9 e9b4 0000 e9b5 0000     ................
   18ef0:	0000 0000 bee7 0000 bee4 bee8 e9b3 bee5     ................
   18f00:	e9b6 e9b7 e9bc 0000 0000 e9b8 0000 0000     ................
   18f10:	ecf2 0000 0000 0000 c0c7 0000 efdc c0c6     ................
   18f20:	efda efdb c260 c36e f24b 0000 c36d 0000     ....`.n.K...m...
   18f30:	0000 f451 f452 0000 c466 0000 f450 c4e4     ..Q.R...f...P...
   18f40:	0000 f7df c5ce f8aa f8ab 0000 a4ea 0000     ................
   18f50:	a6b1 a6b2 a7f3 0000 ccd1 ac54 aed1 b1e4     ..........T.....
   18f60:	0000 0000 b0d2 0000 b4bf b4c0 b3cc d9a9     ................
   18f70:	0000 b77c e1fa e1f9 0000 0000 a4eb a6b3     ..|.............
   18f80:	ccd2 aa42 0000 aa41 0000 cef9 cefa 0000     ..B...A.........
   18f90:	d1d7 d1d8 aed2 aed3 0000 aed4 d5af 0000     ................
   18fa0:	0000 b1e6 0000 b4c2 0000 b4c1 ddc8 df7a     ..............z.
   18fb0:	e1fb e9bd 0000 0000 c261 c467 a4ec 0000     ........a.g.....
   18fc0:	a5bc a5bd a5bb a5be a5ba 0000 0000 a6b6     ................
   18fd0:	0000 c9f6 a6b5 a6b7 0000 0000 c9f1 c9f0     ................
   18fe0:	c9f3 c9f2 c9f5 a6b4 c9ef c9f4 0000 0000     ................
   18ff0:	0000 0000 0000 cafd a7fd cafe cb43 a7fc     ............C...
   19000:	0000 cb47 cb42 cb45 a7f5 a7f6 a7f7 a7f8     ..G.B.E.........
   19010:	0000 a840 0000 cb41 a7fa a841 0000 cb40     ..@...A...A...@.
   19020:	cb46 0000 a7f9 cb44 a7fb a7f4 a7fe 0000     F.....D.........
	...
   19040:	aa57 0000 ccd4 aa43 0000 aa4d aa4e aa46     W.....C...M.N.F.
   19050:	aa58 aa48 ccdc aa53 ccd7 aa49 cce6 cce7     X.H...S...I.....
   19060:	ccdf ccd8 aa56 cce4 aa51 aa4f 0000 cce5     ....V...Q.O.....
   19070:	0000 cce3 ccdb ccd3 ccda aa4a 0000 aa50     ..........J...P.
   19080:	0000 aa44 ccde ccdd ccd5 0000 aa52 cce1     ..D.........R...
   19090:	ccd6 aa55 cce8 aa45 0000 aa4c ccd9 cce2     ..U...E...L.....
   190a0:	aa54 0000 aa47 aa4b 0000 cce0 0000 0000     T...G.K.........
	...
   190c8:	cf5b ac5c ac69 0000 cf56 cf4c ac62 cf4a     [.\.i...V.L.b.J.
   190d8:	ac5b cf45 ac65 cf52 cefe cf41 0000 0000     [.E.e.R...A.....
   190e8:	0000 0000 cf44 cefb cf51 cf61 ac60 cf46     ....D...Q.a.`.F.
   190f8:	cf58 0000 cefd cf5f cf60 cf63 cf5a cf4b     X....._.`.c.Z.K.
   19108:	cf53 ac66 ac59 ac61 ac6d ac56 ac58 0000     S.f.Y.a.m.V.X...
   19118:	0000 0000 cf43 ac6a ac63 cf5d cf40 ac6c     ....C.j.c.].@.l.
   19128:	ac67 cf49 0000 0000 ac6b cf50 cf48 ac64     g.I.....k.P.H.d.
   19138:	cf5c cf54 0000 ac5e cf62 cf47 ac5a cf59     \.T...^.b.G.Z.Y.
   19148:	cf4f ac5f cf55 ac57 cefc ac68 aee3 ac5d     O._.U.W...h...].
   19158:	cf4e cf4d cf42 0000 cf5e 0000 cf57 0000     N.M.B...^...W...
   19168:	0000 ac55 0000 0000 0000 0000 0000 0000     ..U.............
	...
   19190:	d1ec aeea d1ed 0000 d1e1 aedf aeeb 0000     ................
   191a0:	d1da 0000 d1e3 d1eb 0000 d1d9 d1f4 aed5     ................
   191b0:	0000 0000 0000 d1f3 d1ee 0000 d1ef aedd     ................
   191c0:	aee8 d1e5 0000 d1e6 d1f0 d1e7 0000 d1e2     ................
   191d0:	d1dc d1dd d1ea d1e4 0000 0000 aed6 aeda     ................
   191e0:	d1f2 d1de aee6 aee2 0000 0000 aee5 aeec     ................
   191f0:	aedb aee7 d1e9 aee9 aed8 0000 aed7 d1db     ................
   19200:	0000 d1df aee0 d1f1 d1e8 d1e0 aee4 aee1     ................
   19210:	0000 aed9 aedc 0000 0000 0000 0000 0000     ................
	...
   19240:	0000 d5c4 0000 d5b4 d5b5 d5b9 0000 d5c8     ................
   19250:	d5c5 0000 d5be d5bd b1ed d5c1 d5d0 d5b0     ................
   19260:	0000 d5d1 d5c3 d5d5 d5c9 b1ec d5c7 b1e7     ................
   19270:	b1fc b1f2 0000 b1f6 b1f5 d5b1 0000 d5ce     ................
   19280:	d5d4 d5cc d5d3 0000 0000 d5c0 d5b2 d5d2     ................
   19290:	d5c2 b1ea b1f7 0000 d5cb b1f0 0000 0000     ................
   192a0:	0000 d5ca d5b3 b1f8 0000 b1fa d5cd b1fb     ................
   192b0:	b1e9 d5ba d5cf 0000 0000 b1ef b1f9 d5bc     ................
   192c0:	d5c6 d5b7 d5bb b1f4 d5b6 b1e8 b1f1 b1ee     ................
   192d0:	d5bf aede d9c0 b1eb 0000 0000 0000 0000     ................
	...
   192f4:	b1f3 0000 d9c3 d9d9 d9ce b4d6 0000 b4d1     ................
   19304:	d9bd b4d2 d9cd 0000 d9c6 d9d3 b4ce d9ab     ................
   19314:	d9d5 b4c4 d9b3 b4c7 b4c6 0000 b4d7 0000     ................
   19324:	d9ad d9cf d9d0 b4c9 b4c5 d9bb 0000 b4d0     ................
   19334:	d9b6 0000 d9d1 b4cc d9c9 d9d6 d9b0 d9b5     ................
   19344:	d9af 0000 b4cb d9c2 ddde d9b1 b4cf d9ba     ................
   19354:	d9d2 b4ca d9b7 d9b4 d9c5 b4cd b4c3 b4d9     ................
   19364:	d9c8 d9c7 0000 0000 0000 0000 0000 0000     ................
   19374:	d9ac b4c8 d9d4 d9bc d9be 0000 d9cb d9ca     ................
   19384:	d9aa b4d3 b4d5 d9b2 d9b9 d9c1 b4d4 d9b8     ................
   19394:	d9c4 d9d7 0000 d9cc 0000 0000 0000 0000     ................
	...
   193b4:	0000 d9d8 0000 0000 0000 0000 d9ae 0000     ................
   193c4:	0000 0000 0000 ddf2 b7a6 0000 ddf0 dddb     ................
   193d4:	dde0 ddd9 0000 ddec ddcb ddd2 0000 ddea     ................
   193e4:	ddf4 dddc 0000 ddcf dde2 dde7 ddd3 0000     ................
   193f4:	dde4 ddd0 0000 0000 ddd7 ddd8 b7a8 ddeb     ................
   19404:	dde9 0000 ddcc ddee 0000 ddef ddf1 b7ac     ................
   19414:	b7a4 0000 d5b8 ddd4 dde6 ddd5 b7a1 b7b1     ................
   19424:	dded b7af b7ab ddca b7a3 0000 ddcd b7b0     ................
   19434:	0000 dddd ddc9 0000 b7a9 dde1 ddd1 b7aa     ................
   19444:	ddda b77e b4d8 dde3 d9bf ddce 0000 0000     ..~.............
   19454:	dde8 b7a5 dde5 b7a2 dddf b7ad ddd6 ddf3     ................
	...
   19470:	b7a7 dec6 0000 0000 b7ae 0000 0000 0000     ................
   19480:	0000 0000 0000 e24a e248 0000 e25e e246     ......J.H...^.F.
   19490:	0000 e258 b77d ba5f e242 e25d 0000 e247     ..X.}._.B.]...G.
   194a0:	e255 ba64 ba5d 0000 e25b 0000 e240 e25a     U.d.]...[...@.Z.
   194b0:	0000 ba6f e251 e261 ba6d e249 ba5e e24b     ..o.Q.a.m.I.^.K.
   194c0:	e259 ba67 e244 ba6b ba61 e24d e243 e1fc     Y.g.D.k.a.M.C...
   194d0:	0000 e257 ba68 e260 e1fd ba65 0000 e253     ..W.h.`...e...S.
   194e0:	0000 ba66 e245 e250 e24c e24e 0000 ba60     ..f.E.P.L.N...`.
   194f0:	e25f ba6e e24f 0000 e262 0000 0000 e1fe     _.n.O...b.......
   19500:	e254 ba63 ba6c ba6a e241 e256 ba69 0000     T.c.l.j.A.V.i...
   19510:	0000 ba62 e252 0000 0000 0000 0000 e25c     ..b.R.........\.
	...
   19530:	e5d5 0000 e5d1 e5cd e5e1 e5de bccd 0000     ................
   19540:	0000 e5e5 e5d4 bcd8 e5db 0000 0000 e5d0     ................
   19550:	e5da bcd5 e5ee 0000 e5eb e5dd e5ce 0000     ................
   19560:	0000 e5e2 e5e4 bcd1 e5d8 e5d3 e5ca bcce     ................
   19570:	bcd6 0000 e5e7 bcd7 e5cb e5ed e5e0 e5e6     ................
   19580:	bcd4 0000 0000 e5e3 0000 e5ea 0000 bcd9     ................
   19590:	0000 bcd3 e5dc e5cf e5ef e5cc e5e8 bcd0     ................
   195a0:	0000 e5d6 0000 e5d7 bccf bccc e5d2 bcd2     ................
   195b0:	0000 bccb 0000 e5e9 e5ec e5d9 e9ca 0000     ................
	...
   195d0:	e9c2 0000 e9be bef6 0000 0000 beeb bef0     ................
   195e0:	beec e9cc e9d7 beea e9c4 e9cd e5df e9ce     ................
   195f0:	0000 0000 bef1 0000 e9dd bef5 bef8 e9c0     ................
   19600:	0000 bef4 0000 e9db e9dc e9d2 e9d1 e9c9     ................
   19610:	0000 0000 e9d3 e9da e9d9 0000 beef beed     ................
   19620:	e9cb e9c8 0000 e9c5 e9d8 bef7 e9d6 bef3     ................
   19630:	bef2 0000 e9d0 0000 e9bf e9c1 e9c3 e9d5     ................
   19640:	e9cf beee 0000 e9c6 0000 e9d4 0000 0000     ................
	...
   19658:	e9c7 0000 0000 0000 0000 0000 0000 0000     ................
   19668:	c0cf ed45 c0c8 ecf5 0000 ed41 c0ca ed48     ..E.......A...H.
   19678:	0000 ecfc 0000 ecf7 0000 0000 ed49 ecf3     ............I...
   19688:	ecfe 0000 c0d1 ed44 ed4a ecfd c0c9 ed40     ......D.J.....@.
   19698:	ecf4 c0d0 0000 0000 ed47 ecf9 c0cc 0000     ........G.......
   196a8:	ecfb ecf8 c0d2 ecfa c0cb c0ce ed43 ecf6     ............C...
   196b8:	ed46 0000 ed42 0000 0000 0000 c263 efe7     F...B.......c...
   196c8:	c268 c269 0000 0000 0000 c262 efe6 0000     h.i.......b.....
   196d8:	efe3 efe4 c266 efde efe2 c265 0000 efdf     ....f.....e.....
	...
   196f0:	c267 c264 0000 efdd efe1 efe5 0000 0000     g.d.............
   19700:	0000 f251 f24e f257 0000 f256 f254 f24f     ..Q.N.W...V.T.O.
   19710:	0000 c372 0000 0000 0000 0000 0000 f250     ..r...........P.
   19720:	c371 c0cd f253 c370 f258 f252 f24d efe0     q...S.p.X.R.M...
   19730:	0000 0000 0000 c36f 0000 f24c f456 0000     ......o...L.V...
   19740:	f455 f255 c468 0000 f459 f45a f454 f458     U.U.h...Y.Z.T.X.
   19750:	0000 f453 0000 0000 0000 0000 f5d1 f457     ..S...........W.
   19760:	c4e7 c4e5 f5cf 0000 0000 0000 f5d2 0000     ................
   19770:	f5ce f5d0 c4e6 0000 0000 0000 f6e5 f6e6     ................
   19780:	c576 f6e4 0000 0000 0000 f7e2 c5cf f7e0     v...............
   19790:	f7e1 f8ac 0000 0000 c656 f8f3 f8f1 f8f2     ........V.......
   197a0:	f8f4 0000 0000 0000 f9bb 0000 a4ed a6b8     ................
   197b0:	0000 aa59 0000 cce9 0000 0000 cf64 0000     ..Y.........d...
   197c0:	0000 0000 d1f5 d1f7 0000 d1f6 0000 d1f8     ................
   197d0:	b1fd d5d7 d1f9 0000 d5d6 d5d8 d5d9 d9da     ................
   197e0:	b4db d9db d9dd b4dc b4da d9dc 0000 ddfa     ................
   197f0:	ddf8 ddf7 0000 ddf6 ddf5 b7b2 ddf9 ba70     ..............p.
   19800:	e263 e265 ba71 e264 bcdb 0000 bcda e5f0     c.e.q.d.........
   19810:	0000 0000 e9df e9de e9e0 0000 0000 bef9     ................
   19820:	0000 ed4b c0d3 0000 efe8 c26a f259 c577     ..K.......j.Y.w.
   19830:	a4ee a5bf a6b9 a842 aa5a aa5b 0000 0000     ......B.Z.[.....
   19840:	ac6e 0000 0000 d1fa 0000 0000 0000 0000     n...............
   19850:	b7b3 0000 0000 0000 e6d1 befa c26b a4ef     ............k...
   19860:	0000 a6ba 0000 0000 cceb aa5c ccea 0000     ..........\.....
   19870:	cf65 ac6f cf66 0000 ac70 0000 d1fc aeee     e.o.f...p.......
   19880:	aeed 0000 d5de d5dc d5dd d5db 0000 d5da     ................
   19890:	0000 0000 d9de d9e1 b4de d9df b4dd d9e0     ................
   198a0:	0000 ddfb 0000 0000 e266 e267 e268 0000     ........f.g.h...
   198b0:	e5f3 e5f2 bcdc e5f1 e5f4 e9e1 0000 0000     ................
   198c0:	e9e2 e9e3 0000 ed4c c0d4 c26c f25a 0000     ......L...l.Z...
   198d0:	c4e8 c95f 0000 ac71 cf67 aeef 0000 0000     .._...q.g.......
   198e0:	b1fe 0000 b4df d9e2 0000 b7b5 b7b4 0000     ................
   198f0:	0000 e269 e26a bcdd bcde e9e5 e9e4 efe9     ..i.j...........
   19900:	f7e3 a4f0 c960 a5c0 0000 a843 cb48 0000     ....`.....C.H...
   19910:	ac72 b7b6 a4f1 0000 cf68 ac73 cf69 0000     r.......h.s.i...
   19920:	c0d5 a4f2 0000 0000 ccec 0000 cf6a 0000     ............j...
   19930:	d242 d241 d1fe 0000 d1fd d243 d240 0000     B.A.......C.@...
   19940:	0000 b240 b241 0000 0000 b4e0 d9e3 0000     ..@.A...........
   19950:	d9e4 d9e5 0000 0000 0000 de41 de42 de40     ..........A.B.@.
   19960:	0000 ddfd ddfe b7b7 e26b e5f7 e5f6 e5f5     ........k.......
   19970:	e5f8 e9e7 e9e6 befb e9e8 0000 c0d6 ed4d     ..............M.
   19980:	0000 efea f25b f6e7 0000 a4f3 a5c2 a5c1     ....[...........
   19990:	0000 aa5d c961 c97e a6bb 0000 c9f7 cb49     ..].a.~.......I.
   199a0:	cb4a aa5e 0000 cced 0000 ac74 cf6b cf6c     J.^.......t.k.l.
   199b0:	0000 aef0 aef4 d244 aef3 aef1 aef2 0000     ......D.........
   199c0:	d5df b242 b4e3 0000 b4e1 b4e2 d9e6 0000     ..B.............
   199d0:	0000 ba72 a4f4 0000 c9a1 0000 a5c3 0000     ..r.............
   199e0:	0000 c9a4 0000 0000 a5c6 c9a3 a5c5 a5c4     ................
   199f0:	a844 c9a2 0000 0000 c9f8 0000 0000 0000     D...............
   19a00:	c9fc c9fe ca40 a6c5 a6c6 c9fb a6c1 0000     ....@...........
   19a10:	c9f9 0000 c9fd a6c2 0000 a6bd 0000 a6be     ................
   19a20:	0000 a6c4 c9fa a6bc a845 a6bf a6c0 a6c3     ........E.......
   19a30:	0000 0000 0000 cb5b cb59 cb4c a851 cb53     ......[.Y.L.Q.S.
   19a40:	a84c cb4d 0000 cb55 0000 cb52 a84f cb51     L.M...U...R.O.Q.
   19a50:	a856 cb5a a858 0000 a85a 0000 cb4b 0000     V.Z.X...Z...K...
   19a60:	a84d cb5c 0000 a854 a857 0000 cd45 a847     M.\...T.W...E.G.
   19a70:	a85e a855 cb4e a84a a859 cb56 a848 a849     ^.U.N.J.Y.V.H.I.
   19a80:	cd43 cb4f a850 a85b cb5d cb50 a84e 0000     C.O.P.[.].P.N...
   19a90:	a853 ccee a85c cb57 a852 0000 a85d a846     S...\.W.R...].F.
   19aa0:	cb54 a84b cb58 cd44 0000 0000 0000 0000     T.K.X.D.........
	...
   19ac0:	0000 aa6a aa7a ccf5 aa71 0000 cd4b aa62     ..j.z...q...K.b.
   19ad0:	0000 aa65 cd42 0000 ccf3 ccf7 aa6d aa6f     ..e.B.......m.o.
   19ae0:	ccfa aa76 aa68 aa66 aa67 aa75 cd47 aa70     ..v.h.f.g.u.G.p.
   19af0:	ccf9 ccfb aa6e aa73 ccfc cd4a 0000 ac75     ....n.s...J...u.
   19b00:	aa79 0000 aa63 cd49 0000 cd4d ccf8 cd4f     y...c.I...M...O.
   19b10:	cd40 aa6c ccf4 aa6b aa7d aa72 0000 ccf2     @.l...k.}.r.....
   19b20:	cf75 aa78 aa7c cd41 cd46 0000 aa7e aa77     u.x.|.A.F...~.w.
   19b30:	aa69 aa5f 0000 aa64 0000 ccf6 aa60 cd4e     i._...d.....`.N.
   19b40:	0000 ccf0 ccef ccfd ccf1 aa7b aef5 aa74     ..........{...t.
   19b50:	ccfe aa61 0000 aca6 0000 0000 0000 cd4c     ..a...........L.
	...
   19b6c:	cf7c cfa1 0000 cfa4 cf77 0000 0000 cfa7     |.......w.......
   19b7c:	cfaa cfac cf74 ac76 ac7b d249 acad cfa5     ....t.v.{.I.....
   19b8c:	cfad cf7b cf73 0000 0000 0000 d264 ac7e     ..{.s.......d.~.
   19b9c:	cfa2 cf78 cf7a aca5 0000 cf7d ac7d cf70     ..x.z.....}.}.p.
   19bac:	cfa8 0000 cfab 0000 0000 ac7a 0000 aca8     ..........z.....
   19bbc:	cf6d acaa ac78 acae cfa9 cf6f acab d25e     m...x.....o...^.
   19bcc:	cd48 ac7c ac77 cf76 cf6e acac aca4 cfa3     H.|.w.v.n.......
   19bdc:	aca9 aca7 cf79 aca1 cf71 aca2 aca3 cf72     ....y...q.....r.
   19bec:	cfa6 ac79 cf7e 0000 0000 0000 0000 0000     ..y.~...........
	...
   19c1c:	d24c aefd af43 0000 0000 0000 d255 d25b     L...C.......U.[.
   19c2c:	d257 d24a d24d d246 d247 af4a aefa d256     W.J.M.F.G.J...V.
   19c3c:	d25f af45 aef6 0000 af40 d24e af42 d24f     _.E.....@.N.B.O.
   19c4c:	d259 0000 0000 0000 af44 d268 d248 aefc     Y.......D.h.H...
   19c5c:	aefb af48 d245 d266 d25a d267 d261 d253     ..H.E.f.Z.g.a.S.
   19c6c:	d262 0000 d25c d265 d263 af49 d254 aef9     b...\.e.c.I.T...
   19c7c:	aef8 af41 af47 d260 af46 d251 b243 0000     ..A.G.`.F.Q.C...
   19c8c:	d269 d250 d24b aefe af4b aef7 0000 d258     i.P.K...K.....X.
   19c9c:	d25d 0000 0000 0000 0000 0000 0000 0000     ]...............
	...
   19cc0:	b265 d5e1 d5e5 0000 b252 b250 0000 0000     e.......R.P.....
   19cd0:	b247 d5e3 d5e2 b25b 0000 d5e8 b255 0000     G.....[.....U...
   19ce0:	d5fa d647 b244 d5f7 d5f0 b267 d5e0 0000     ..G.D.....g.....
   19cf0:	d5fc 0000 b264 b258 b263 b24e d5ec d5fe     ....d.X.c.N.....
   19d00:	d5f6 b24f b249 d645 0000 d5fd d640 b251     ..O.I.E.....@.Q.
   19d10:	b259 d642 d5ea d5fb d5ef d644 b25e b246     Y.B.......D.^.F.
   19d20:	b25c d5f4 d5f2 d5f3 b253 d5ee d5ed b248     \.......S.....H.
   19d30:	d5e7 d646 b24a d5f1 b268 0000 b262 d5e6     ..F.J...h...b...
   19d40:	b25f b25d b266 d5f8 b261 d252 d5f9 b260     _.].f...a.R...`.
   19d50:	d641 b245 d5f5 b257 d5e9 b256 0000 b254     A.E...W...V...T.
   19d60:	b24c b24b d9e7 d643 0000 0000 d5eb 0000     L.K...C.........
   19d70:	0000 d9fc 0000 b24d 0000 0000 0000 0000     ......M.........
	...
   19d9c:	0000 b541 b25a b4ee d9f6 b4fc 0000 d9ea     ..A.Z...........
   19dac:	b4eb b4e7 da49 b4ed b4f1 b4ec b4f5 da4d     ....I.........M.
   19dbc:	da44 0000 0000 d9f1 b4fa b4f4 d9fd b4e4     D...............
   19dcc:	da4a da43 b4e8 d9f7 b4f7 da55 da56 0000     J.C.......U.V...
   19ddc:	b4e5 da48 b4f9 d9fb d9ed d9ee b4fd d9f2     ..H.............
   19dec:	d9f9 d9f3 0000 b4fb b544 d9ef d9e8 d9e9     ........D.......
   19dfc:	0000 d9eb b4ea d9f8 0000 b4f8 b542 0000     ............B...
   19e0c:	0000 d9fa da53 da4b b4e6 da51 b4f2 0000     ....S.K...Q.....
   19e1c:	b4f0 0000 da57 b4ef da41 d9f4 d9fe b547     ....W...A.....G.
   19e2c:	da45 da42 d9f0 b543 da4f da4c da54 b4e9     E.B...C.O.L.T...
   19e3c:	da40 b546 0000 da47 0000 0000 b4f3 b4f6     @.F...G.........
   19e4c:	0000 da46 b545 d9f5 d5e4 0000 0000 da50     ..F.E.........P.
   19e5c:	da4e da52 0000 0000 0000 0000 0000 0000     N.R.............
	...
   19e7c:	d9ec b540 0000 0000 0000 de61 de60 de46     ..@.......a.`.F.
   19e8c:	b7bd 0000 de5f de49 de4a 0000 b7c7 de68     ...._.I.J.....h.
   19e9c:	b7c2 de5e 0000 de43 b7c8 b7be de52 de48     ..^...C.....R.H.
   19eac:	de4b de63 b7b8 de6a de62 b7c1 de57 b7cc     K.c...j.b...W...
   19ebc:	0000 0000 b7cb b7c5 0000 0000 de69 b7b9     ............i...
   19ecc:	de55 de4c de59 de65 b7cd 0000 b7bb de54     U.L.Y.e.......T.
   19edc:	0000 de4d b7c4 0000 b7c3 de50 de5a de64     ..M.......P.Z.d.
   19eec:	de47 de51 b7bc de5b b7c9 b7c0 de4e b7bf     G.Q...[.....N...
   19efc:	de45 de53 de67 b4fe bab0 de56 e26c de58     E.S.g.....V.l.X.
   19f0c:	de66 b7c6 de4f b7ba b7ca bcf0 de44 0000     f...O.......D...
   19f1c:	de5d 0000 0000 0000 de5c 0000 0000 0000     ].......\.......
	...
   19f40:	0000 e2aa baad e27d e2a4 baa2 0000 e26e     ......}.......n.
   19f50:	baaf 0000 ba77 e26d e2b0 bab1 e271 e2a3     ....w.m.....q...
   19f60:	0000 e273 e2b3 e2af ba75 baa1 e653 baae     ..s.....u...S...
   19f70:	ba7d e26f 0000 e2ae baa3 e2ab e2b8 e275     }.o...........u.
   19f80:	e27e 0000 0000 e2b6 e2ac ba7c 0000 0000     ~.........|.....
   19f90:	e27c ba76 ba74 baa8 0000 0000 e27a e277     |.v.t.......z.w.
   19fa0:	e278 0000 e2b2 0000 e2b7 e2b5 ba7a e2b9     x...........z...
   19fb0:	ba7e baa7 0000 e270 e5fa e279 0000 ba78     ~.....p...y...x.
   19fc0:	baac baa9 ba7b e2a5 e274 baaa e2a7 baa4     ....{...t.......
   19fd0:	baa6 ba73 0000 e2a9 e2a1 e272 baa5 e2b1     ..s.......r.....
   19fe0:	e2b4 e27b e2a8 0000 ba79 bcdf e2a6 e5f9     ..{.....y.......
   19ff0:	0000 e2ad 0000 0000 0000 0000 0000 0000     ................
	...
   1a008:	e276 e644 e64e bce2 e64d e659 bce4 e64b     v.D.N...M.Y...K.
   1a018:	0000 e64f bcef 0000 e646 bce7 0000 e652     ..O.....F.....R.
   1a028:	e9f0 bcf3 bcf2 e654 e643 e65e bced 0000     ......T.C.^.....
   1a038:	bce3 e657 0000 e65b e660 e655 e649 bce6     ..W...[.`.U.I...
   1a048:	bce9 bcf1 bcec 0000 e64c e2a2 0000 0000     ........L.......
   1a058:	e648 e65f bce8 0000 bceb e661 bce0 e656     H._.......a...V.
   1a068:	e5fb e65c c0df 0000 e64a 0000 bce1 e645     ..\.....J.....E.
   1a078:	bce5 e5fc baab e641 0000 e65a e642 e640     ......A...Z.B.@.
   1a088:	bcea 0000 e658 0000 e5fe e651 e650 e65d     ....X.....Q.P.].
   1a098:	e647 bcee 0000 0000 0000 0000 0000 0000     G...............
   1a0a8:	e9f3 0000 bf49 befe ea40 e9eb bf41 e9f7     ....I...@...A...
   1a0b8:	bf48 bf43 e9f5 ed4f e9fb ea42 e9fa e9e9     H.C...O...B.....
   1a0c8:	e9f8 ea44 ea46 befd ea45 bf44 bf4a 0000     ..D.F...E.D.J...
   1a0d8:	bf47 0000 e9fe bf46 e9f9 0000 e9ed e9f2     G.....F.........
   1a0e8:	0000 e9fd bf45 bf42 befc bf40 e9f1 0000     ....E.B...@.....
   1a0f8:	e5fd e9ec e9ef ea41 e9f4 e9ea ed4e ea43     ......A.....N.C.
   1a108:	e9ee e9fc 0000 0000 0000 0000 ed51 c0e3     ............Q...
   1a118:	0000 0000 c0d7 0000 0000 c0db ed53 ed59     ............S.Y.
   1a128:	ed57 c0d9 c0da c0e1 ed5a ed52 c0dc 0000     W.......Z.R.....
   1a138:	ed56 ed55 ed5b c0e2 0000 c0dd c0e0 ed54     V.U.[.........T.
   1a148:	c0e4 c0de c0e5 c0d8 ed58 0000 ed50 0000     ........X...P...
   1a158:	0000 eff7 0000 0000 c271 eff4 eff6 0000     ........q.......
   1a168:	c26f eff2 eff3 efee 0000 0000 e9f6 efef     o...............
   1a178:	c270 efeb 0000 c26d eff8 c26e efec efed     p.....m...n.....
   1a188:	eff1 c273 0000 c272 0000 0000 eff0 c378     ..s...r.......x.
   1a198:	f25f f265 c379 f25c c376 c373 f267 c377     _.e.y.\.v.s.g.w.
   1a1a8:	0000 c374 f25e f261 f262 f263 f266 0000     ..t.^.a.b.c.f...
   1a1b8:	eff5 f25d c375 f264 f268 f260 0000 0000     ..].u.d.h.`.....
   1a1c8:	0000 f45d c46a f460 c46b f468 f45f f45c     ..].j.`.k.h._.\.
   1a1d8:	0000 f45e f462 f465 f464 f467 f45b 0000     ..^.b.e.d.g.[...
   1a1e8:	c469 f463 f466 f469 f461 f5d3 f5d4 f5d8     i.c.f.i.a.......
   1a1f8:	f5d9 0000 f5d6 f5d7 f5d5 0000 c4e9 0000     ................
   1a208:	0000 0000 0000 c578 f6eb 0000 0000 f6e8     ......x.........
   1a218:	f6e9 f6ea c579 0000 f7e5 f7e4 0000 f8af     ....y...........
   1a228:	c5f4 f8ad f8b0 f8ae f8f5 c657 c665 f9a3     ..........W.e...
   1a238:	f96c 0000 f9a2 f9d0 f9d1 a4f5 0000 0000     l...............
   1a248:	0000 0000 a6c7 ca41 0000 0000 cb5e 0000     ......A.....^...
   1a258:	a85f 0000 a862 0000 cb5f 0000 a860 a861     _...b..._...`.a.
	...
   1a270:	cd58 cd5a cd55 cd52 cd54 0000 0000 0000     X.Z.U.R.T.......
   1a280:	aaa4 0000 0000 0000 aaa2 0000 0000 cd56     ..............V.
   1a290:	aaa3 cd53 cd50 aaa1 cd57 0000 cd51 aaa5     ..S.P...W...Q...
   1a2a0:	cd59 0000 0000 0000 0000 cfaf 0000 cfb3     Y...............
   1a2b0:	0000 0000 acb7 0000 0000 0000 0000 cfb6     ................
   1a2c0:	0000 acaf acb2 acb4 acb6 acb3 cfb2 cfb1     ................
   1a2d0:	0000 acb1 cfb4 cfb5 0000 cfae acb5 0000     ................
   1a2e0:	acb0 0000 0000 0000 cfb0 0000 0000 0000     ................
   1a2f0:	0000 0000 0000 d277 d278 d279 af50 0000     ......w.x.y.P...
   1a300:	af4c d26e 0000 d276 d27b af51 0000 d26c     L.n...v.{.Q...l.
   1a310:	d272 d26b d275 0000 0000 d271 af4d af4f     r.k.u.....q.M.O.
   1a320:	d27a 0000 d26a d26d d273 0000 d274 d27c     z...j.m.s...t.|.
   1a330:	d270 0000 af4e 0000 0000 0000 0000 0000     p...N...........
	...
   1a348:	0000 b26d d64e 0000 0000 d650 d64c 0000     ..m.N.....P.L...
   1a358:	d658 d64a d657 b269 d648 da5b d652 b26c     X.J.W.i.H.[.R.l.
   1a368:	0000 d653 d656 0000 d65a 0000 d64f 0000     ..S.V...Z...O...
   1a378:	d654 0000 0000 b26a b26b d659 d64d d649     T.....j.k.Y.M.I.
   1a388:	d65b 0000 d651 0000 0000 d655 0000 0000     [...Q.....U.....
   1a398:	0000 d64b 0000 b548 b549 da65 b54f 0000     ..K...H.I.e.O...
   1a3a8:	da59 da62 da58 b54c da60 da5e 0000 da5f     Y.b.X.L.`.^..._.
   1a3b8:	b54a 0000 da63 0000 0000 0000 0000 0000     J...c...........
   1a3c8:	da5c da5a b54b da5d da61 0000 0000 0000     \.Z.K.].a.......
   1a3d8:	b54d 0000 0000 0000 da64 0000 0000 0000     M.......d.......
   1a3e8:	0000 0000 0000 de70 de77 de79 dea1 0000     ......p.w.y.....
   1a3f8:	b7da de6b 0000 b7d2 0000 de7a b7d7 dea2     ..k.......z.....
   1a408:	b7ce 0000 de7d 0000 de6d de7e de6c 0000     ....}...m.~.l...
   1a418:	b7dc 0000 de78 b7cf dea3 0000 b7d4 de71     ....x.........q.
   1a428:	b7d9 de7c de6f de76 de72 de6e b7d1 b7d8     ..|.o.v.r.n.....
   1a438:	b7d6 b7d3 b7db b7d0 de75 0000 b7d5 0000     ........u.......
   1a448:	b54e 0000 de7b 0000 de73 0000 0000 0000     N...{...s.......
   1a458:	0000 0000 de74 0000 0000 e2c1 0000 bab4     ....t...........
   1a468:	0000 0000 e2bd e2c3 e2bf 0000 bab6 e2be     ................
   1a478:	e2c2 e2ba 0000 e2bc bab5 0000 0000 0000     ................
   1a488:	0000 e2c0 e2bb 0000 bab7 0000 bab2 0000     ................
   1a498:	0000 e2c4 0000 bab3 e667 e664 e670 e66a     ........g.d.p.j.
   1a4a8:	e66c bcf4 e666 e66e 0000 0000 e66d e66b     l...f.n.....m.k.
   1a4b8:	0000 e671 bcf7 e668 e66f 0000 bcf5 0000     ..q...h.o.......
   1a4c8:	0000 e663 e665 bcf6 e662 e672 0000 e669     ..c.e...b.r...i.
   1a4d8:	0000 0000 ea4a bf51 0000 0000 ea55 ea53     ....J.Q.....U.S.
   1a4e8:	bf4b ea49 ea4c ea4d ea48 bf55 bf56 ea47     K.I.L.M.H.U.V.G.
   1a4f8:	ea56 ea51 bf4f bf4c ea50 ea4e 0000 0000     V.Q.O.L.P.N.....
   1a508:	bf52 ea52 bf4d 0000 bf4e 0000 ea4f bf50     R.R.M...N...O.P.
   1a518:	ea4b 0000 ea54 bf53 ea57 ea58 bf54 0000     K...T.S.W.X.T...
   1a528:	0000 c0e7 c0ee ed5c ed62 0000 ed60 c0ea     ......\.b...`...
   1a538:	c0e9 c0e6 ed5e 0000 0000 0000 c0ec c0eb     ....^...........
   1a548:	c0e8 0000 ed61 ed5d ed5f 0000 c0ed 0000     ....a.]._.......
   1a558:	0000 0000 c277 effb 0000 c274 c275 effd     ....w.....t.u...
   1a568:	c276 effa 0000 eff9 f26c effc 0000 f26d     v.......l.....m.
   1a578:	c37a f26b 0000 0000 f26a 0000 f269 c37b     z.k.....j...i.{.
   1a588:	0000 0000 c46c 0000 0000 f46a f46b 0000     ....l.....j.k...
   1a598:	0000 0000 0000 f5dc f5db c4ea 0000 f5da     ................
   1a5a8:	f6ec f6ed 0000 0000 f7e6 f8b1 0000 0000     ................
   1a5b8:	f8f6 f9bc c679 f9c6 a4f6 0000 aaa6 aaa7     ....y...........
   1a5c8:	0000 0000 acb8 0000 0000 0000 0000 c0ef     ................
   1a5d8:	a4f7 0000 aaa8 af52 b7dd a4f8 0000 b26e     ......R.......n.
   1a5e8:	bab8 c962 0000 cfb7 d27d 0000 e2c5 0000     ..b.....}.......
   1a5f8:	c0f0 a4f9 aaa9 cfb8 cfb9 da66 b550 0000     ..........f.P...
   1a608:	0000 dea4 0000 0000 b7de e2c6 0000 0000     ................
   1a618:	bcf8 0000 c37c a4fa da67 a4fb 0000 a6c9     ....|...g.......
   1a628:	ca42 a6c8 a865 a864 a863 cb60 0000 0000     B...e.d.c.`.....
   1a638:	0000 aaaa 0000 aaab cd5b 0000 cfba 0000     ........[.......
   1a648:	cfbd acba cfbb 0000 acb9 cfbc acbb 0000     ................
   1a658:	d2a2 d2a1 d27e af53 0000 d65d d65e b26f     ....~.S...].^.o.
   1a668:	d65c d65f b552 b270 0000 0000 b551 da6b     \._.R.p.....Q.k.
   1a678:	da6a 0000 da68 da69 0000 da6c dea6 dea5     j...h.i...l.....
   1a688:	dea9 0000 dea8 dea7 bab9 e2c9 0000 e2c8     ................
   1a698:	baba e2c7 e673 0000 e674 bcf9 0000 ea59     ....s...t.....Y.
   1a6a8:	ea5a 0000 0000 f272 c37d f271 f270 f26e     Z.....r.}.q.p.n.
   1a6b8:	f26f c4eb f46c f6ee f8f7 0000 a4fc 0000     o...l...........
   1a6c8:	c9a5 a5c7 c9a6 0000 0000 0000 ca43 ca44     ............C.D.
	...
   1a6e0:	cb66 0000 0000 cb62 0000 cb61 aaac cb65     f.....b...a...e.
   1a6f0:	a867 cb63 a866 cb67 cb64 0000 0000 cd5f     g.c.f.g.d....._.
   1a700:	cfbe cd5d cd64 0000 aaad 0000 aab0 cd65     ..].d.........e.
   1a710:	cd61 0000 cd62 0000 cd5c aaaf cd5e aaae     a...b...\...^...
   1a720:	cd63 0000 cd60 0000 0000 cfc2 acbd acbe     c...`...........
   1a730:	0000 cfc5 cfbf 0000 cfc4 0000 cfc0 acbc     ................
   1a740:	cfc3 cfc1 0000 0000 0000 0000 0000 0000     ................
   1a750:	0000 d2a8 d2a5 0000 d2a7 af58 af57 af55     ..........X.W.U.
   1a760:	d2a4 d2a9 af54 af56 d2a6 d667 d2a3 d2aa     ....T.V...g.....
	...
   1a778:	0000 d662 d666 0000 d665 da6e da79 0000     ..b.f...e.n.y...
   1a788:	0000 d668 0000 d663 da6d b274 0000 0000     ..h...c.m.t.....
   1a798:	b273 d661 d664 b275 0000 b272 b271 d660     s.a.d.u...r.q.`.
   1a7a8:	d669 0000 0000 0000 da70 da77 0000 b554     i.......p.w...T.
   1a7b8:	da76 da73 0000 b556 0000 0000 0000 da75     v.s...V.......u.
   1a7c8:	0000 0000 da6f da71 da74 da72 b555 da78     ....o.q.t.r.U.x.
   1a7d8:	b553 b7df 0000 0000 dead deac deaa 0000     S...............
   1a7e8:	b7e2 b7e1 deae 0000 deab e2ca babb b7e0     ................
   1a7f8:	0000 0000 0000 deb0 deaf 0000 e2cd e2cb     ................
   1a808:	bcfa 0000 babc e2cc e676 0000 0000 0000     ........v.......
   1a818:	0000 bcfb e675 e67e e67d e67b 0000 e67a     ....u.~.}.{...z.
   1a828:	e677 e678 e679 e67c e6a1 0000 0000 ea5f     w.x.y.|......._.
   1a838:	ea5c ea5d bf57 ea5b ea61 ea60 ea5e 0000     \.].W.[.a.`.^...
   1a848:	ed64 ed65 c0f1 0000 c0f2 ed63 0000 c279     d.e.......c...y.
   1a858:	effe c278 c37e 0000 c3a1 c46d f46e f46d     ..x.~.....m.n.m.
   1a868:	f5dd f6ef c57a f7e8 f7e7 f7e9 a5c8 cfc6     ....z...........
   1a878:	af59 b276 d66a a5c9 c9a7 a4fd 0000 0000     Y.v.j...........
   1a888:	ca45 0000 0000 0000 cb6c cb6a cb6b cb68     E.......l.j.k.h.
   1a898:	a868 cb69 0000 0000 0000 0000 0000 cd6d     h.i...........m.
   1a8a8:	0000 aab3 cd6b cd67 cd6a 0000 cd66 aab5     ....k.g.j...f...
   1a8b8:	cd69 0000 aab2 aab1 0000 aab4 cd6c cd68     i...........l.h.
	...
   1a8d0:	acc2 acc5 cfce cfcd cfcc acbf cfd5 cfcb     ................
   1a8e0:	0000 acc1 d2af 0000 cfd2 cfd0 acc4 0000     ................
   1a8f0:	cfc8 cfd3 0000 cfca cfd4 cfd1 cfc9 0000     ................
   1a900:	acc0 cfd6 cfc7 acc3 0000 0000 0000 0000     ................
   1a910:	d2b4 d2ab d2b6 0000 d2ae d2b9 d2ba d2ac     ................
   1a920:	d2b8 d2b5 d2b3 d2b7 af5f 0000 af5d 0000     ........_...]...
   1a930:	0000 d2b1 0000 d2ad 0000 d2b0 d2bb d2b2     ................
   1a940:	af5e cfcf 0000 af5a af5c 0000 0000 0000     ^.....Z.\.......
   1a950:	0000 0000 d678 d66d d66b 0000 d66c 0000     ....x.m.k...l...
   1a960:	d673 0000 d674 d670 b27b d675 d672 d66f     s...t.p.{.u.r.o.
   1a970:	0000 b279 d66e b277 b27a d671 d679 af5b     ..y.n.w.z.q.y.[.
   1a980:	b278 d677 d676 b27c 0000 0000 0000 0000     x.w.v.|.........
	...
   1a998:	da7e 0000 0000 0000 daa1 b560 0000 daa7     ~.........`.....
   1a9a8:	0000 0000 daa9 daa2 b55a daa6 daa5 b55b     ........Z.....[.
   1a9b8:	b561 0000 b562 daa8 b558 da7d da7b daa3     a...b...X.}.{...
   1a9c8:	da7a b55f da7c daa4 daaa b559 b55e b55c     z._.|.....Y.^.\.
   1a9d8:	b55d 0000 0000 0000 b557 0000 0000 0000     ].......W.......
   1a9e8:	0000 b7e9 deb7 b7e8 debb 0000 deb1 0000     ................
   1a9f8:	debc 0000 0000 0000 deb2 deb3 0000 debd     ................
   1aa08:	deba deb8 deb9 deb5 deb4 0000 debe b7e5     ................
   1aa18:	0000 deb6 0000 b7ea b7e4 b7eb b7ec 0000     ................
   1aa28:	b7e7 b7e6 0000 0000 e2ce babe babd 0000     ................
   1aa38:	0000 e2d3 0000 bcfc babf 0000 0000 bac1     ................
   1aa48:	e2d4 b7e3 bac0 e2d0 e2d2 e2cf 0000 e2d1     ................
   1aa58:	0000 0000 0000 e6ab 0000 0000 e6aa e6a7     ................
   1aa68:	bd40 ea62 bd41 e6a6 0000 bcfe 0000 e6a8     @.b.A...........
   1aa78:	e6a5 e6a2 e6a9 e6a3 e6a4 bcfd 0000 0000     ................
   1aa88:	0000 0000 ed69 0000 ea66 0000 ea65 ea67     ....i...f...e.g.
   1aa98:	0000 ed66 bf5a 0000 ea63 0000 bf58 0000     ..f.Z...c...X...
   1aaa8:	bf5c bf5b ea64 ea68 0000 bf59 0000 ed6d     \.[.d.h...Y...m.
   1aab8:	c0f5 c27a c0f6 c0f3 ed6a ed68 0000 ed6b     ..z.....j.h...k.
   1aac8:	0000 ed6e c0f4 ed6c ed67 0000 0000 f042     ..n...l.g.....B.
   1aad8:	f045 f275 f040 0000 f46f f046 0000 c3a2     E.u.@...o.F.....
   1aae8:	f044 c27b f041 f043 f047 f276 0000 f274     D.{.A.C.G.v...t.
	...
   1ab00:	c3a3 f273 0000 0000 0000 c46e 0000 0000     ..s.......n.....
   1ab10:	0000 0000 c4ed f6f1 c4ec f6f3 f6f0 f6f2     ................
   1ab20:	c5d0 f8b2 a5ca cd6e d2bc d2bd b27d debf     ......n.....}...
   1ab30:	bf5d c3a4 c57b f8b3 a5cb 0000 cd6f a260     ]...{.......o.`.
   1ab40:	0000 0000 cfd7 0000 cfd8 0000 0000 0000     ................
   1ab50:	0000 0000 d2be d2bf b27e b2a1 0000 0000     ........~.......
   1ab60:	0000 daab 0000 dec2 dec1 dec0 e2d5 0000     ................
   1ab70:	e2d6 e2d7 bac2 0000 0000 e6ad e6ac 0000     ................
   1ab80:	0000 ea69 bf5e bf5f 0000 ed72 ed6f ed70     ..i.^._...r.o.p.
   1ab90:	ed71 f049 f048 c27c f277 f5de a5cc 0000     q.I.H.|.w.......
   1aba0:	acc6 0000 b2a2 dec3 0000 a5cd 0000 d2c0     ................
   1abb0:	b2a3 0000 0000 b563 b564 0000 a5ce a5cf     ......c.d.......
   1abc0:	ca46 a86a a869 acc7 cfd9 daac a5d0 a5d1     F.j.i...........
   1abd0:	a5d2 a5d3 0000 0000 0000 a86b a86c cb6e     ..........k.l.n.
   1abe0:	cb6d 0000 0000 aab6 cd72 cd70 cd71 0000     m.......r.p.q...
	...
   1abf8:	0000 cfda cfdb 0000 0000 accb acc9 0000     ................
   1ac08:	acca acc8 0000 0000 0000 0000 af60 0000     ............`...
   1ac18:	0000 0000 0000 af64 af63 d2c1 af62 af61     ......d.c...b.a.
   1ac28:	0000 d2c2 0000 0000 b2a6 d67b d67a b2a4     ..........{.z...
   1ac38:	b2a5 0000 0000 0000 b566 b565 daae 0000     ........f.e.....
   1ac48:	0000 daad b2a7 0000 0000 0000 0000 0000     ................
   1ac58:	b7ed dec5 b7ee dec4 0000 0000 0000 e2d8     ................
   1ac68:	e6ae bd42 ea6a 0000 0000 0000 ed73 0000     ..B.j.......s...
   1ac78:	c3a6 c3a5 0000 0000 c57c a5d4 cd73 0000     ........|...s...
   1ac88:	0000 b2a8 e2d9 bac3 0000 0000 cb6f cb70     ............o.p.
   1ac98:	0000 0000 cd74 aab8 aab9 0000 0000 aab7     ....t...........
	...
   1acb0:	accf acd0 accd acce 0000 cfdc 0000 0000     ................
   1acc0:	cfdd accc 0000 0000 0000 0000 d2c3 0000     ................
   1acd0:	af68 af69 0000 b2ab d2c9 0000 af6e af6c     h.i.........n.l.
   1ace0:	d2ca d2c5 af6b af6a af65 d2c8 d2c7 d2c4     ....k.j.e.......
   1acf0:	af6d 0000 d2c6 af66 0000 af67 0000 0000     m.....f...g.....
   1ad00:	b2ac d6a1 d6a2 b2ad d67c d67e d6a4 d6a3     ........|.~.....
   1ad10:	d67d 0000 b2a9 b2aa 0000 dab6 b56b b56a     }...........k.j.
   1ad20:	dab0 b568 0000 dab3 b56c dab4 b56d dab1     ..h.....l...m...
   1ad30:	b567 b569 dab5 0000 dab2 daaf 0000 0000     g.i.............
   1ad40:	0000 0000 0000 ded2 0000 dec7 b7f0 b7f3     ................
   1ad50:	b7f2 b7f7 b7f6 ded3 ded1 deca dece decd     ................
   1ad60:	b7f4 ded0 decc ded4 decb b7f5 b7ef b7f1     ................
   1ad70:	0000 dec9 0000 0000 0000 0000 e2db bac7     ................
   1ad80:	e2df bac6 e2dc bac5 0000 dec8 decf e2de     ................
   1ad90:	0000 bac8 e2e0 e2dd e2da 0000 0000 e6b1     ................
   1ada0:	e6b5 e6b7 e6b3 e6b2 e6b0 bd45 bd43 bd48     ..........E.C.H.
   1adb0:	bd49 e6b4 bd46 e6af bd47 bac4 e6b6 bd44     I...F...G.....D.
   1adc0:	0000 0000 0000 ea6c 0000 ea6b ea73 ea6d     ......l...k.s.m.
   1add0:	ea72 ea6f bf60 ea71 0000 0000 bf61 0000     r.o.`.q.....a...
   1ade0:	bf62 0000 ea70 ea6e 0000 0000 0000 0000     b...p.n.........
   1adf0:	c0f8 ed74 0000 0000 c0f7 ed77 ed75 ed76     ..t.......w.u.v.
   1ae00:	0000 0000 c0f9 0000 0000 0000 f04d 0000     ............M...
   1ae10:	c2a1 f04e 0000 0000 c27d f04f c27e f04c     ..N.....}.O.~.L.
   1ae20:	f050 0000 f04a 0000 0000 c3a7 f278 c3a8     P...J.......x...
   1ae30:	c46f 0000 f04b c470 0000 0000 0000 c4ee     o...K.p.........
   1ae40:	f5df 0000 c57e f6f4 c57d 0000 f7ea c5f5     ....~...}.......
   1ae50:	c5f6 0000 0000 f9cc 0000 0000 acd1 cfde     ................
   1ae60:	0000 b56e b56f a5d5 a6ca ca47 0000 cb71     ..n.o.....G...q.
   1ae70:	a86d 0000 aaba 0000 acd2 acd3 acd4 d6a6     m...............
   1ae80:	d2cb af6f 0000 0000 b2ae d6a5 0000 0000     ..o.............
   1ae90:	dab8 b571 0000 dab7 b570 0000 0000 ded5     ..q.....p.......
   1aea0:	bd4a e6bb e6b8 e6b9 e6ba 0000 0000 0000     J...............
   1aeb0:	0000 0000 ed78 0000 f051 0000 0000 0000     ....x...Q.......
   1aec0:	f471 f470 0000 f6f5 a5d6 cd75 af70 0000     q.p.......u.p...
   1aed0:	0000 0000 b572 ded6 0000 0000 e2e1 0000     ....r...........
   1aee0:	bd4b ea74 0000 f052 f472 a5d7 0000 0000     K.t...R.r.......
   1aef0:	aabb acd7 cfdf acd8 acd6 0000 acd5 d2cc     ................
   1af00:	af71 0000 0000 af72 af73 0000 0000 0000     q.....r.s.......
   1af10:	b2b0 d6a7 b2af 0000 0000 0000 0000 0000     ................
   1af20:	dab9 b2b1 b573 ded7 b7f8 b7f9 0000 bac9     ....s...........
   1af30:	0000 baca bd4c bf64 ea75 bf63 0000 ed79     ....L.d.u.c...y.
   1af40:	c0fa 0000 f053 f473 a5d8 a86e cd78 cd77     ....S.s...n.x.w.
   1af50:	aabc cd76 aabd cd79 0000 cfe5 acdb acda     ..v...y.........
   1af60:	cfe7 cfe6 acdf 0000 acde 0000 0000 acd9     ................
   1af70:	0000 cfe1 cfe2 cfe3 0000 ace0 cfe0 acdc     ................
   1af80:	cfe4 acdd 0000 0000 0000 0000 d2cf d2d3     ................
   1af90:	d2d1 d2d0 0000 d2d4 0000 0000 0000 d2d5     ................
   1afa0:	d2d6 d2ce 0000 d2cd 0000 af75 af76 0000     ..........u.v...
   1afb0:	d2d7 d2d2 0000 d6b0 0000 d2d8 af77 af74     ............w.t.
   1afc0:	0000 0000 0000 d6aa 0000 d6a9 0000 d6ab     ................
   1afd0:	d6ac d6ae d6ad d6b2 b2b5 b2b2 b2b6 d6a8     ................
   1afe0:	b2b7 d6b1 b2b4 d6af b2b3 0000 0000 0000     ................
   1aff0:	0000 0000 dabc dabe daba dabb 0000 0000     ................
   1b000:	dabf dac1 dac2 dabd dac0 b574 0000 0000     ..........t.....
   1b010:	dedb 0000 dee0 ded8 dedc 0000 0000 dee1     ................
   1b020:	dedd b7fa b843 0000 b7fd ded9 deda bace     ....C...........
   1b030:	b846 b7fe 0000 b844 b7fc dedf b845 dede     F.....D.....E...
   1b040:	b841 b7fb b842 dee2 e2e6 e2e8 0000 0000     A...B...........
	...
   1b05c:	0000 b840 0000 0000 e2e3 bacc e2e9 bacd     ..@.............
   1b06c:	e2e7 e2e2 e2e5 e2ea bacb e2e4 0000 bd4e     ..............N.
   1b07c:	e6bf e6be 0000 bd51 bd4f e6bc bd4d e6bd     ......Q.O...M...
   1b08c:	0000 bd50 0000 0000 0000 ea7d 0000 eaa1     ..P.......}.....
   1b09c:	0000 ea7e ea76 ea7a ea79 ea77 bf66 bf67     ..~.v.z.y.w.f.g.
   1b0ac:	bf65 ea78 ea7b ea7c 0000 bf68 0000 c140     e.x.{.|...h...@.
   1b0bc:	eda3 0000 c0fc ed7b c0fe c141 0000 0000     ......{...A.....
   1b0cc:	c0fd eda2 ed7c c0fb eda1 ed7a ed7e ed7d     ....|.....z.~.}.
   1b0dc:	0000 0000 f055 c2a4 c2a5 c2a2 0000 c2a3     ....U...........
   1b0ec:	0000 0000 f054 0000 f27b 0000 0000 c3a9     ....T...{.......
   1b0fc:	0000 f279 f27a 0000 f474 f477 f475 f476     ..y.z...t.w.u.v.
   1b10c:	f5e0 0000 0000 c4ef f7eb f8b4 0000 c5f7     ................
   1b11c:	f8f8 f8f9 c666 a5d9 ace1 0000 dac3 0000     ....f...........
   1b12c:	dee3 0000 a5da a86f 0000 aabe 0000 cfe8     ......o.........
   1b13c:	cfe9 af78 0000 0000 dac4 b575 b847 c142     ..x.......u.G.B.
   1b14c:	eda4 f27c f478 a5db 0000 0000 0000 cda1     ..|.x...........
   1b15c:	cd7a cd7c cd7e cd7d cd7b aabf 0000 0000     z.|.~.}.{.......
   1b16c:	0000 0000 ace2 cff2 0000 cfed cfea 0000     ................
   1b17c:	0000 cff1 0000 0000 ace4 ace5 cff0 cfef     ................
   1b18c:	cfee cfeb cfec cff3 ace3 0000 0000 0000     ................
	...
   1b1a4:	0000 af7c 0000 afa4 afa3 d2e1 d2db d2d9     ..|.............
   1b1b4:	0000 afa1 d6b9 af7a d2de d2e2 d2e4 d2e0     ......z.........
   1b1c4:	d2da afa2 d2df d2dd af79 d2e5 afa5 d2e3     ........y.......
   1b1d4:	af7d d2dc 0000 af7e af7b 0000 0000 0000     }.....~.{.......
	...
   1b1f0:	0000 b2b9 0000 d6ba 0000 0000 d6b3 d6b5     ................
   1b200:	d6b7 0000 d6b8 d6b6 b2ba 0000 d6bb 0000     ................
   1b210:	d6b4 0000 0000 0000 0000 0000 0000 0000     ................
   1b220:	0000 0000 dac8 b576 dad0 0000 dac5 0000     ......v.........
   1b230:	dad1 0000 dac6 dac7 0000 0000 dacf dace     ................
   1b240:	dacb b2b8 b577 dac9 dacc b578 dacd daca     ....w.....x.....
	...
   1b25c:	0000 deee 0000 def2 b84e 0000 e2f0 b851     ........N.....Q.
   1b26c:	def0 f9d6 0000 deed dee8 deea deeb dee4     ................
   1b27c:	0000 b84d 0000 0000 b84c 0000 b848 dee7     ..M.....L...H...
   1b28c:	0000 b84f 0000 b850 dee6 dee9 def1 b84a     ..O...P.......J.
   1b29c:	b84b deef dee5 0000 0000 0000 e2f2 bad0     K...............
   1b2ac:	e2f4 deec e2f6 bad4 e2f7 e2f3 0000 bad1     ................
   1b2bc:	e2ef bad3 e2ec e2f1 e2f5 e2ee 0000 0000     ................
   1b2cc:	b849 0000 e2eb bad2 e2ed 0000 0000 0000     I...............
   1b2dc:	0000 0000 bd54 e6c1 bd58 0000 bd56 0000     ....T...X...V...
   1b2ec:	0000 bacf 0000 e6c8 e6c9 bd53 0000 0000     ..........S.....
   1b2fc:	e6c7 e6ca bd55 bd52 e6c3 e6c0 e6c5 e6c2     ....U.R.........
   1b30c:	bd59 e6c4 0000 0000 e6c6 bd57 0000 0000     Y.........W.....
   1b31c:	0000 0000 bf6a eaa8 0000 eaa2 eaa6 eaac     ....j...........
   1b32c:	eaad eaa9 eaaa eaa7 0000 eaa4 0000 bf6c     ..............l.
   1b33c:	bf69 eaa3 eaa5 0000 bf6b eaab 0000 c146     i.......k.....F.
   1b34c:	0000 0000 edaa eda5 c145 0000 0000 c143     ........E.....C.
   1b35c:	0000 edac c144 eda8 eda9 eda6 edad f056     ....D.........V.
   1b36c:	0000 c147 eda7 0000 edae edab 0000 0000     ..G.............
   1b37c:	0000 f05a 0000 0000 f057 0000 c2a6 0000     ..Z.....W.......
   1b38c:	f05b f05d f05c f058 f059 0000 0000 f2a3     [.].\.X.Y.......
   1b39c:	0000 c3aa 0000 f27e f2a2 f27d f2a4 0000     ......~...}.....
   1b3ac:	0000 f2a1 0000 f47a f47d f479 c471 f47b     ......z.}.y.q.{.
   1b3bc:	f47c f47e c472 c474 c473 f5e1 0000 f5e3     |.~.r.t.s.......
   1b3cc:	0000 f5e2 0000 0000 0000 f6f6 0000 0000     ................
   1b3dc:	f8b5 f8fa a5dc 0000 0000 cb72 aac0 cda3     ..........r.....
   1b3ec:	aac1 aac2 cda2 0000 cff8 cff7 ace6 ace9     ................
   1b3fc:	ace8 ace7 cff4 cff6 cff5 0000 0000 d2e8     ................
   1b40c:	afa7 d2ec d2eb d2ea d2e6 afa6 afaa afad     ................
   1b41c:	0000 0000 afae d2e7 d2e9 afac afab afa9     ................
   1b42c:	afa8 d6c2 0000 d6c0 d6bc b2bb 0000 d6bd     ................
   1b43c:	b2bc d6be d6bf d6c1 0000 b2bd 0000 0000     ................
   1b44c:	dad5 0000 dad4 dad3 dad2 0000 0000 0000     ................
   1b45c:	0000 def6 b852 0000 def3 def5 0000 b853     ....R.........S.
   1b46c:	0000 b854 def4 0000 0000 0000 0000 0000     ..T.............
   1b47c:	e341 0000 e2f9 e2fa 0000 bad7 bad5 bad6     A...............
   1b48c:	e343 0000 e342 e2fe e2fd e2fc e2fb e340     C...B.........@.
   1b49c:	e2f8 0000 e6cb e6d0 e6ce 0000 0000 0000     ................
   1b4ac:	e6cd e6cc e6cf 0000 eaae 0000 bf6d c148     ............m.H.
   1b4bc:	edb0 0000 c149 edaf f05f f05e c2a7 0000     ....I..._.^.....
   1b4cc:	f2a5 c3ab f4a1 c5a1 f6f7 0000 f8b7 f8b6     ................
   1b4dc:	c9a8 acea aceb d6c3 0000 b856 a5dd a872     ..........V...r.
   1b4ec:	a871 a870 0000 0000 0000 cda4 0000 0000     q.p.............
   1b4fc:	aac4 aac3 0000 acee 0000 cffa cffd cffb     ................
   1b50c:	0000 acec aced 0000 0000 cff9 cffc 0000     ................
   1b51c:	afb5 0000 0000 0000 d2f3 d2f5 d2f4 afb2     ................
   1b52c:	d2ef 0000 0000 afb0 afaf 0000 afb3 afb1     ................
   1b53c:	0000 afb4 d2f2 d2ed d2ee d2f1 d2f0 0000     ................
	...
   1b558:	d6c6 d6c7 d6c5 0000 d6c4 b2be 0000 0000     ................
   1b568:	0000 0000 b57d 0000 dad6 dad8 dada b57c     ....}.........|.
   1b578:	0000 0000 b57a 0000 dad7 b57b dad9 b579     ....z.....{...y.
   1b588:	0000 0000 df41 def7 defa defe b85a defc     ....A.......Z...
   1b598:	0000 defb def8 def9 b858 df40 b857 0000     ........X.@.W...
   1b5a8:	b85c b85b b859 0000 defd 0000 0000 0000     \.[.Y...........
   1b5b8:	e349 0000 e348 0000 0000 e344 0000 0000     I...H.....D.....
   1b5c8:	bad8 e347 e346 bad9 0000 0000 0000 0000     ..G.F...........
   1b5d8:	0000 bd5e 0000 e6d2 0000 bd5f bd5b bd5d     ..^......._.[.].
   1b5e8:	0000 bd5a bd5c 0000 0000 0000 eaaf 0000     ..Z.\...........
   1b5f8:	bf70 eab1 eab0 0000 e345 bf72 bf71 bf6e     p.......E.r.q.n.
   1b608:	bf6f 0000 0000 0000 0000 0000 edb5 0000     o...............
   1b618:	edb3 c14a edb4 0000 edb6 edb2 edb1 0000     ..J.............
   1b628:	0000 f060 c2aa c2a8 c2a9 0000 0000 0000     ..`.............
   1b638:	0000 f2a6 f2a7 c3ad 0000 c3ac f4a3 f4a4     ................
   1b648:	f4a2 0000 f6f8 f6f9 0000 0000 a5de ca48     ..............H.
   1b658:	a873 0000 cda5 aac6 aac5 cda6 0000 0000     s...............
   1b668:	d040 acef cffe acf0 0000 0000 afb6 d2f8     @...............
   1b678:	d2f6 d2fc afb7 d2f7 d2fb d2f9 d2fa 0000     ................
   1b688:	0000 d6c8 d6ca 0000 b2bf 0000 d6c9 b2c0     ................
   1b698:	b5a2 b5a1 b57e dadb 0000 0000 0000 0000     ....~...........
   1b6a8:	df44 b85d b85e 0000 df43 df42 0000 0000     D.].^...C.B.....
   1b6b8:	0000 0000 e34a badb bada e34b e34c 0000     ....J.....K.L...
   1b6c8:	bd61 bd60 0000 eab5 e6d3 e6d5 e6d4 eab4     a.`.............
   1b6d8:	eab2 eab6 eab3 0000 bf73 0000 0000 0000     ........s.......
   1b6e8:	edb7 c14b edb8 edb9 0000 0000 c2ab c2ac     ..K.............
   1b6f8:	0000 c475 0000 0000 c5d1 a5df 0000 0000     ..u.............
   1b708:	0000 0000 0000 d041 0000 0000 0000 0000     ......A.........
   1b718:	0000 0000 d2fd afb8 0000 0000 0000 0000     ................
   1b728:	0000 b3ba b3b9 0000 0000 b5a4 dadd b5a3     ................
   1b738:	dadc 0000 0000 0000 0000 df45 0000 badc     ..........E.....
   1b748:	e34d badd 0000 0000 0000 0000 0000 0000     M...............
   1b758:	c476 f4a5 0000 a6cb aac7 cda7 0000 acf2     v...............
   1b768:	0000 acf1 d042 d043 0000 0000 d340 d342     ....B.C.....@.B.
   1b778:	afb9 0000 d344 d347 d345 0000 0000 0000     ....D.G.E.......
   1b788:	d346 d343 d2fe afba d348 d341 0000 0000     F.C.....H.A.....
   1b798:	0000 0000 d6d3 b2c6 d6dc b2c3 0000 d6d5     ................
   1b7a8:	b2c7 0000 b2c1 0000 d6d0 d6dd d6d1 d6ce     ................
   1b7b8:	b2c5 0000 b2c2 0000 d6d4 d6d7 b2c4 d6d8     ................
   1b7c8:	b2c8 d6d9 d6cf d6d6 d6da d6d2 d6cd d6cb     ................
   1b7d8:	0000 0000 d6db 0000 0000 dadf 0000 0000     ................
   1b7e8:	0000 0000 dae4 0000 0000 0000 dae0 dae6     ................
   1b7f8:	b5a7 d6cc dae1 b5a5 dade b5ac dae2 b5ab     ................
   1b808:	dae3 b5ad b5a8 b5ae b5a9 0000 b5aa 0000     ................
   1b818:	b5a6 0000 dae5 0000 0000 0000 0000 0000     ................
   1b828:	0000 0000 b861 df50 0000 df53 df47 df4c     ....a.P...S.G.L.
   1b838:	df46 b863 0000 df4a 0000 0000 0000 df48     F.c...J.......H.
   1b848:	b862 0000 df4f df4e df4b df4d df49 bae1     b...O.N.K.M.I...
   1b858:	df52 b85f df51 0000 0000 0000 0000 0000     R._.Q...........
	...
   1b870:	e35d 0000 bae8 e358 0000 bae7 e34e 0000     ].....X.....N...
   1b880:	e350 bae0 e355 e354 e357 bae5 e352 e351     P...U.T.W...R.Q.
   1b890:	0000 0000 bae4 badf e353 bae2 e359 e35b     ........S...Y.[.
   1b8a0:	0000 e356 e34f bae3 0000 0000 bd69 bade     ..V.O.......i...
   1b8b0:	0000 0000 e35c 0000 0000 0000 0000 0000     ....\...........
   1b8c0:	0000 0000 e6d9 bd62 0000 e6db 0000 bd63     ......b.......c.
   1b8d0:	0000 0000 bd65 e6de 0000 e6d6 bae6 e6dc     ....e...........
	...
   1b8e8:	e6d8 0000 b860 bd68 0000 0000 bd64 0000     ....`.h.....d...
   1b8f8:	bd66 bd67 0000 bf76 e6dd e6d7 bd6a 0000     f.g...v.....j...
   1b908:	e6da 0000 0000 0000 0000 0000 eac0 eabb     ................
   1b918:	0000 0000 eac5 bf74 eabd bf78 eac3 eaba     ......t...x.....
   1b928:	eab7 eac6 c151 bf79 eac2 eab8 bf77 eabc     ....Q.y.....w...
   1b938:	bf7b eab9 eabe bf7a eac1 eac4 0000 0000     {.....z.........
   1b948:	0000 0000 edcb edcc edbc edc3 edc1 0000     ................
   1b958:	0000 c14f edc8 eabf 0000 edbf 0000 edc9     ..O.............
   1b968:	c14e edbe edbd edc7 edc4 edc6 0000 edba     N...............
   1b978:	edca c14c 0000 edc5 edce edc2 c150 c14d     ..L.........P.M.
   1b988:	edc0 edbb edcd bf75 0000 0000 0000 0000     ......u.........
   1b998:	0000 0000 0000 f063 0000 0000 f061 f067     ......c.....a.g.
   1b9a8:	c2b0 f065 f064 c2b2 f06a c2b1 0000 f06b     ..e.d...j.....k.
   1b9b8:	f068 c2ae f069 f062 c2af c2ad f2ab f066     h...i.b.......f.
   1b9c8:	0000 0000 f06c 0000 0000 f2a8 0000 0000     ....l...........
   1b9d8:	0000 c3b2 c3b0 f2aa 0000 f2ac f2a9 c3b1     ................
   1b9e8:	c3ae c3af c3b3 0000 0000 c478 0000 f4aa     ..........x.....
   1b9f8:	0000 f4a9 f4a7 f4a6 f4a8 0000 c477 c479     ............w.y.
   1ba08:	0000 0000 c4f0 0000 0000 f5e5 f5e4 0000     ................
   1ba18:	0000 f6fa 0000 f6fc f6fe f6fd f6fb 0000     ................
   1ba28:	0000 c5a3 c5a2 0000 0000 c5d3 c5d2 c5d4     ................
   1ba38:	f7ed f7ec 0000 f8fb f8b8 f8fc c658 0000     ............X...
   1ba48:	c659 f96d 0000 0000 c67e a6cc 0000 cda8     Y.m.....~.......
   1ba58:	0000 0000 d045 d046 d044 0000 0000 acf3     ....E.F.D.......
   1ba68:	0000 d047 d048 d049 0000 0000 d349 d34f     ..G.H.I.....I.O.
   1ba78:	0000 0000 d34d afbb d34b 0000 d34c d34e     ....M...K...L.N.
   1ba88:	0000 0000 0000 d34a b2c9 0000 d6de b2cb     ......J.........
   1ba98:	d6e0 b2ca d6df 0000 0000 0000 0000 0000     ................
   1baa8:	dae8 b5af 0000 daea dae7 d6e1 0000 b5b0     ................
   1bab8:	0000 f9db dae9 0000 0000 0000 0000 0000     ................
   1bac8:	0000 df56 0000 b864 df54 b865 df55 b866     ..V...d.T.e.U.f.
   1bad8:	0000 0000 0000 bae9 e361 e35e e360 baea     ........a.^.`...
   1bae8:	baeb e35f 0000 0000 0000 0000 0000 e6df     .._.............
   1baf8:	0000 0000 e6e0 0000 bd6b e6e2 e6e1 0000     ........k.......
   1bb08:	a261 0000 eaca eacb eac7 0000 eac8 bf7c     a.............|.
   1bb18:	bf7d eac9 0000 c157 0000 0000 c153 c158     }.....W.....S.X.
   1bb28:	c154 c156 c152 0000 c155 0000 0000 0000     T.V.R...U.......
   1bb38:	0000 c2b3 edcf 0000 f2ae 0000 f2ad 0000     ................
   1bb48:	f4ab c47a c47b f741 f5e6 0000 f740 0000     ..z.{.A.....@...
   1bb58:	f8fd f9a4 a6cd 0000 0000 a874 0000 cda9     ..........t.....
   1bb68:	aac8 0000 acf6 d04c acf4 d04a acf9 acf5     ......L...J.....
   1bb78:	acfa acf8 d04b acf7 afbf afbe d35a afc7     ....K.......Z...
   1bb88:	d353 d359 afc3 d352 d358 d356 afc2 afc4     S.Y...R.X.V.....
   1bb98:	d355 afbd d354 afc8 afc5 afc9 afc6 d351     U...T.........Q.
   1bba8:	d350 d357 afc0 afbc afc1 0000 0000 0000     P.W.............
   1bbb8:	0000 0000 d6f0 d6e9 0000 b5b5 d6e8 0000     ................
   1bbc8:	b2cf b2d6 b2d3 b2d9 b2d8 b2d4 0000 d6e2     ................
   1bbd8:	d6e5 0000 d6e4 b2d0 d6e6 d6ef b2d1 d6e3     ................
   1bbe8:	d6ec d6ed b2d2 d6ea b2d7 b2cd b2d5 d6e7     ................
   1bbf8:	b2cc d6eb 0000 0000 d6ee 0000 0000 0000     ................
   1bc08:	dafb daf2 b5b2 daf9 daf6 daee daf7 b5b4     ................
   1bc18:	daef 0000 daeb 0000 0000 b86c daf4 0000     ..........l.....
   1bc28:	b5b1 dafa 0000 b5b8 b5ba daed 0000 0000     ................
   1bc38:	b5b9 daf0 b5b3 daf8 daf1 daf5 0000 daf3     ................
   1bc48:	b5b6 daec b5bb b2ce b5b7 b5bc 0000 0000     ................
   1bc58:	0000 0000 0000 b868 df5d df5f df61 df65     ......h.]._.a.e.
   1bc68:	0000 df5b df59 b86a 0000 df60 df64 df5c     ..[.Y.j...`.d.\.
   1bc78:	df58 0000 df57 0000 0000 0000 df62 df5a     X...W.......b.Z.
   1bc88:	df5e b86b 0000 b869 df66 b867 df63 0000     ^.k...i.f.g.c...
   1bc98:	e372 0000 0000 0000 0000 0000 baee e36a     r.............j.
   1bca8:	bd78 e374 baf1 e378 baf7 e365 0000 0000     x.t...x...e.....
   1bcb8:	e375 e362 0000 e377 e366 0000 bafe bafb     u.b...w.f.......
   1bcc8:	e376 e370 baed baf5 baf4 0000 baf3 baf9     v.p.............
   1bcd8:	0000 e363 bafa e371 baf6 baec e373 baef     ..c...q.....s...
   1bce8:	baf0 baf8 e368 e367 e364 0000 e36c e369     ....h.g.d...l.i.
   1bcf8:	e36d bafd 0000 e379 baf2 e36e e36f 0000     m.....y...n.o...
   1bd08:	e36b 0000 0000 0000 bafc 0000 0000 0000     k...............
   1bd18:	0000 e6e7 bd70 bd79 bd75 e6e4 0000 bd72     ....p.y.u.....r.
   1bd28:	bd76 e6f0 bd6c e6e8 0000 bd74 0000 0000     v...l.....t.....
   1bd38:	e6eb e6e6 bd73 bd77 e6e5 0000 bd71 0000     ....s.w.....q...
   1bd48:	e6ef bd6e e6ee e6ed bd7a e572 bd6d 0000     ..n.....z.r.m...
   1bd58:	e6ec e6e3 0000 bd7b e6ea bd6f 0000 0000     ......{...o.....
	...
   1bd70:	0000 e6e9 0000 0000 0000 0000 bfa2 bfa7     ................
   1bd80:	bf7e ead8 eacf eadb ead3 ead9 bfa8 bfa1     ~...............
   1bd90:	eacc ead2 eadc ead5 eada eace 0000 0000     ................
   1bda0:	ead6 bfa3 ead4 bfa6 bfa5 ead0 ead1 eacd     ................
   1bdb0:	ead7 bfa4 eade eadd 0000 0000 0000 edda     ................
   1bdc0:	edd6 c15f 0000 edd0 c159 c169 eddc c161     .._.....Y.i...a.
   1bdd0:	c15d edd3 c164 c167 edde c15c edd5 c165     ]...d.g...\...e.
   1bde0:	ede0 eddd edd1 c160 c15a c168 edd8 c163     ......`.Z.h...c.
   1bdf0:	edd2 c15e eddf c162 c15b edd9 c166 edd7     ..^...b.[...f...
   1be00:	0000 0000 eddb 0000 0000 0000 f06e f074     ............n.t.
   1be10:	c2b9 f077 c2b4 c2b5 f06f f076 f071 c2ba     ..w.....o.v.q...
   1be20:	c2b7 0000 f06d 0000 c2b6 f073 f075 c2b8     ....m.....s.u...
   1be30:	f072 f070 0000 0000 0000 0000 f2b8 c3b7     r.p.............
   1be40:	c3b8 c3b4 0000 c3b5 0000 f2b4 f2b2 0000     ................
   1be50:	f2b6 c3ba f2b7 f2b0 f2af f2b3 f2b1 c3b6     ................
   1be60:	f2b5 f4ac c47e c47d f4ad 0000 f4af f4ae     ....~.}.........
   1be70:	c4a1 0000 0000 0000 f5eb f5e8 f5e9 0000     ................
   1be80:	f5e7 f5ea c4f2 f5ec 0000 c4f1 0000 f742     ..............B.
   1be90:	0000 c5d5 c5d7 f7ee c5d6 f8b9 f940 f942     ............@.B.
   1bea0:	f8fe f941 c66c 0000 0000 0000 0000 0000     ..A.l...........
	...
   1bfd8:	a6ce 0000 acfb d26f afca 0000 0000 b2da     ......o.........
   1bfe8:	dafc dafd 0000 0000 0000 eadf c16a ede1     ............j...
   1bff8:	0000 0000 c2bb 0000 f2ba f2b9 c4a2 f5ed     ................
   1c008:	0000 f743 c5f8 ca49 0000 0000 aac9 a875     ..C...I.......u.
   1c018:	0000 0000 d04d 0000 0000 d360 d35b d35f     ....M.....`.[._.
   1c028:	d35d afcb d35e d35c 0000 d6f1 0000 dafe     ]...^.\.........
   1c038:	db40 df69 df6a b86e b86f df68 df6b df67     @.i.j.n.o.h.k.g.
   1c048:	b86d 0000 bb40 0000 b870 e37a 0000 bd7c     m...@...p.z...|.
   1c058:	e6f1 bd7d 0000 bfa9 eae2 eae0 eae1 ede4     ..}.............
   1c068:	ede3 ede2 0000 0000 0000 f2bb 0000 c3b9     ................
   1c078:	f2bc f744 c5f9 f8ba a6cf aacb aaca d04f     ..D...........O.
   1c088:	acfc 0000 0000 d04e d362 0000 afcc d6f2     ......N.b.......
   1c098:	d361 0000 0000 0000 b2dc d6f5 d6f3 d6f4     a...............
   1c0a8:	b2db 0000 db42 db43 db41 0000 b873 df6d     ....B.C.A...s.m.
   1c0b8:	df6c df6e b872 b871 0000 0000 e6f2 e6f4     l.n.r.q.........
   1c0c8:	0000 bd7e e6f3 eae3 bfaa f079 0000 f078     ..~.......y...x.
   1c0d8:	c3bb f2bd c3bd c3bc f4b0 f5ee c4f3 a6d0     ................
   1c0e8:	d050 acfd d365 afce d364 d363 0000 afcd     P...e...d.c.....
   1c0f8:	0000 d6fb 0000 d6fd d6f6 d6f7 b2dd d6f8     ................
   1c108:	b2de d6fc d6f9 d6fa b2df 0000 b5be b5bf     ................
   1c118:	0000 db44 0000 0000 0000 df6f df70 0000     ..D.......o.p...
   1c128:	e37e bb43 bb41 bb42 e37b e37c 0000 e37d     ~.C.A.B.{.|...}.
   1c138:	e6f9 0000 e6fa bda1 e6f7 e6f6 e6f8 e6f5     ................
   1c148:	bfad eae4 bfab bfac ede6 c16b ede5 efa8     ..........k.....
   1c158:	0000 f07a f07b c2bc 0000 c2bd c16c f2be     ..z.{.......l...
   1c168:	f2bf f4b1 c4a3 a6d1 0000 a6d2 acfe aacc     ................
   1c178:	afcf d051 0000 0000 0000 b5c0 a6d3 ad41     ..Q...........A.
   1c188:	d052 d053 ad40 ad42 a6d4 0000 d054 afd1     R.S.@.B.....T...
   1c198:	d366 afd3 afd0 afd2 0000 d741 b2e0 0000     f.........A.....
   1c1a8:	d740 d6fe 0000 df71 0000 0000 e3a1 0000     @.....q.........
   1c1b8:	bda2 0000 bfae eae6 eae5 0000 ede7 0000     ................
   1c1c8:	0000 0000 f5ef 0000 0000 a6d5 cb73 cdaa     ............s...
   1c1d8:	ad43 d055 0000 d368 0000 0000 0000 afd4     C.U...h.........
   1c1e8:	d367 afd5 0000 0000 0000 d743 0000 0000     g.........C.....
   1c1f8:	b2e2 d742 d744 0000 b2e1 0000 0000 0000     ..B.D...........
   1c208:	0000 db46 db47 db45 b5c1 0000 0000 0000     ..F.G.E.........
   1c218:	b874 0000 b875 0000 bb45 0000 e3a3 e3a2     t...u...E.......
   1c228:	bb44 0000 0000 0000 0000 0000 e6fb 0000     D...............
   1c238:	0000 e6fc 0000 0000 0000 0000 eae7 0000     ................
   1c248:	0000 c170 c16f c16d c16e c171 0000 f07c     ..p.o.m.n.q...|.
   1c258:	c2bf c2be f2c0 f4b2 0000 0000 0000 c5a5     ................
   1c268:	c5a4 a6d6 0000 0000 d1fb 0000 b877 b5c2     ............w...
   1c278:	b876 bb46 0000 a6d7 c9a9 a6d8 a6d9 0000     v.F.............
   1c288:	0000 cdab cb76 0000 cb77 a877 0000 cb74     ....v...w.w...t.
   1c298:	a876 0000 a879 cb75 a87b a87a cb78 a878     v...y.u.{.z.x.x.
   1c2a8:	0000 0000 0000 aad1 aacf cdad 0000 aace     ................
   1c2b8:	0000 0000 0000 aad3 aad5 aad2 0000 cdb0     ................
   1c2c8:	cdac aad6 0000 aad0 a87c 0000 aad4 cdaf     ........|.......
   1c2d8:	0000 0000 cdae 0000 aacd 0000 0000 0000     ................
	...
   1c2f0:	d05b ad47 ad48 d05d 0000 d057 d05a d063     [.G.H.]...W.Z.c.
   1c300:	d061 0000 ad49 d067 ad4c d064 d05c d059     a...I.g.L.d.\.Y.
   1c310:	0000 0000 db49 d062 ad44 d065 d056 d05f     ....I.b.D.e.V._.
   1c320:	ad46 ad4b d060 ad4f ad4d 0000 d058 ad4a     F.K.`.O.M...X.J.
   1c330:	0000 d05e ad4e ad45 d066 0000 0000 0000     ..^.N.E.f.......
   1c340:	0000 0000 0000 afda 0000 afe3 afd8 afd6     ................
   1c350:	d36a afde afdb d36c 0000 0000 afdd d36b     j.....l.......k.
   1c360:	d369 d36e afe2 afe0 db48 0000 d36f d36d     i.n.....H...o.m.
   1c370:	afd7 0000 0000 afd9 afdc 0000 afdf 0000     ................
   1c380:	afe1 0000 0000 0000 0000 0000 0000 0000     ................
   1c390:	0000 0000 0000 d74e b2e4 0000 d745 d747     ......N.....E.G.
   1c3a0:	0000 d748 0000 d750 d74c d74a 0000 d74d     ..H...P.L.J...M.
   1c3b0:	d751 b2e5 b2e9 d746 0000 d74f 0000 b2e7     Q.....F...O.....
   1c3c0:	0000 b2e6 d74b d749 0000 b2e3 b2e8 0000     ....K.I.........
	...
   1c3dc:	0000 b5c8 db51 0000 0000 db4f b5ca 0000     ....Q.....O.....
   1c3ec:	0000 0000 0000 db4a dfa1 0000 b5c9 db4e     ......J.......N.
   1c3fc:	0000 0000 db4b b5c5 b5cb db50 b5c7 db4d     ....K.....P...M.
   1c40c:	bb47 b5c6 db4c b5cc b5c4 b5c3 0000 0000     G...L...........
   1c41c:	0000 0000 0000 df77 df75 0000 df7b 0000     ......w.u...{...
   1c42c:	df73 dfa2 df78 0000 df72 b87b b8a3 df7d     s...x...r.{...}.
   1c43c:	0000 df76 0000 b87e 0000 0000 b87c df7e     ..v...~.....|.~.
   1c44c:	b879 b878 df79 b87d b5cd 0000 df7c df74     y.x.y.}.....|.t.
   1c45c:	b87a b8a1 b8a2 0000 0000 0000 0000 bb4c     z.............L.
   1c46c:	bb48 0000 bb4d e3a6 0000 0000 e3a5 e3a7     H...M...........
   1c47c:	bb4a e3a4 bb4b e3aa e3a9 e3a8 0000 bb49     J...K.........I.
	...
   1c494:	0000 e741 0000 e744 bda8 e743 bda7 bda3     ..A...D...C.....
   1c4a4:	bda4 bda5 e740 e6fe bda6 0000 e742 e6fd     ....@.......B...
   1c4b4:	0000 0000 eae9 eaf3 bfb1 bfb0 0000 eaed     ................
   1c4c4:	eaef 0000 eaea 0000 eaee eae8 eaf1 bfaf     ................
   1c4d4:	eaf0 eaec 0000 eaf2 0000 eaeb c174 ede8     ............t...
   1c4e4:	edee c178 c17a c177 c176 0000 c175 c173     ..x.z.w.v...u.s.
   1c4f4:	ede9 edec c172 eded 0000 c179 edeb 0000     ....r.....y.....
   1c504:	edea c2c0 0000 c2c1 f0a1 f07d f07e 0000     ..........}.~...
   1c514:	0000 f2c2 0000 f2c1 c3be f4b4 c4a4 f4b3     ................
   1c524:	0000 f5f0 f745 c5a6 f943 f944 c5d8 a6da     ....E...C.D.....
   1c534:	0000 aad7 db52 bb4e c17b edef a6db 0000     ....R.N.{.......
   1c544:	afe5 afe4 db53 0000 0000 0000 eaf4 a6dc     ....S...........
   1c554:	ad50 0000 0000 db54 db55 db56 bb4f bfb2     P.....T.U.V.O...
   1c564:	a6dd 0000 aad8 d068 afe6 d370 b2ea 0000     ......h...p.....
   1c574:	db57 b8a4 0000 bb50 bfb3 c17c c2c2 f4b5     W.....P...|.....
   1c584:	a6de aad9 0000 0000 afe7 d752 b5ce 0000     ..........R.....
   1c594:	bb51 e3ab e745 0000 0000 0000 0000 a6df     Q...E...........
   1c5a4:	b5cf dfa3 bb52 a6e0 cdb1 d069 ad51 0000     ....R.....i.Q...
   1c5b4:	0000 d372 0000 0000 afea 0000 afe8 afe9     ..r.............
   1c5c4:	afeb 0000 0000 d371 0000 0000 d757 d754     ......q.....W.T.
   1c5d4:	d756 b2eb b2ed b2ec d753 b2ee d755 0000     V.......S...U...
   1c5e4:	db58 db59 0000 db5a dfa6 0000 dfa7 0000     X.Y...Z.........
   1c5f4:	dfa5 dfa8 0000 b8a5 0000 dfa4 0000 bb53     ..............S.
   1c604:	0000 0000 e74a e746 e749 e74b e748 e747     ....J.F.I.K.H.G.
   1c614:	0000 eaf5 eaf6 eaf7 bfb4 bfb5 edf1 edf0     ................
   1c624:	edf2 0000 f0a3 f0a2 0000 f2c4 0000 f2c5     ................
   1c634:	f2c3 0000 c4a5 0000 f4b6 f4b7 0000 f746     ..............F.
   1c644:	f7ef f8bb a6e1 a87d 0000 c17d a6e2 0000     ......}...}.....
   1c654:	d758 db5b 0000 c641 ca4a 0000 0000 0000     X.[...A.J.......
   1c664:	ca4b ca4d a6e3 ca4e ca4c 0000 0000 cba2     K.M...N.L.......
   1c674:	cba3 cb7b 0000 0000 0000 0000 cba1 a8a1     ..{.............
   1c684:	0000 a8a2 cb7c cb7a cb79 cb7d a87e cb7e     ....|.z.y.}.~.~.
   1c694:	d06a 0000 0000 0000 cdb6 aadc cdb5 cdb7     j...............
   1c6a4:	0000 aadb cdbc aadf cdb2 cdc0 cdc6 aae6     ................
   1c6b4:	cdc3 aae3 0000 cdb9 cdbf cdc1 0000 cdb4     ................
   1c6c4:	aae2 aadd cdba aae4 aae7 aae1 0000 aada     ................
   1c6d4:	cdbe cdb8 cdc5 aae9 aae5 aae0 cdbd afec     ................
   1c6e4:	cdbb aade aae8 0000 cdb3 0000 cdc2 cdc4     ................
	...
   1c70c:	0000 ad62 ad5c ad64 ad61 d071 d074 ad5d     ..b.\.d.a.q.t.].
   1c71c:	0000 d06b 0000 ad56 ad60 0000 ad63 ad65     ..k...V.`...c.e.
   1c72c:	d0a2 d077 0000 ad55 d0a1 ad59 ad57 ad52     ..w...U...Y.W.R.
   1c73c:	d06f 0000 d07e d073 d076 d0a5 0000 ad66     o...~.s.v.....f.
   1c74c:	d07d ad5e d078 d0a4 d075 d079 d07c 0000     }.^.x...u.y.|...
   1c75c:	0000 d06d d0a3 d07b 0000 0000 d06c 0000     ..m...{.....l...
   1c76c:	d070 ad5f ad5a ad53 ad58 ad54 ad67 d06e     p._.Z.S.X.T.g.n.
   1c77c:	d3a5 ad5b 0000 0000 d07a ce41 0000 0000     ..[.....z.A.....
	...
   1c798:	d3a8 affa 0000 d376 0000 d3a3 d37d 0000     ......v.....}...
   1c7a8:	d3b2 0000 d3aa 0000 d37e 0000 d3a9 d378     ........~.....x.
   1c7b8:	d37c d3b5 affd d3ad d3a4 afed d3b3 d374     |.............t.
   1c7c8:	0000 d3ac 0000 affc aff7 d373 aff5 aff4     ..........s.....
   1c7d8:	aff9 d3ab aff1 aff8 d072 db5c d3a6 0000     ........r.\.....
   1c7e8:	0000 d37a affb d37b d3a1 affe d375 d3af     ..z...{.....u...
   1c7f8:	0000 d3ae d3b6 aff3 aff0 d3b4 d3b0 d3a7     ................
   1c808:	d3a2 aff6 aff2 d377 afee d3b1 afef 0000     ......w.........
   1c818:	d379 0000 0000 0000 0000 0000 0000 0000     y...............
	...
   1c850:	0000 d75e d760 d765 d779 b2fc b2f2 0000     ..^.`.e.y.......
   1c860:	d75d b2fd b2fe d768 d76f d775 0000 d762     ].....h.o.u...b.
   1c870:	0000 d769 0000 0000 b340 d777 d772 b2fa     ..i.....@.w.r...
   1c880:	b2f8 d76e d76a d75c b2ef d761 d759 0000     ..n.j.\...a.Y...
   1c890:	b2f7 b2f9 d766 d763 b2f4 d773 b2f1 d764     ....f.c...s...d.
   1c8a0:	d77a d76c 0000 d76b b2f0 0000 b2fb 0000     z.l...k.........
   1c8b0:	b2f3 d75a d75f d770 d776 b341 d75b d767     ..Z._.p.v.A.[.g.
   1c8c0:	d76d b2f6 0000 0000 d778 d771 d774 0000     m.......x.q.t...
	...
   1c8e4:	0000 b2f5 0000 db6c db60 b5d7 db7d dba7     ......l.`...}...
   1c8f4:	dbaa b5d5 db68 dba3 db69 db77 b5e2 db73     ....h...i.w...s.
   1c904:	b5df 0000 db74 db5d 0000 dba4 0000 0000     ....t.].........
   1c914:	b5e8 dba1 db75 dbac db70 dfc8 0000 dbaf     ....u...p.......
   1c924:	b5e6 db6e db7a b5e9 b5d4 db72 dbad db6b     ..n.z.....r...k.
   1c934:	db64 db6f 0000 db63 db61 b5d0 dba5 db6a     d.o...c.a.....j.
   1c944:	dba8 0000 dba9 b5d8 b5dd b5d9 b5e1 db7e     ..............~.
   1c954:	b5da db76 db66 0000 b5d2 db5e dba2 dbab     ..v.f.....^.....
   1c964:	db65 b5e0 dbb0 db71 0000 db6d 0000 b5d1     e.....q...m.....
   1c974:	b5e5 0000 db7c b5e7 0000 db78 b5dc b5d6     ....|.....x.....
   1c984:	b5de b5d3 b5e4 db79 db67 db7b db62 dba6     ......y.g.{.b...
	...
   1c9a0:	0000 dbae 0000 0000 0000 0000 0000 0000     ................
   1c9b0:	0000 db5f 0000 0000 0000 0000 0000 dfc7     .._.............
   1c9c0:	0000 dfdd b855 dfcc 0000 dfca dfb5 b8a9     ....U...........
   1c9d0:	dfc5 dfd9 dfc1 b8b1 dfd8 dfbf b5e3 dfcf     ................
   1c9e0:	dfc0 dfd6 b8b0 b8a8 0000 dfaa dfb2 0000     ................
   1c9f0:	dfcb dfc3 dfdc dfc6 b8b6 dfd7 0000 b8ad     ................
   1ca00:	0000 dfc9 dfd1 dfb6 dfd0 0000 dfe1 dfb1     ................
   1ca10:	dfd2 0000 dfdf 0000 dfab b5db 0000 dfb9     ................
   1ca20:	dfb8 b8af 0000 dfbc dfbe dfcd dfde b8b2     ................
   1ca30:	0000 b8b3 0000 dfb0 b8ab dfb4 dfda b8b4     ................
   1ca40:	0000 b8ac b8ae b8b5 dfe0 dfd3 dfce 0000     ................
   1ca50:	0000 dfbb dfba b8aa dfac b8a7 dfc4 dfad     ................
   1ca60:	dfc2 0000 0000 dfb7 dfdb 0000 0000 0000     ................
   1ca70:	b8a6 0000 0000 0000 dfb3 0000 0000 0000     ................
   1ca80:	0000 0000 0000 dfaf dfd5 dfae bb60 e3d3     ............`...
   1ca90:	0000 0000 e3c2 0000 0000 e3ac e3ca bb58     ..............X.
   1caa0:	e3bb e3c5 bb5b e3be bb59 e3af e3cd e3ae     ....[...Y.......
   1cab0:	e3c1 0000 e3ad 0000 0000 e3bf e3c8 e3c6     ................
   1cac0:	e3ba e3b5 e3b3 0000 e3b4 e3c7 e3d2 e3bc     ................
   1cad0:	bb5a 0000 e3b7 0000 e3cb 0000 bb5d e3b6     Z...........]...
   1cae0:	e3b0 e3c0 bb61 0000 0000 bb55 bb5e e3b8     ....a.....U.^...
   1caf0:	e3b2 0000 bb57 dfd4 bb56 e3c3 0000 bb54     ....W...V.....T.
   1cb00:	bb63 bb5c e3c4 e3b9 e3b1 e3cc e3bd bb62     c.\...........b.
   1cb10:	e3d0 bb5f e3cf 0000 e3c9 e3ce 0000 0000     .._.............
   1cb20:	0000 e3d1 0000 0000 0000 0000 0000 0000     ................
	...
   1cb38:	0000 e773 e774 e767 e766 e762 bdb4 0000     ..s.t.g.f.b.....
   1cb48:	bdac e776 e775 dfa9 e75f e763 e75d 0000     ..v.u..._.c.]...
   1cb58:	e770 e761 0000 e777 e75a e758 e764 e76e     p.a...w.Z.X.d.n.
   1cb68:	e769 bdb6 e74f 0000 e76d 0000 0000 0000     i...O...m.......
   1cb78:	bdb7 dfbd e75b e752 e755 e77b e75c e753     ....[.R.U.{.\.S.
   1cb88:	e751 e74e 0000 bdb0 e765 bdaf bdb3 e760     Q.N.....e.....`.
   1cb98:	e768 bda9 e778 e77c bdab 0000 e757 e76b     h...x.|.....W.k.
   1cba8:	e76f e754 e779 bdb2 0000 bdb1 e74c bdb5     o.T.y.......L...
   1cbb8:	e772 e756 e76a e750 e75e e759 bdad bdae     r.V.j.P.^.Y.....
   1cbc8:	e76c e77d e77a e771 0000 0000 0000 0000     l.}.z.q.........
	...
   1cbe0:	0000 e74d 0000 bdaa eb49 0000 eb40 eb43     ..M.....I...@.C.
   1cbf0:	0000 bfbb eb45 eaf9 eb41 eb47 bfb8 bfbc     ....E...A.G.....
   1cc00:	bfb6 0000 0000 eafb eb4c 0000 0000 eb46     ........L.....F.
   1cc10:	0000 eafc eb55 eb4f eaf8 ee46 eafe bfb7     ....U.O...F.....
   1cc20:	0000 eb4a 0000 eb54 bfbf 0000 eb51 eafd     ..J...T.....Q...
   1cc30:	eb44 eb48 eb42 eb56 eb53 eb50 bfb9 bfba     D.H.B.V.S.P.....
   1cc40:	bfbe eafa eb57 bfbd eb4d 0000 0000 eb4b     ....W...M.....K.
   1cc50:	0000 0000 0000 eb4e ee53 ee40 ee45 ee52     ......N.S.@.E.R.
   1cc60:	ee44 edfb ee41 0000 c1a2 0000 edf4 ee4d     D...A.........M.
   1cc70:	ee4f edf3 c1a1 ee51 ee49 c1a8 ee50 ee42     O.....Q.I...P.B.
   1cc80:	c1aa edf9 eb52 ee4a ee47 edf5 ee55 c1a4     ....R.J.G...U...
   1cc90:	0000 0000 c1a5 edf7 ee48 0000 ee54 ee4b     ........H...T.K.
   1cca0:	edfd c1a7 c1a3 ee4c edfe ee56 edf8 ee43     ......L...V...C.
   1ccb0:	ee4e edfa edfc 0000 c2cb edf6 c1a9 c2c4     N...............
   1ccc0:	c17e 0000 0000 0000 0000 c1a6 c2c8 f0b3     ~...............
   1ccd0:	0000 f0a9 f0a4 f0aa f0b4 f0b8 f0b7 c2ca     ................
   1cce0:	c2c9 0000 0000 f0ab f0b9 f0ae f0a6 0000     ................
   1ccf0:	f0a8 f0a7 f0ad f0b2 f0a5 f0ac f0b1 c2c7     ................
   1cd00:	0000 f0af 0000 c2c5 f0b0 c2c3 c2c6 f2d5     ................
   1cd10:	f0b5 0000 0000 c3c2 0000 f2cd f2d1 f2c9     ................
   1cd20:	f2cc 0000 f2d4 c3c0 f2d9 f2d2 0000 f2ca     ................
   1cd30:	f2da f2d3 c3c3 c3c4 f2d7 0000 f2cb c3bf     ................
   1cd40:	c3c1 f2c6 f2ce f2c8 0000 f2d8 f2d6 f2c7     ................
   1cd50:	f2cf 0000 0000 0000 f4be c3c5 f2d0 c4a7     ................
   1cd60:	c4a9 c4a6 0000 f4c3 f4bb f4b9 f4bd f4ba     ................
   1cd70:	0000 0000 f4bf f4c1 c4aa c4ac 0000 f4c0     ................
   1cd80:	c4ad c4ab f4c2 0000 0000 0000 0000 c4a8     ................
	...
   1cd98:	0000 c4f4 f5f1 f5f7 c4f6 f4bc f5f6 0000     ................
   1cda8:	f5fd f5f4 f5fb f5fa f4b8 f5f5 f0b6 f5fe     ................
   1cdb8:	f5f3 f5f8 0000 f5fc f5f2 0000 f74a c4f5     ............J...
   1cdc8:	f5f9 0000 0000 f7f4 f74b f749 f747 f748     ........K.I.G.H.
   1cdd8:	f74c 0000 c5d9 f7f2 f7f0 f7f5 f7f3 0000     L...............
   1cde8:	f7f6 c5da f7f1 0000 0000 f8bc 0000 0000     ................
   1cdf8:	f945 f946 f947 0000 0000 f9c7 f9bd ca4f     E.F.G.........O.
   1ce08:	aaea 0000 ad68 0000 d3b8 d3b7 b040 b342     ....h.......@.B.
   1ce18:	d77c 0000 0000 d77b 0000 b5ea b8b8 0000     |.....{.........
   1ce28:	b8b7 b8b9 0000 e3d4 e77e eb58 eb5a eb59     ........~.X.Z.Y.
   1ce38:	0000 c1ab ee57 f0ba f9a5 a6e4 0000 cdc9     ....W...........
   1ce48:	cdca cdc8 cdc7 aaeb 0000 d0a9 d0a7 0000     ................
   1ce58:	0000 d0a6 0000 ad69 ad6b ad6a d0a8 0000     ......i.k.j.....
	...
   1ce74:	0000 d3c4 d3c1 d3bf 0000 0000 b041 d3c2     ............A...
   1ce84:	b046 d3bc d3cb 0000 d3cd d3bd 0000 b043     F.............C.
   1ce94:	d3ce d3c9 d3bb d3c0 d3ca d3c6 d3c3 0000     ................
   1cea4:	b048 d3cc d3be 0000 0000 d3c7 d3b9 b047     H.............G.
   1ceb4:	b044 d3c5 0000 d3c8 d3ba b045 b042 0000     D.........E.B...
   1cec4:	0000 0000 0000 b34c d7a5 b34b 0000 d7a8     ......L...K.....
   1ced4:	d7ab b348 b346 d77e d7a9 d7a7 d7a4 d7ac     ..H.F.~.........
   1cee4:	d7ad d7af d7b0 d77d b345 d7a2 d7a1 d7ae     ......}.E.......
   1cef4:	b347 d7a3 b349 b344 d7a6 b34d 0000 b34a     G...I.D...M...J.
   1cf04:	d7aa 0000 0000 0000 b5f1 dbbf 0000 dbb4     ................
   1cf14:	b5ee 0000 dfe7 dbbd dbb1 b5ec dbb6 b5ef     ................
   1cf24:	dbba dbb8 b5f2 b5eb 0000 0000 dbb2 dbb5     ................
   1cf34:	b5f0 0000 dbb3 0000 dbbe dbbc dbb7 dbb9     ................
   1cf44:	dbbb b5ed 0000 0000 0000 0000 0000 0000     ................
   1cf54:	0000 dfe8 dfee dfe4 dfea b8ba dfe6 b8c0     ................
   1cf64:	0000 0000 b8bf 0000 b8be dfed b8c1 b8c2     ................
   1cf74:	dfe3 dff0 b8c3 b8bd b8bc dfec b8c4 dfe2     ................
   1cf84:	dfe5 dfef dfeb 0000 0000 e3f4 e3e9 b8bb     ................
	...
   1cf9c:	bb6a e3dd e3f2 e3de bb65 0000 e3db 0000     j.......e.......
   1cfac:	e3e4 e3dc bb67 e3d6 e3f1 bb68 e3ee e3ef     ....g.....h.....
   1cfbc:	e3d7 bb6d e3e6 0000 e3e0 e3e7 e3da 0000     ..m.............
   1cfcc:	e3f3 e3eb e3e5 e3d5 bb69 e3ec 0000 bb6c     ........i.....l.
   1cfdc:	e3f0 0000 e3ea bb66 e3e8 0000 e3e2 bb64     ......f.......d.
   1cfec:	e3d9 e3e1 e3ed e3df 0000 0000 e3e3 0000     ................
	...
   1d004:	bdc1 dfe9 e7b2 e7bb e7b1 e7ad e7aa bdc2     ................
   1d014:	e7a8 bb6b e7a1 bdc0 e7a7 bdbf e7ac e7a9     ..k.............
   1d024:	e7b9 e7b4 e7ae e7b3 bdbb e7ab e7be e7a2     ................
   1d034:	e7a3 e7ba bdbc e7bf bdbe e7c0 e7b0 e3d8     ................
   1d044:	e7b6 e7af e7b8 e7b5 0000 0000 0000 e7a6     ................
   1d054:	bdb9 e7bd bdba e7a4 bdbd eb64 e7b7 e7bc     ..........d.....
	...
   1d06c:	0000 eb61 bdb8 bfc0 eb6b eb67 0000 eb65     ..a.....k.g...e.
   1d07c:	eb60 eb6f 0000 0000 0000 bfc4 0000 eb5c     `.o...........\.
   1d08c:	eb68 eb69 eb5f eb5e eb6c 0000 eb62 eb5d     h.i._.^.l...b.].
   1d09c:	eb63 0000 eb6e eb5b eb6d eb6a bfc2 bfc1     c...n.[.m.j.....
   1d0ac:	0000 0000 bfc3 eb66 f0cb 0000 0000 0000     ......f.........
   1d0bc:	0000 0000 ee59 c1b1 ee5d ee5a ee61 ee67     ....Y...].Z.a.g.
   1d0cc:	ee5c 0000 ee70 c1ae ee6a ee5f ee6b ee66     \...p...j._.k.f.
   1d0dc:	ee6d ee5e c1b3 c1b2 ee60 ee6e ee58 ee6c     m.^.....`.n.X.l.
   1d0ec:	c1ac 0000 ee64 ee63 ee68 ee5b c1b0 0000     ....d.c.h.[.....
   1d0fc:	c1b4 ee62 ee69 c1b5 ee65 0000 0000 0000     ..b.i...e.......
   1d10c:	0000 c1ad c1af f0c7 f0c5 0000 0000 f0cc     ................
   1d11c:	f0c9 f0cd 0000 f0be f0c6 f0d1 ee6f f0c2     ............o...
   1d12c:	c2cf e7a5 f0bd f0ca f0c4 f0c1 f0bc f0bb     ................
   1d13c:	f0d0 0000 f0c0 f0bf c2cd f0c8 0000 c2cc     ................
   1d14c:	0000 0000 c2ce f0c3 f0cf 0000 f2de f2df     ................
   1d15c:	0000 c3c9 f2dc c3c6 f2e4 0000 c3ca f2e6     ................
   1d16c:	f2db f0ce f2e8 f2dd 0000 c3c7 f2e3 0000     ................
   1d17c:	f2e5 f2e0 f2e7 f2e2 f2e1 c3c8 0000 0000     ................
   1d18c:	f4c5 f4c6 0000 f4c8 c4ae c4af f4c9 f4c7     ................
   1d19c:	0000 f4c4 0000 f642 f645 f641 0000 c4fa     ......B.E.A.....
   1d1ac:	f643 c4f9 c4f8 c4f7 f644 f751 f74f 0000     C.......D.Q.O...
   1d1bc:	f74e f640 f750 f646 f74d 0000 f7f9 f7d7     N.@.P.F.M.......
   1d1cc:	f7f7 c5db f7f8 f7fa 0000 f8bf c5fa f8be     ................
   1d1dc:	f8bd c5fb 0000 c65a f96e f9a7 f9a6 f9a8     ......Z.n.......
   1d1ec:	a6e5 d0aa 0000 d3cf d3d0 0000 0000 0000     ................
   1d1fc:	dbc0 0000 f647 f8c0 a6e6 ad6c d0ab 0000     ....G.....l.....
   1d20c:	0000 0000 d7b1 b34e 0000 dbc2 dbc1 b5f3     ......N.........
   1d21c:	0000 b8c5 e7c1 bdc3 0000 bdc4 0000 0000     ................
   1d22c:	0000 bfc5 c5fc a6e7 0000 0000 0000 d0ac     ................
   1d23c:	aaed d0ae d0ad ad6d 0000 d3d1 0000 d3d8     ......m.........
   1d24c:	b049 d3d6 d3d4 0000 d3db d3d2 d3d3 b04a     I.............J.
   1d25c:	0000 b04e 0000 0000 d3dc b04d d3da d3d7     ..N.......M.....
   1d26c:	d3d5 b04b b04c d3d9 0000 0000 0000 0000     ..K.L...........
   1d27c:	b350 d7b2 0000 b355 d7c2 b354 d7c4 0000     P.....U...T.....
   1d28c:	0000 d7b8 b352 d7c3 0000 d7b3 b353 d7bf     ....R.......S...
   1d29c:	d7bb d7bd d7b7 d7be 0000 0000 b34f d7ba     ............O...
   1d2ac:	0000 d7b9 d7b5 0000 d7c0 0000 0000 d7bc     ................
   1d2bc:	d7b4 0000 d7b6 b351 d7c1 0000 0000 0000     ......Q.........
   1d2cc:	0000 b5f6 dbcd 0000 0000 0000 dbc9 dbcb     ................
   1d2dc:	dbc6 dbc5 dbc3 0000 dbca dbcc dbc8 0000     ................
   1d2ec:	dbc7 b5f4 b5f5 0000 0000 0000 0000 0000     ................
   1d2fc:	0000 dbcf b8cd dff2 dff8 dff3 dff4 f9d8     ................
   1d30c:	dff9 0000 b8cf 0000 b8c7 b8ce dff1 dbc4     ................
   1d31c:	b8ca b8c8 dff7 dff6 b8c9 b8cb dff5 b8c6     ................
   1d32c:	0000 b8cc 0000 0000 0000 0000 0000 e3f6     ................
   1d33c:	bb74 0000 0000 e442 e441 0000 e3fb bb76     t.....B.A.....v.
   1d34c:	e440 e3f7 e3f8 bb6e bb70 0000 e3fd e3f5     @.....n.p.......
   1d35c:	bb72 bb71 e3f9 e3fe e3fc bb73 e3fa 0000     r.q.......s.....
   1d36c:	0000 dbce bb6f 0000 0000 e7c2 e7c9 bdc6     ....o...........
   1d37c:	0000 e7cd bdca e7c5 e7c3 0000 e7cc 0000     ................
   1d38c:	bdc5 e7cb bdc7 bdc8 e7c4 bdc9 e7ca e7c6     ................
   1d39c:	e7c7 e7c8 bb75 0000 0000 0000 eb70 eb7c     ....u.......p.|.
   1d3ac:	0000 bfca eb77 eb79 0000 bfc8 eb71 eb75     ....w.y.....q.u.
   1d3bc:	0000 eb78 bfc6 bfc9 eb7b eb73 eb74 eb7a     ..x.....{.s.t.z.
   1d3cc:	eb72 eb76 bfc7 ee72 0000 ee71 c1b7 ee77     r.v...r...q...w.
   1d3dc:	c1b9 0000 0000 c1b6 ee73 c1ba ee74 0000     ........s...t...
   1d3ec:	0000 ee75 ee78 0000 c1b8 0000 f0d6 0000     ..u.x...........
   1d3fc:	0000 f0d9 0000 f0d3 f0d5 0000 0000 f0d4     ................
   1d40c:	f0d7 f0d8 ee76 f0d2 0000 0000 c3cd f2ec     ....v...........
   1d41c:	f2ef f2f1 f2ea f2eb f2ee f2f0 c3ce c3cc     ................
   1d42c:	c3cb f2ed f2e9 f4ca c4b0 0000 f4cb 0000     ................
   1d43c:	0000 f649 c4fb f64b c4fc f648 f64a c5a8     ..I...K...H.J...
   1d44c:	0000 f752 c5a7 f7fd f7fc 0000 f7fb 0000     ..R.............
   1d45c:	0000 f948 f949 f94b f94a 0000 ca50 a6e8     ..H.I.K.J...P...
   1d46c:	0000 ad6e d7c5 b5f7 0000 dffa c2d0 0000     ..n.............
   1d47c:	f2f2 0000 0000 a8a3 0000 0000 0000 b357     ..............W.
   1d48c:	0000 0000 0000 b356 0000 dbd0 b5f8 dbd2     ......V.........
   1d49c:	dbd1 0000 0000 dffb b8d0 e443 e446 e445     ..........C.F.E.
   1d4ac:	0000 e444 e7ce e7d0 e7cf 0000 bfcc 0000     ..D.............
   1d4bc:	0000 0000 bfcb 0000 c1bb ee79 ee7b ee7a     ..........y.{.z.
   1d4cc:	0000 0000 c2d1 0000 0000 0000 f2f4 f2f3     ................
   1d4dc:	0000 f4cc c4b1 0000 0000 c4fd f754 f753     ............T.S.
   1d4ec:	c65b 0000 0000 0000 0000 0000 0000 0000     [...............
	...
   1d510:	a8a4 d0af ad6f d7c8 d7c6 0000 0000 d7c7     ....o...........
   1d520:	dbd4 dbd5 e043 dbd3 0000 dffc e041 e040     ....C.......A.@.
   1d530:	e042 b8d1 dffe dffd e044 0000 e449 e447     B.......D...I.G.
   1d540:	0000 e448 e7d3 e7d1 0000 0000 e7d2 eb7d     ..H...........}.
   1d550:	ee7c ee7d c2d2 0000 f2f5 f4cd c4b2 0000     |.}.............
   1d560:	f64c f755 c5a9 0000 f7fe f94c a8a5 0000     L.U.......L.....
   1d570:	ad71 ad72 d0b0 0000 0000 d0b1 ad70 0000     q.r.........p...
   1d580:	b054 0000 b052 0000 b051 b058 b050 b059     T...R...Q.X.P.Y.
   1d590:	d3dd b056 0000 b053 b057 b055 b04f 0000     ..V...S.W.U.O...
   1d5a0:	0000 b35f 0000 b359 d7cc b35e 0000 0000     .._...Y...^.....
   1d5b0:	b360 b35a 0000 b35b 0000 d7ca 0000 0000     `.Z...[.........
   1d5c0:	b358 0000 d7cb b35d 0000 0000 d7c9 b35c     X.....].......\.
   1d5d0:	0000 0000 b644 0000 b646 0000 0000 dbd8     ....D...F.......
   1d5e0:	b645 b5f9 b5fd 0000 b8e4 e049 dbda b5fe     E.........I.....
   1d5f0:	0000 0000 dbdd dbde b643 0000 dbe0 0000     ........C.......
   1d600:	dbe2 0000 dbe3 dbd7 dbd6 dbe4 b642 dbe1     ............B...
   1d610:	dbdf 0000 b640 b5fb b647 dbdb dbdc dbd9     ....@...G.......
   1d620:	0000 b641 0000 0000 b5fc 0000 b5fa e048     ..A...........H.
   1d630:	b8df b8da 0000 0000 b8d5 0000 b8e5 b8d6     ................
   1d640:	0000 b8d2 b8e1 b8de b8e0 0000 b8d7 b8dc     ................
   1d650:	b8d3 b8d4 e050 e04d e045 e04a 0000 b8e2     ....P.M.E.J.....
   1d660:	e051 b8e3 b8d9 0000 0000 e047 0000 e04f     Q.........G...O.
   1d670:	e04b e04e e04c b8dd e046 b8d8 0000 0000     K.N.L...F.......
   1d680:	0000 e44c bb78 bb7b 0000 e44e 0000 bba5     ..L.x.{...N.....
   1d690:	e44d bb7d 0000 bdcf e44f 0000 bba4 e44b     M.}.....O.....K.
   1d6a0:	bba6 0000 0000 0000 bb79 0000 b8db bb7c     ........y.....|.
   1d6b0:	0000 bb7a bb7e bba2 bb77 bba7 bba3 0000     ..z.~...w.......
   1d6c0:	bba1 e44a 0000 0000 0000 0000 bdd6 0000     ..J.............
   1d6d0:	bdd2 0000 0000 0000 bdd9 0000 e7d6 bdda     ................
   1d6e0:	e7e2 e7db bdcb e7e3 e7dd bdd5 e7de 0000     ................
   1d6f0:	bdd4 e7e1 bdce e7df e7d5 bdcd ebaa bdd3     ................
   1d700:	0000 bdd0 0000 bdd8 0000 e7d4 0000 e7d8     ................
   1d710:	bdcc e7d7 e7d9 e7da bdd7 e7dc e7e0 e7e4     ................
   1d720:	0000 bddb bfd2 eba5 ebab eba8 eb7e ebac     ............~...
   1d730:	eba1 0000 eba7 0000 bfcd bfd3 ebad 0000     ................
   1d740:	0000 bfcf 0000 bfd9 bfd4 ebaf eba9 bfd0     ................
   1d750:	eba2 bfda eba3 eba4 bfdb bfd8 bdd1 0000     ................
   1d760:	bfce ebb0 bfdc 0000 bfd5 ebae bfd1 bfd6     ................
   1d770:	bfd7 0000 c1c3 eea4 eead eeaa eeac 0000     ................
   1d780:	c1c0 eea5 0000 eeab c1bc eea7 c1c4 eea3     ................
   1d790:	eea8 eeaf eba6 eea9 eea2 c1bd eea1 c1be     ................
   1d7a0:	eeb0 c1bf eeae c1c2 ee7e 0000 c1c1 0000     ........~.......
   1d7b0:	eea6 f0dc f0ea f0e5 f0e7 f0db c2d3 0000     ................
   1d7c0:	f0da c2d6 c2d5 0000 f0e9 f0e1 f0de f0e4     ................
   1d7d0:	0000 f0dd 0000 f0df f0e8 f0e6 0000 c2d4     ................
   1d7e0:	f0ed f0eb f0e2 f0ec f0e3 0000 f2f9 c3cf     ................
   1d7f0:	f341 0000 0000 f64f c3d6 f0e0 f2f7 c3d2     A.....O.........
   1d800:	f2f8 f2fd 0000 0000 c3d4 c3d5 f2f6 f340     ..............@.
   1d810:	f342 f2fa f2fc f2fe f2fb f343 c3d1 c3d7     B.........C.....
   1d820:	c3d3 0000 c3d0 f4d0 0000 c4b7 f4ce 0000     ................
   1d830:	0000 f4d2 0000 f4d3 c4b5 f4d4 f4d1 0000     ................
   1d840:	f4cf c4b8 c4b4 f4d5 0000 c4b6 c4b3 0000     ................
   1d850:	0000 0000 c4fe 0000 0000 c540 f64e f64d     ..........@.N.M.
   1d860:	f650 f651 0000 c541 f756 f75b c5aa 0000     P.Q...A.V.[.....
   1d870:	f758 0000 f757 f75a f759 0000 f843 0000     X...W.Z.Y...C...
   1d880:	c5dc f842 f840 0000 f841 0000 0000 0000     ..B.@...A.......
   1d890:	c5fe c5fd f8c1 f8c2 c640 0000 f94d f94e     ........@...M.N.
   1d8a0:	c667 0000 c66d 0000 f9a9 f9c8 0000 0000     g...m...........
	...
   1d9d8:	0000 a8a6 0000 d7cd 0000 d7ce e052 e450     ............R.P.
   1d9e8:	e7e5 c1c6 0000 c1c5 f0ee f344 0000 f844     ..........D...D.
   1d9f8:	a8a7 d3de b05a b361 e054 e053 bddc e7e6     ....Z.a.T.S.....
   1da08:	bddd eeb1 c2d7 0000 0000 0000 c676 a8a8     ............v...
   1da18:	cdcb d3df 0000 0000 b362 0000 d7cf d7d0     ........b.......
   1da28:	0000 dbe5 0000 b648 b8e6 0000 e056 e055     ......H.....V.U.
   1da38:	e057 0000 e451 e452 bba8 bfdd bdde bfde     W...Q.R.........
   1da48:	0000 eeb5 eeb2 eeb4 eeb3 c1c7 0000 f0ef     ................
   1da58:	f346 f345 cba4 b05c b05b d3e0 0000 d7d1     F.E...\.[.......
   1da68:	0000 0000 dbe7 dbe6 b649 0000 e059 e05a     ........I...Y.Z.
   1da78:	e058 0000 0000 b8e8 b8e7 0000 bbaa bba9     X...............
   1da88:	0000 e7e7 ebb3 ebb1 ebb2 bfdf eeb7 eeb6     ................
   1da98:	0000 f0f2 f0f1 f0f0 f347 0000 f9aa a8a9     ........G.......
   1daa8:	ad73 0000 ad74 b05d b05e d3e2 d3e1 d7d2     s...t.].^.......
   1dab8:	0000 b368 b366 b363 b367 b365 b364 0000     ..h.f.c.g.e.d...
   1dac8:	0000 b64a dbea 0000 b8ed b64c b651 dbec     ..J.......L.Q...
   1dad8:	b653 b652 b655 dbeb dbe8 b64f b64b b64d     S.R.U.....O.K.M.
   1dae8:	dbe9 b654 b650 b64e b8ef b8ee b8ec b8f0     ..T.P.N.........
   1daf8:	0000 b8ea b8eb 0000 b8e9 0000 e05b 0000     ............[...
   1db08:	0000 e454 0000 bbac bbad bbab 0000 e453     ..T...........S.
   1db18:	0000 e455 0000 e7ea e7ec 0000 bde7 e7ed     ..U.............
   1db28:	bde0 e7e9 bddf bde9 bde5 bde6 bde2 e7e8     ................
   1db38:	bde1 e7ee e7eb 0000 bde8 0000 bde3 bde4     ................
   1db48:	ebb5 0000 ebb7 ebb6 0000 ebb8 bfe0 ebb4     ................
   1db58:	0000 0000 c1cb eeb8 c1c8 c1cc c1ca c1c9     ................
   1db68:	f0f3 0000 f0f6 0000 f0f5 0000 f0f4 c2d8     ................
   1db78:	f348 f349 c3d8 f34a c3d9 0000 0000 c4ba     H.I...J.........
   1db88:	0000 c4b9 f652 0000 0000 c542 f653 f75c     ....R.....B.S.\.
   1db98:	c5ab c5ac 0000 f845 0000 c642 0000 0000     ......E...B.....
	...
   1dc34:	a8aa 0000 b36a b369 e05c e05d 0000 bbae     ....j.i.\.].....
   1dc44:	ebb9 bdea ebba eeb9 a8ab 0000 d0b2 ad76     ..............v.
   1dc54:	ad75 0000 d3e3 b05f d3e4 d7d5 0000 d7d4     u....._.........
   1dc64:	0000 d7d3 0000 0000 dbee b658 0000 0000     ..........X.....
   1dc74:	dbed b657 0000 0000 0000 dbef b656 0000     ..W.........V...
   1dc84:	e05f e062 e060 e061 e065 e05e e066 e063     _.b.`.a.e.^.f.c.
   1dc94:	e064 bbb0 e456 0000 0000 bbaf 0000 e7f2     d...V...........
   1dca4:	e7f0 0000 0000 bdeb e7ef e7f1 0000 bdec     ................
   1dcb4:	0000 ebbb 0000 ebbc c1cd 0000 f34c f34e     ............L.N.
   1dcc4:	f34b f34d f4d6 f654 0000 0000 f96f a8ac     K.M...T.....o...
   1dcd4:	ad77 d3e5 d3e7 d3e6 0000 d7d8 b36c 0000     w...........l...
   1dce4:	d7d6 0000 b36b d7d9 0000 d7da d7d7 0000     ....k...........
   1dcf4:	0000 dbfb b660 dbf3 dbf9 0000 0000 b65b     ....`.........[.
   1dd04:	b65e dbf2 b659 dbf6 e06c b65d 0000 dbf1     ^...Y...l.].....
   1dd14:	0000 dbf7 dbf4 dbfa dbf0 dbf8 b65c b65f     ............\._.
   1dd24:	dbf5 b65a 0000 b8f2 e068 b8f1 e06f e06e     ..Z.....h...o.n.
   1dd34:	b8f8 0000 b8f9 e070 b8f3 e06d b8f7 e072     ......p...m...r.
   1dd44:	e069 0000 e06b b8f4 e067 e06a e071 b8f5     i...k...g.j.q...
   1dd54:	e073 0000 0000 0000 0000 0000 b8f6 0000     s...............
   1dd64:	bbb1 e45b e461 e459 e462 0000 e458 e45d     ..[.a.Y.b...X.].
   1dd74:	e463 e460 e45f e45e 0000 e457 e45c 0000     c.`._.^...W.\...
   1dd84:	0000 e45a 0000 bdf1 bdee e7fb e841 e843     ..Z.........A.C.
   1dd94:	e840 e7f8 e7fa e845 e842 e7fc e846 e7f9     @.....E.B...F...
   1dda4:	e844 bdef bdf5 bdf3 e7f3 bdf4 bdf0 e7f4     D...............
   1ddb4:	e7f6 e7f5 e7fd e7fe 0000 bdf2 0000 bded     ................
   1ddc4:	0000 0000 e7f7 0000 ebc6 bfe2 0000 ebbd     ................
   1ddd4:	bfe3 bfe6 ebc2 0000 ebbf bfe5 0000 0000     ................
   1dde4:	ebc3 ebc4 ebbe ebc7 ebc0 ebc5 bfe4 0000     ................
   1ddf4:	bfe1 ebc1 0000 eebf c1d0 c1ce c1d1 c1cf     ................
   1de04:	eebe eebb eeba 0000 eebd 0000 0000 eebc     ................
   1de14:	f145 c2de f0fb f0fa 0000 c2d9 f141 f140     E...........A.@.
   1de24:	f0f7 f143 f0fc c2dd f0f9 f142 f0f8 c2da     ..C.......B.....
   1de34:	c2dc f0fd c2db f0fe 0000 f144 f352 0000     ..........D.R...
   1de44:	c3de f34f 0000 f353 0000 0000 c3db f351     ..O...S.......Q.
   1de54:	c3e0 0000 c3dd 0000 f350 0000 c3df f354     ........P.....T.
   1de64:	c3da 0000 0000 0000 0000 c4bc c4be 0000     ................
   1de74:	f4d9 c4bd f4d7 c3dc f4d8 c4bb c543 c545     ............C.E.
   1de84:	f656 c544 f655 0000 f761 c5ad f760 c5ae     V.D.U...a...`...
   1de94:	f75e f75d f762 f763 f846 0000 f75f 0000     ^.].b.c.F..._...
   1dea4:	0000 f8c6 f8c3 f8c4 f8c5 c65c 0000 f951     ..........\...Q.
   1deb4:	f950 f94f f970 0000 f9be f9ab c66e a8ad     P.O.p.......n...
   1dec4:	b060 0000 0000 0000 0000 0000 b8fa 0000     `...............
	...
   1dee0:	bdf6 0000 0000 ebc8 0000 0000 c2df 0000     ................
   1def0:	f355 0000 0000 0000 0000 0000 0000 f9ac     U...............
   1df00:	a8ae aaee ad79 ad78 0000 b063 0000 d3e8     ....y.x...c.....
   1df10:	b061 d3e9 b062 0000 0000 d7df d7db 0000     a...b...........
   1df20:	0000 b36d d7de d7dd d7dc b36e d7e0 d7e1     ..m.......n.....
   1df30:	0000 0000 0000 dc43 dc41 dc45 dc46 dc4c     ......C.A.E.F.L.
   1df40:	0000 dc48 dc4a 0000 dc42 dbfc 0000 dc49     ..H.J...B.....I.
   1df50:	0000 0000 dc4b dc44 dc47 dbfd b662 dc40     ....K.D.G...b.@.
   1df60:	dbfe b661 b663 0000 b8fd e075 e077 e076     ..a.c.....u.w.v.
   1df70:	e07b b8fb 0000 e078 e074 e079 e07a b8fc     {.....x.t.y.z...
   1df80:	b8fe e07c 0000 e467 e466 0000 e464 e465     ..|...g.f...d.e.
   1df90:	bbb3 bbb5 bbb2 bbb4 e84d e84e e849 0000     ........M.N.I...
   1dfa0:	e84a bdf8 bdfd bdf7 bdfe bdf9 e84b 0000     J...........K...
   1dfb0:	0000 e84c e848 be40 bdfb 0000 0000 bdfa     ..L.H.@.........
   1dfc0:	bdfc 0000 e847 0000 ebca bfe8 0000 0000     ....G...........
   1dfd0:	ebcc bfea ebcf ebcb ebc9 ebce bfe9 ebcd     ................
   1dfe0:	0000 bfe7 0000 0000 c1d3 c1d6 eec1 0000     ................
   1dff0:	c1d4 eec0 c1d2 c1d5 f146 f147 f148 c2e0     ........F.G.H...
   1e000:	0000 f149 0000 c2e1 c3e2 f358 f359 f357     ..I.......X.Y.W.
   1e010:	f356 f35a c3e1 f4dd f4db f4dc f4de f4da     V.Z.............
   1e020:	f4df f658 0000 f659 f657 c546 f764 c5af     ..X...Y.W.F.d...
   1e030:	f765 f848 f847 0000 0000 0000 0000 0000     e.H.G...........
	...
   1e0a0:	0000 a8af b664 0000 0000 b940 0000 0000     ....d.....@.....
   1e0b0:	0000 bbb6 0000 0000 bfec 0000 bfeb 0000     ................
   1e0c0:	0000 0000 0000 c3e3 c47c c547 a8b0 b064     ........|.G...d.
   1e0d0:	b941 0000 f35b 0000 0000 0000 0000 0000     A...[...........
	...
   1e0e8:	0000 cba6 0000 0000 a8b1 0000 a8b4 a8b3     ................
   1e0f8:	a8b2 0000 0000 cba5 0000 cdcd 0000 cdcf     ................
   1e108:	aaef 0000 0000 aaf1 cdcc cdce aaf0 cdd1     ................
   1e118:	cdd0 cdd2 0000 0000 0000 0000 0000 0000     ................
   1e128:	0000 0000 d0b6 d0b4 ad7c d0b3 ada3 ad7e     ........|.....~.
   1e138:	ad7b 0000 ada4 0000 ad7d ada2 0000 ada1     {.......}.......
   1e148:	d0b5 0000 ad7a 0000 0000 0000 b06a d3eb     ....z.......j...
   1e158:	d3f1 b067 b06e 0000 b069 d3ee d3f0 b06c     ..g.n...i.....l.
   1e168:	d3ea d3ed b068 b065 d3ec b06b d3ef b06d     ....h.e...k...m.
   1e178:	b066 0000 0000 0000 0000 d7e3 d7e6 b370     f.............p.
   1e188:	0000 b37a b376 d7e4 0000 0000 b37e b377     ..z.v.......~.w.
   1e198:	b37c b372 0000 b36f b371 b37d d7e5 b375     |.r...o.q.}...u.
   1e1a8:	b378 b374 b379 d7e7 b37b b373 d7e2 0000     x.t.y...{.s.....
	...
   1e1c4:	0000 dc4d b665 dc4f 0000 b667 b669 0000     ..M.e.O...g.i...
   1e1d4:	dc4e b666 b66a 0000 b668 0000 0000 0000     N.f.j...h.......
   1e1e4:	b947 e0a3 b94f e07e 0000 b950 b945 0000     G...O.~...P.E...
   1e1f4:	e0a1 0000 0000 b94a 0000 e0a2 b943 b942     ......J.....C.B.
   1e204:	0000 b94d b94c b94b b949 b94e e07d b944     ..M.L.K.I.N.}.D.
   1e214:	b946 b948 0000 0000 bbb8 bbbb 0000 bbbf     F.H.............
   1e224:	bbb9 bbbe bbbc 0000 bbb7 0000 bbbd bbba     ................
   1e234:	0000 0000 0000 e852 be43 be41 0000 e853     ......R.C.A...S.
   1e244:	0000 be44 be42 e851 e850 0000 bff0 e84f     ..D.B.Q.P.....O.
   1e254:	bfee bfed ebd0 be45 bfef ebd1 bff2 ebd2     ......E.........
   1e264:	bff1 c1d8 eec3 c1d7 c1dc c1da c1db c2e3     ................
   1e274:	c1d9 eec2 ebd3 c2e2 c2e4 0000 c3e4 c3e5     ................
   1e284:	0000 f4e0 0000 c5de c5dd a8b6 0000 0000     ................
   1e294:	ca55 b06f 0000 ca52 ca53 ca51 0000 ca54     U.o...R.S.Q...T.
   1e2a4:	0000 0000 cbaa cba7 cbac cba8 a8b7 a8ba     ................
   1e2b4:	0000 cba9 a8b9 cbab 0000 0000 a8b8 0000     ................
   1e2c4:	0000 0000 0000 cdd5 cdd7 aaf4 cdd3 cdd6     ................
   1e2d4:	cdd4 aaf2 aaf5 0000 aaf3 0000 0000 0000     ................
   1e2e4:	0000 d0b8 d0bc d0b9 0000 ada7 0000 ada8     ................
   1e2f4:	0000 d0bb 0000 d0bd d0bf 0000 ada5 d0be     ................
   1e304:	0000 0000 ada6 0000 0000 0000 0000 0000     ................
   1e314:	d7ee d0ba d3f2 d3fb d3f9 d3f4 d3f5 d3fa     ................
   1e324:	d3fc b071 0000 d3f7 d3f3 b070 b072 d3f6     ..q.......p.r...
   1e334:	d3fd d3f8 0000 0000 b3a1 d7f1 d7e9 d7ef     ................
   1e344:	d7f0 b3a2 0000 d7e8 d7ea d0b7 d7ec d7ed     ................
   1e354:	d7eb b66c 0000 0000 0000 dc56 ebd4 dc57     ..l.......V...W.
   1e364:	dc54 b3a3 b66e dc53 dc59 dc58 b66b dc5c     T...n.S.Y.X.k.\.
   1e374:	dc52 dc5b dc50 dc5a dc55 b66d 0000 e0aa     R.[.P.Z.U.m.....
   1e384:	0000 e0a5 e0ab e0a6 e0a4 e0a7 b951 0000     ............Q...
   1e394:	e0a9 0000 e0a8 b952 bbc1 bbc0 e46e e471     ......R.....n.q.
   1e3a4:	e469 e46d bbc2 e46c e46a e470 e46b e468     i.m...l.j.p.k.h.
   1e3b4:	e46f 0000 e859 be48 f14a e856 e857 e855     o...Y.H.J.V.W.U.
   1e3c4:	dc51 be47 e85a e854 be46 be49 e858 ebd5     Q.G.Z.T.F.I.X...
   1e3d4:	bff3 ebd6 ebd7 0000 eec4 c1dd f14b f14c     ............K.L.
   1e3e4:	0000 0000 f14d f35d f35c f4e2 0000 f4e1     ....M.].\.......
   1e3f4:	f65b f65c f65a f766 c5b0 a8bb adaa ada9     [.\.Z.f.........
   1e404:	b075 b074 d440 d441 d3fe 0000 b073 d7f5     u.t.@.A.....s...
   1e414:	0000 d7f6 d7f2 b3a4 d7f3 0000 d7f4 0000     ................
   1e424:	0000 0000 0000 dc5f dc61 dc5d dc60 b66f     ......_.a.].`.o.
   1e434:	dc5e b670 0000 0000 dd73 b955 b954 0000     ^.p.....s.U.T...
   1e444:	b953 0000 e0ac e0ad 0000 0000 e473 e475     S...........s.u.
   1e454:	bbc6 bbc3 0000 bbc5 bbc4 e474 e472 0000     ..........t.r...
	...
   1e46c:	e861 e85e e85f be4d e860 e85b e85c be4a     a.^._.M.`.[.\.J.
   1e47c:	0000 be4b e85d be4c 0000 ebdb 0000 ebdc     ..K.].L.........
   1e48c:	ebd9 ebda bff4 ebd8 0000 0000 0000 0000     ................
   1e49c:	0000 eec8 eec5 eec7 c1e0 eecb c1df eec9     ................
   1e4ac:	eecc eeca eec6 c1de 0000 f14f 0000 f150     ..........O...P.
   1e4bc:	f14e 0000 f152 c2e5 c2e6 f35f c3e7 f151     N...R....._...Q.
   1e4cc:	f35e c3e6 f4e5 f4e6 c4bf f4e4 0000 f4e3     ^...............
   1e4dc:	0000 f65d c548 0000 f849 f8c8 f8c7 0000     ..].H...I.......
   1e4ec:	c643 c65d f8c9 f971 0000 c66f a8bc aaf6     C.]...q...o.....
   1e4fc:	0000 b956 0000 c4c0 a8bd adab b3a5 b671     ..V...........q.
   1e50c:	c2e7 aaf7 0000 d0c1 d0c0 d442 0000 b078     ..........B...x.
   1e51c:	b076 b07a d444 0000 b079 b077 0000 0000     v.z.D...y.w.....
   1e52c:	0000 0000 d443 b3a8 d7fc 0000 b3a7 b3a9     ....C...........
   1e53c:	d842 b3ab d7fe d840 d7f7 b3aa d843 0000     B.....@.....C...
   1e54c:	0000 d7f9 0000 d7fa d7f8 b3a6 0000 d841     ..............A.
   1e55c:	d7fb d7fd 0000 0000 0000 dc6d 0000 dc6c     ..........m...l.
   1e56c:	dc6a dc62 dc71 dc65 dc6f dc76 dc6e b679     j.b.q.e.o.v.n.y.
   1e57c:	0000 b675 dc63 0000 dc69 b677 0000 dc68     ..u.c...i.w...h.
   1e58c:	b678 b67a dc6b 0000 b672 b673 dc77 dc75     x.z.k...r.s.w.u.
   1e59c:	0000 dc74 dc66 0000 dc72 0000 b676 0000     ..t.f...r...v...
   1e5ac:	0000 0000 0000 b674 dc73 dc64 dc67 dc70     ......t.s.d.g.p.
	...
   1e5c4:	0000 e4ba e0b7 0000 e0b0 e0c3 e0cc e0b3     ................
   1e5d4:	b961 0000 e0c0 b957 b959 b965 e0b1 0000     a.....W.Y.e.....
   1e5e4:	0000 b95a b95c b966 b95b 0000 0000 0000     ..Z.\.f.[.......
   1e5f4:	0000 b964 e0b9 0000 e0ae b962 e0b8 b95e     ..d.......b...^.
   1e604:	e0ca b963 e0c8 e0bc e0c6 b960 e0af e0c9     ..c.......`.....
   1e614:	e0c4 0000 e0cb b958 0000 0000 b967 b95d     ......X.....g.].
   1e624:	0000 0000 e0b5 0000 e0bd e0c1 0000 e0c5     ................
   1e634:	b95f e0b4 e0b2 e0be 0000 0000 0000 0000     _...............
   1e644:	e0bb e0ba 0000 e0bf e0c2 0000 e0c7 0000     ................
   1e654:	0000 0000 e478 0000 bbc7 e4a4 e47a bbcc     ....x.......z...
   1e664:	bbd0 e4ad e4b5 e4a6 bbc8 0000 e4aa e0b6     ................
   1e674:	0000 bbc9 e4b1 e4b6 e4ae 0000 e4b0 e4b9     ................
   1e684:	e4b2 e47e e4a9 0000 0000 bbd1 0000 bbcd     ..~.............
   1e694:	e47c e4ab bbcb e4a5 bbca e4b3 e4a2 e479     |.............y.
   1e6a4:	bbce e4b8 0000 0000 e47b e4af e4ac e4a7     ........{.......
   1e6b4:	e477 e476 e4a1 e4b4 bbcf e4b7 e47d e4a3     w.v.........}...
   1e6c4:	be52 0000 0000 0000 0000 0000 be5a be55     R...........Z.U.
   1e6d4:	e8a4 e8a1 e867 be50 0000 f9d7 0000 be4f     ....g.P.......O.
   1e6e4:	be56 0000 0000 0000 e865 be54 e871 e863     V.......e.T.q.c.
   1e6f4:	e864 be4e e8a3 be58 e874 e879 e873 ebee     d.N...X.t.y.s...
   1e704:	e86f e877 e875 e868 e862 e87d be57 e87e     o.w.u.h.b.}.W.~.
   1e714:	0000 e878 0000 e86d e86b e866 0000 0000     ..x...m.k.f.....
   1e724:	0000 e86e e87b e86a e87a e8a2 0000 0000     ..n.{.j.z.......
   1e734:	be53 0000 e876 e87c e872 e86c be51 0000     S...v.|.r.l.Q...
   1e744:	0000 0000 e4a8 e870 be59 e869 0000 0000     ......p.Y.i.....
   1e754:	0000 0000 0000 ebf4 bff7 ebf3 ebf0 ec44     ..............D.
   1e764:	bffb 0000 ec41 ebf8 ec43 ebe9 ebf6 0000     ....A...C.......
   1e774:	bffd 0000 ebe1 0000 ebdf ec42 0000 ec40     ..........B...@.
   1e784:	ebfe ebed ebec ebe2 c040 0000 ebe8 ebf2     ........@.......
   1e794:	ebfd c043 ec45 0000 c1e8 c045 bffe ebe6     ..C.E.....E.....
   1e7a4:	0000 ebef ebde ebe0 bff5 c042 bffa ebe7     ..........B.....
   1e7b4:	ebf7 ebf1 c041 ebdd c1e3 ebf9 ebfc bffc     ....A...........
   1e7c4:	0000 ebeb c044 bff9 0000 0000 0000 bff8     ....D...........
   1e7d4:	ebf5 ebfb bff6 0000 ebe4 ebfa 0000 0000     ................
   1e7e4:	ebe5 0000 0000 0000 0000 0000 0000 0000     ................
   1e7f4:	0000 0000 ebea eed2 0000 eed7 c1e5 c1e7     ................
   1e804:	eedd c1e1 eeec eee3 eed8 eed9 eee2 0000     ................
   1e814:	c1ee eee1 eed1 eee0 eed4 eeed c1ed c1eb     ................
   1e824:	eed5 0000 eee8 0000 eeda eee7 0000 eee9     ................
   1e834:	eed0 c1e6 0000 eeea 0000 0000 eede 0000     ................
   1e844:	c1ea eedb 0000 0000 c1ec eee4 0000 0000     ................
   1e854:	0000 c1e4 eed6 eee5 0000 eedf ebe3 eee6     ................
   1e864:	eed3 0000 c1e9 0000 eeeb 0000 c1e2 eece     ................
	...
   1e87c:	f160 f159 c2e9 0000 f154 f163 f15b eedc     `.Y.....T.c.[...
   1e88c:	0000 f165 f155 0000 c2e8 f15f c2ea c2f2     ..e.U....._.....
   1e89c:	c2f0 f161 c2f1 f157 0000 f158 f15d f162     ..a...W...X.].b.
   1e8ac:	0000 eecd c2eb f16a f167 f16b f15e f15a     ......j.g.k.^.Z.
   1e8bc:	f168 f36a f15c 0000 c2ee 0000 c2ed eecf     h.j.\...........
   1e8cc:	c2ef f164 f166 c2ec f169 f153 0000 f156     ..d.f...i.S...V.
	...
   1e8ec:	f373 0000 f363 c3eb f371 0000 0000 f361     s...c...q.....a.
   1e8fc:	c3ec 0000 f36c 0000 f368 c3f1 f372 f362     ....l...h...r.b.
   1e90c:	f365 c3e9 f374 0000 f36d f370 c3ef c3f4     e...t...m.p.....
   1e91c:	c3f2 f369 f364 0000 c3ed c3ee f360 c3ea     ..i.d.......`...
   1e92c:	0000 c3e8 c3f0 f36f c3f3 0000 f36b f375     ......o.....k.u.
   1e93c:	c3f5 0000 0000 0000 f367 0000 f36e 0000     ........g...n...
	...
   1e954:	0000 f4f3 f542 f4f5 f4fc f366 f4fa f4e9     ....B.....f.....
   1e964:	f540 c4c3 f4ed f4fe f4f4 0000 0000 c4c2     @...............
   1e974:	0000 0000 f544 f4f6 0000 f4fb f4fd f4e7     ....D...........
   1e984:	f541 f4f2 f4f7 f4eb f4ef f543 f4f9 f4e8     A.........C.....
   1e994:	f4ec f4ee f4f8 0000 c4c1 f4f1 0000 0000     ................
	...
   1e9ac:	f4ea 0000 0000 0000 0000 0000 0000 0000     ................
   1e9bc:	f4f0 f661 f666 c54f f668 0000 c549 0000     ..a.f.O.h...I...
   1e9cc:	f664 f66a c54e c54a 0000 c54b f660 f667     d.j.N.J...K.`.g.
   1e9dc:	c54d f665 c54c f65f f663 f662 0000 f65e     M.e.L._.c.b...^.
   1e9ec:	f669 0000 0000 0000 c5b1 f76d f770 f76c     i.........m.p.l.
   1e9fc:	f76e f76f f769 f76a f767 0000 0000 f76b     n.o.i.j.g.....k.
   1ea0c:	f768 c5b2 c5b3 0000 0000 f84b 0000 f84d     h.........K...M.
	...
   1ea24:	0000 f84c f84e 0000 c5e0 0000 f84a c5df     ..L.N.......J...
   1ea34:	c5e1 0000 0000 0000 f8cb f8cc c644 f8ca     ............D...
   1ea44:	0000 f953 f952 f954 c65f f955 c65e f956     ..S.R.T._.U.^.V.
   1ea54:	f972 f975 f974 c668 f973 0000 0000 0000     r.u.t.h.s.......
   1ea64:	c672 c670 c671 c677 f9c0 f9c1 f9bf f9c9     r.p.q.w.........
	...
   1ec58:	0000 aaf8 0000 0000 d844 dc78 e8a5 f376     ........D.x...v.
   1ec68:	0000 0000 aaf9 0000 adac b07b 0000 0000     ..........{.....
   1ec78:	d845 0000 d846 b3ac 0000 b67d dc7a dc79     E...F.....}.z.y.
   1ec88:	b6a3 b67c dc7b b67e b6a2 b6a1 b67b 0000     ..|.{.~.....{...
   1ec98:	0000 0000 b968 0000 0000 e0d0 e0ce 0000     ....h...........
   1eca8:	e0cf e0cd 0000 bbd2 0000 bbd5 bbd7 bbd6     ................
   1ecb8:	0000 0000 bbd3 bbd4 0000 e8a7 e8a6 be5b     ..............[.
   1ecc8:	e8a8 0000 e8a9 be5c 0000 0000 0000 ec4d     ......\.......M.
   1ecd8:	ec4b eef3 0000 ec49 ec4a c046 ec46 ec4e     K.....I.J.F.F.N.
   1ece8:	ec48 ec4c eeef 0000 0000 eef1 0000 eef2     H.L.............
   1ecf8:	c1f3 eeee c1f2 eef0 c1ef c1f0 c1f1 ec47     ..............G.
   1ed08:	0000 0000 c2f5 f16e f16c f16d c2f3 c2f6     ......n.l.m.....
   1ed18:	c2f4 0000 0000 0000 f377 f378 c3f6 0000     ........w.x.....
   1ed28:	f545 f547 f546 c4c4 c550 f66d f66c f66b     E.G.F...P.m.l.k.
	...
   1eda4:	aafa 0000 c9aa 0000 ca58 a6e9 ca56 ca59     ........X...V.Y.
   1edb4:	ca57 0000 0000 0000 cbae 0000 a8c1 0000     W...............
   1edc4:	a8c2 cbb0 a8bf cbaf cbad a8c0 a8be 0000     ................
	...
   1eddc:	0000 cdd8 cddb aafd cdda cdd9 0000 aafc     ................
   1edec:	aafb 0000 ab40 cddc aafe 0000 0000 0000     ....@...........
   1edfc:	0000 0000 d0c6 adae adaf adb0 d0c7 d0c3     ................
   1ee0c:	adad d0c4 0000 d0c5 d0c2 0000 0000 0000     ................
   1ee1c:	b0a4 0000 0000 b0a1 d445 b0a2 b0a5 d446     ........E.....F.
   1ee2c:	0000 b07e b07c b07d b0a3 0000 0000 0000     ..~.|.}.........
   1ee3c:	0000 0000 b3ad d849 b3b5 d848 0000 d84b     ......I...H...K.
   1ee4c:	b3b1 d84a b6ab b3af b3b2 b3ae b3b3 b3b4     ..J.............
   1ee5c:	b3b0 0000 0000 0000 d847 b6a7 dc7d 0000     ........G...}...
   1ee6c:	dca3 0000 0000 dca2 b6ac b6a8 b6a9 dc7c     ..............|.
   1ee7c:	dc7e dca1 b6a4 b6a6 0000 b6aa b6a5 0000     ~...............
   1ee8c:	0000 e0d3 e0d1 e0d2 b96a b96b 0000 e0d4     ........j.k.....
   1ee9c:	b969 bbd8 0000 bbda bbd9 0000 e4bb 0000     i...............
   1eeac:	0000 e4bc e8ab 0000 e8aa 0000 0000 c047     ..............G.
   1eebc:	c048 ec4f c049 0000 eef6 0000 eef4 0000     H.O.I...........
   1eecc:	eef5 c1f4 0000 f16f c3f7 0000 0000 0000     ......o.........
   1eedc:	c1f5 ab41 0000 b0a6 d447 0000 0000 d84c     ..A.....G.....L.
   1eeec:	b3b6 b6ad dca4 dca6 b6af b6ae b6b0 b6b1     ................
   1eefc:	dca5 b96e b96f b96d bbdb b96c e0d5 0000     ..n.o.m...l.....
   1ef0c:	0000 0000 bbdc e8ac ec50 c04a c1f6 f170     ........P.J...p.
   1ef1c:	f174 c2f9 f171 c2fa c2f8 f175 c2fb f173     t...q.....u...s.
   1ef2c:	0000 f379 c2f7 c3f8 0000 f8cd 0000 0000     ..y.............
   1ef3c:	ab42 b3b8 b3b7 0000 0000 0000 0000 b6b2     B...............
   1ef4c:	dca8 dca7 b6b3 0000 0000 e0d9 b973 b970     ............s.p.
   1ef5c:	e0d8 b972 e0d6 b971 0000 e0d7 0000 e4bd     ..r...q.........
   1ef6c:	bbdd 0000 e8af 0000 be5d e8ad be5e be5f     ........]...^._.
   1ef7c:	e8ae be60 0000 ec51 0000 c04e c04b c050     ..`...Q...N.K.P.
   1ef8c:	ec53 c04c ec52 c04f 0000 0000 c04d 0000     S.L.R.O.....M...
   1ef9c:	eef9 eefb 0000 0000 c1f7 eefa c1f8 eef8     ................
   1efac:	eef7 0000 f177 f176 c2fc f178 f37e c3fa     ....w.v...x.~...
   1efbc:	f37d f37a c3f9 f37b f37c 0000 f548 f549     }.z...{.|...H.I.
   1efcc:	c4c5 0000 c553 0000 0000 f66e 0000 0000     ....S.....n.....
   1efdc:	c551 c552 f66f 0000 0000 c5b4 c5b5 f771     Q.R.o.........q.
   1efec:	0000 0000 c645 f8cf c647 0000 f8ce f8d0     ....E...G.......
   1effc:	c646 f957 0000 f9ad 0000 0000 0000 0000     F.W.............
   1f00c:	0000 0000 ab43 0000 0000 0000 b974 0000     ....C.......t...
   1f01c:	e4be 0000 e8b0 c051 c052 0000 ab44 0000     ......Q.R...D...
   1f02c:	be61 c3fb adb1 0000 0000 0000 c053 0000     a...........S...
   1f03c:	c5e2 adb2 d84d 0000 dca9 0000 dcab 0000     ....M...........
   1f04c:	dcaa 0000 e0dd e0da b975 0000 b976 e0db     ........u...v...
   1f05c:	e0dc 0000 e4c0 e4c5 bbde e4bf e4c1 e4c8     ................
   1f06c:	e4c3 e4c7 e4c4 e4c2 e4c6 bbdf 0000 0000     ................
   1f07c:	e8b3 0000 e8b1 be63 0000 be62 e8b2 be64     ......c...b...d.
	...
   1f094:	ec56 0000 0000 ec55 c054 ec54 eefc 0000     V.....U.T.T.....
   1f0a4:	eefe ef41 ef40 0000 c1f9 eefd f1a1 c2fd     ..A.@...........
   1f0b4:	f17d f1a2 c2fe 0000 f17b 0000 f17e f17c     }.......{...~.|.
   1f0c4:	f179 c340 f17a 0000 0000 0000 0000 f3a1     y.@.z...........
   1f0d4:	0000 0000 f3a3 f3a2 0000 f54a 0000 f54b     ..........J...K.
   1f0e4:	0000 0000 0000 f670 0000 c5b7 0000 c5b6     ......p.........
   1f0f4:	f84f f850 c648 f8d1 0000 c669 0000 adb3     O.P.H.....i.....
   1f104:	b6b4 e4ca e4c9 e8b5 e8b4 0000 0000 c1fa     ................
   1f114:	ef43 ef42 f1a5 f1a3 f1a6 f1a4 0000 0000     C.B.............
   1f124:	c3fc f3a4 f3a5 f3a6 0000 f671 0000 f772     ..........q...r.
   1f134:	0000 f8d2 0000 0000 0000 0000 0000 0000     ................
   1f144:	0000 adb4 0000 0000 ec57 ef44 0000 adb5     ........W.D.....
   1f154:	0000 0000 bbe0 0000 ec58 c341 f1a7 c3fd     ........X.A.....
   1f164:	0000 f54c f54d c554 f851 adb6 b3bb b3bc     ..L.M.T.Q.......
   1f174:	d84e b6b5 b6b6 dcac b6b7 0000 b97a 0000     N...........z...
   1f184:	b97c e0df e0e0 e0de b977 b978 b97b b979     |.......w.x.{.y.
   1f194:	0000 0000 e4cb bbe1 bbe2 0000 0000 e8bc     ................
   1f1a4:	be67 e8b7 e8b6 0000 e8bb be65 0000 0000     g.........e.....
   1f1b4:	c05b 0000 e8b8 e8bd e8ba e8b9 0000 be66     [.............f.
   1f1c4:	0000 c059 0000 ec5a c055 0000 ec5b 0000     ..Y...Z.U...[...
   1f1d4:	0000 ec59 0000 c058 c056 c05a 0000 c057     ..Y...X.V.Z...W.
	...
   1f1ec:	0000 ef45 0000 ef4a ef46 ef49 c1fb 0000     ..E...J.F.I.....
   1f1fc:	edd4 ef48 ef47 0000 c344 c342 c345 c343     ..H.G...D.B.E.C.
   1f20c:	f1a8 f1a9 f1aa c346 0000 0000 0000 f3aa     ......F.........
   1f21c:	c440 f3a8 0000 c441 f3a7 f3a9 c3fe f551     @.....A.......Q.
   1f22c:	f54e 0000 f54f f550 f672 c556 0000 c555     N...O.P.r.V...U.
   1f23c:	0000 f774 f773 c5b8 0000 0000 0000 c5e3     ..t.s...........
   1f24c:	c649 c660 f958 f9ae f9af 0000 0000 0000     I.`.X...........
	...
   1f2bc:	adb7 dcad 0000 0000 e0e1 e4cc e4cd bbe3     ................
   1f2cc:	0000 bbe4 e8be be68 0000 0000 c1fc 0000     ......h.........
   1f2dc:	f1ab 0000 c347 f3ad c442 f3ac f3ae f3ab     ....G...B.......
   1f2ec:	f675 f552 f553 0000 c4c6 0000 f674 0000     u.R.S.......t...
   1f2fc:	0000 f673 0000 f775 f9b0 0000 0000 0000     ..s...u.........
	...
   1f320:	0000 adb8 0000 0000 0000 adb9 0000 0000     ................
   1f330:	b0a7 d448 0000 d84f 0000 b6b8 0000 b6bb     ..H...O.........
   1f340:	b6b9 dcae 0000 b6bd 0000 b6ba 0000 0000     ................
   1f350:	b6bc 0000 b97e 0000 e0e2 0000 0000 e0e3     ....~...........
   1f360:	e8c0 0000 b97d b9a1 b9a2 0000 e4cf 0000     ....}...........
   1f370:	e4ce bbe5 0000 bbe6 0000 e4d0 e8bf bbe8     ................
   1f380:	be69 0000 bbe7 0000 0000 0000 c05c e8c1     i...........\...
   1f390:	be6b be6a e8c2 e8c5 e8c3 e8c4 be6c 0000     k.j.........l...
   1f3a0:	c061 c05f 0000 0000 c05e ec5d 0000 c060     a._.....^.]...`.
   1f3b0:	0000 0000 ec5c ef4b 0000 ec5e c05d ec5f     ....\.K...^.]._.
   1f3c0:	ef4e ef4c ef4d ef52 c34b ef51 ef54 ef53     N.L.M.R.K.Q.T.S.
   1f3d0:	ef50 ef4f 0000 c1fd 0000 0000 0000 0000     P.O.............
   1f3e0:	f1ae 0000 f1ad c34a c348 c349 0000 f1ac     ......J.H.I.....
   1f3f0:	0000 f3b1 0000 c443 0000 f3b0 f3af c444     ......C.......D.
   1f400:	0000 f558 f557 0000 f555 0000 f554 c4c8     ..X.W...U...T...
   1f410:	c4c7 f559 f776 c5b9 f677 c557 f676 f556     ..Y.v...w.W.v.V.
   1f420:	0000 f777 c5e4 0000 c661 f959 0000 f9b1     ..w.....a.Y.....
	...
   1f498:	adba d850 ef55 adbb 0000 0000 e4d2 e4d1     ..P.U...........
   1f4a8:	ec60 0000 0000 ef57 0000 ef56 0000 c34c     `.....W...V...L.
   1f4b8:	f3b2 f3b3 c4c9 0000 0000 f9b2 b0a8 b6bf     ................
   1f4c8:	b6be e0e4 e0e6 b9a4 e0e5 b9a3 b9a5 e0e7     ................
   1f4d8:	0000 0000 0000 e4d4 e4d6 e4d5 0000 e4d8     ................
   1f4e8:	0000 0000 0000 bbe9 e4d7 e4d3 0000 0000     ................
   1f4f8:	0000 e4d9 0000 e8cc 0000 e8cf e8d1 e8c7     ................
   1f508:	e8cb e8c8 be6e be71 be73 e8c9 e8ca be72     ....n.q.s.....r.
   1f518:	e8cd e8d0 e8ce be74 0000 be70 e8c6 be6d     ......t...p...m.
   1f528:	0000 be6f 0000 0000 c063 ec66 ec64 ec63     ..o.....c.f.d.c.
   1f538:	0000 ec69 0000 ec68 ec67 0000 ec62 c062     ..i...h.g...b.b.
   1f548:	ec61 0000 ec65 c064 0000 0000 ef5a 0000     a...e.d.....Z...
   1f558:	ef5e ef5b ef5d ef5c ef59 ef5f ef62 ef60     ^.[.].\.Y._.b.`.
   1f568:	ef61 c240 0000 c1fe ef58 ef63 f1b3 f1b6     a.@.....X.c.....
   1f578:	f1b8 f1b7 0000 f1b1 f1b5 f1b0 0000 f1b2     ................
   1f588:	c34d f1af 0000 f1b4 0000 0000 f3c0 f3b5     M...............
   1f598:	c445 0000 0000 c446 f3b4 f3b9 f3bf f3b7     E.....F.........
   1f5a8:	f3be 0000 f3bb 0000 f3ba f3bd f3b8 f3b6     ................
   1f5b8:	0000 f3bc 0000 f560 f55e c4ca f55d f563     ......`.^...].c.
   1f5c8:	f561 0000 c4cb f55c f55a 0000 f55b c4cd     a.....\.Z...[...
   1f5d8:	f55f c4cc f562 f678 f67e 0000 0000 f679     _...b.x.~.....y.
   1f5e8:	c55b f6a1 c55a f67d f67c c559 f67b c558     [...Z.}.|.Y.{.X.
   1f5f8:	f67a 0000 f77d f7a1 f77e 0000 f77b c5bb     z...}...~...{...
   1f608:	f778 f77c f7a3 0000 f7a2 f779 f77a c5ba     x.|.......y.z...
   1f618:	f852 c5e7 0000 f853 c5e5 c5e6 0000 0000     R.....S.........
   1f628:	f8d3 c64a f976 0000 c66a 0000 f9b3 c66b     ..J.v...j.....k.
   1f638:	f9b4 f9b5 f9c3 f9c2 c67a f9cd 0000 0000     ........z.......
	...
   1f6bc:	b0a9 0000 0000 e0e9 0000 e0e8 0000 bbea     ................
   1f6cc:	bbeb e4da 0000 e8d2 ec6c 0000 0000 be75     ........l.....u.
   1f6dc:	c065 ec6a 0000 ec6d c066 0000 ef64 ec6b     e.j...m.f...d.k.
   1f6ec:	f1b9 c34e f3c1 0000 0000 0000 f566 f564     ..N.........f.d.
   1f6fc:	0000 0000 f565 0000 0000 f6a2 0000 c55c     ....e.........\.
   1f70c:	f7a4 c5ea c5bc c5e8 c5e9 f8d4 c662 0000     ............b...
   1f71c:	b0aa 0000 0000 0000 f1ba 0000 0000 d449     ..............I.
   1f72c:	0000 b9a6 0000 e4db 0000 0000 bbec e4dc     ................
   1f73c:	0000 0000 0000 e8d4 e8d3 c068 be76 be77     ..........h.v.w.
   1f74c:	0000 e8d7 e8d6 e8d5 0000 0000 ec6e ec71     ............n.q.
   1f75c:	0000 ec70 ec6f c067 ef68 ef66 ef65 0000     ..p.o.g.h.f.e...
   1f76c:	0000 ef67 0000 c34f f1bc f1bd c350 0000     ..g...O.....P...
   1f77c:	f1bb 0000 f3c3 f3c2 f3c5 c447 f3c4 0000     ..........G.....
   1f78c:	f567 f569 f568 0000 0000 f6a3 f6a6 f6a4     g.i.h...........
   1f79c:	f6a5 f7a5 c5bd 0000 0000 0000 f854 f855     ............T.U.
   1f7ac:	f856 0000 c64b c663 f9b6 b0ab 0000 be78     V...K.c.......x.
   1f7bc:	c069 f1be 0000 f7a6 0000 0000 f9c4 d44a     i.............J.
   1f7cc:	0000 c67b b0ac ec72 0000 f1bf 0000 f3c6     ..{...r.........
   1f7dc:	0000 0000 f6a7 f7a7 b0ad 0000 e4dd e4de     ................
   1f7ec:	0000 bbed bbee e8d9 be7a be79 e8d8 0000     ........z.y.....
   1f7fc:	ef69 0000 f1c0 f1c2 f1c1 c353 c352 c351     i.........S.R.Q.
   1f80c:	0000 c55e f6a8 0000 c55d f7a9 f7a8 0000     ..^.....].......
   1f81c:	c64c f8d5 b3bd e0ea 0000 0000 0000 e4e1     L...............
   1f82c:	e4df e4e0 0000 0000 e8e2 0000 e8dd e8da     ................
   1f83c:	e8e1 0000 0000 0000 e8e3 0000 0000 be7c     ..............|.
   1f84c:	e8e0 e8dc 0000 0000 e8db e8df e8de be7b     ..............{.
   1f85c:	0000 0000 ec7d ec78 ec76 eca1 ec77 0000     ....}.x.v...w...
   1f86c:	ec73 0000 ec79 0000 0000 ec74 ef72 ec75     s...y.....t.r.u.
   1f87c:	eca2 0000 0000 0000 0000 0000 0000 0000     ................
   1f88c:	ec7c c06a ec7b ec7a 0000 ec7e 0000 0000     |.j.{.z...~.....
   1f89c:	0000 0000 ef6a ef6d 0000 0000 ef6c 0000     ....j.m.....l...
   1f8ac:	ef74 ef6f ef73 0000 ef71 ef70 ef6e 0000     t.o.s...q.p.n...
   1f8bc:	ef6b 0000 c243 c242 0000 c244 c241 ef75     k...C.B...D.A.u.
	...
   1f8d4:	0000 f1c8 f1cb 0000 f1c9 f1cd 0000 0000     ................
   1f8e4:	0000 f1ce 0000 f1c6 c358 f1c7 0000 f1c5     ........X.......
   1f8f4:	f1cc 0000 f1c4 f1c3 c357 c355 c354 0000     ........W.U.T...
	...
   1f910:	0000 f1ca f3cf f3d5 c44a f3d0 0000 f3d3     ........J.......
   1f920:	f3d7 c44b f3d2 0000 f3ca 0000 f3c9 f3d6     ..K.............
   1f930:	f3cd 0000 f3cb f3d4 f3cc c449 c448 0000     ..........I.H...
   1f940:	f3c7 f3c8 f3d1 0000 0000 0000 f3ce 0000     ................
	...
   1f958:	0000 f56c f56f 0000 0000 0000 0000 c356     ..l.o.........V.
	...
   1f974:	0000 f56d f573 f571 f56b f576 0000 f56a     ..m.s.q.k.v...j.
   1f984:	0000 c4cf f572 0000 0000 0000 f56e c4ce     ....r.......n...
   1f994:	f575 0000 0000 f574 0000 0000 0000 0000     u.....t.........
   1f9a4:	f6ab f6aa 0000 0000 0000 f6b1 0000 f6ad     ................
   1f9b4:	f6b0 c560 0000 0000 f6ae f6af 0000 f6a9     ..`.............
   1f9c4:	f6ac c55f 0000 0000 0000 c5bf f7b4 f7af     .._.............
   1f9d4:	f7b3 0000 f7b6 f7b2 0000 f7ae 0000 c5c1     ................
   1f9e4:	f7b1 f7b5 c5c0 f7ac f570 f7b0 0000 0000     ........p.......
   1f9f4:	f7ad 0000 f7aa 0000 f7ab c5be f85a f85c     ............Z.\.
   1fa04:	f85f f85b f860 0000 f859 0000 f857 0000     _.[.`...Y...W...
   1fa14:	c5eb f85d c5ed c5ec f858 f85e 0000 0000     ..].....X.^.....
   1fa24:	0000 0000 f8da c64d f8db 0000 f8d9 f8d6     ......M.........
   1fa34:	0000 0000 f8d8 f8d7 f95a 0000 0000 0000     ........Z.......
   1fa44:	0000 f95c f95b 0000 0000 f979 0000 f978     ..\.[.....y...x.
   1fa54:	f977 f97a 0000 c673 c674 f9ca f9ce 0000     w.z...s.t.......
	...
   1fb34:	0000 b3be dcaf e0ed 0000 b9a7 e0eb 0000     ................
   1fb44:	0000 e0ec 0000 0000 0000 e4e2 e4e3 bbf1     ................
   1fb54:	bbef e4e4 bbf0 e8e8 0000 e8eb e8e5 e8ec     ................
   1fb64:	e8e4 e8e6 0000 e8e7 e8ea 0000 0000 bea1     ................
   1fb74:	e8ef e8ee be7d e8e9 e8ed be7e 0000 0000     ....}.....~.....
	...
   1fb8c:	ecac 0000 c06f 0000 eca7 c06b 0000 eca4     ....o.....k.....
   1fb9c:	ecaa ecad 0000 c070 0000 eca9 eca6 ecae     ......p.........
   1fbac:	eca5 0000 ecab c06c 0000 eca3 c06d 0000     ......l.....m...
   1fbbc:	c06e eca8 0000 0000 0000 efa9 ef7a ef7b     n...........z.{.
   1fbcc:	ef7e ef7c 0000 ef76 0000 0000 ef79 efa5     ~.|...v.....y...
   1fbdc:	ef7d 0000 0000 c245 0000 efa7 efa4 c246     }.....E.......F.
   1fbec:	efa6 ef77 efa2 efa3 0000 efa1 0000 0000     ..w.............
   1fbfc:	0000 0000 f1d2 f1d4 f1d7 0000 0000 f1d1     ................
   1fc0c:	0000 c359 f1d9 f1d0 f1da 0000 f1d6 f1d8     ..Y.............
   1fc1c:	f1dc f1d5 f1dd f1d3 f1cf c35a 0000 f1db     ..........Z.....
   1fc2c:	c35b c44d 0000 0000 0000 0000 0000 ef78     [.M...........x.
   1fc3c:	f3f1 f3e8 c44f f3e4 c450 0000 0000 f3ed     ....O...P.......
   1fc4c:	f3e7 f3dd c44e f3ea f3e5 f3e6 0000 f3d8     ....N...........
   1fc5c:	f3df f3ee 0000 f3eb 0000 f3e3 0000 f3ef     ................
   1fc6c:	f3de f3d9 f3ec 0000 f3db f3e9 f3e0 f3f0     ................
   1fc7c:	f3dc c44c f3da f3e1 f3e2 0000 0000 0000     ..L.............
   1fc8c:	f57d 0000 f57b 0000 f5a2 0000 f5ae f5a5     }...{...........
   1fc9c:	f57c f578 f5a7 f57e f5a3 f57a f5aa f577     |.x...~...z...w.
   1fcac:	f5a1 f5a6 f5a8 f5ab f579 0000 f5af f5b0     ........y.......
   1fcbc:	f5a9 f5ad f5a4 0000 f6c1 f6c4 0000 c561     ..............a.
   1fccc:	0000 f6c3 f6c8 f6c6 c562 f6bd f6b3 f6b2     ........b.......
   1fcdc:	c564 f6bf f6c0 f6bc f6b4 0000 f6b9 f5ac     d...............
   1fcec:	0000 f6b5 c563 f6bb 0000 f6ba 0000 f6b6     ....c...........
   1fcfc:	f6c2 0000 f6b7 f7bb f6c5 f6c7 f6be f6b8     ................
   1fd0c:	f7bc f7be f7b8 c5c2 0000 f7c5 f7c3 c5c3     ................
   1fd1c:	f7c2 f7c1 f7ba f7b7 f7bd f7c6 f7b9 f7bf     ................
   1fd2c:	0000 f869 f86e f864 f867 c5ee f86b 0000     ..i.n.d.g...k...
   1fd3c:	f872 f7c0 0000 f865 f86f f873 f86a f863     r.....e.o.s.j.c.
   1fd4c:	f86d 0000 f86c f871 f870 f7c4 f868 f862     m...l.q.p...h.b.
   1fd5c:	f866 c64e c64f f861 0000 f8e6 f8dd f8e5     f.N.O.a.........
   1fd6c:	f8e2 f8e3 f8dc f8df f8e7 f8e1 f8e0 f8de     ................
   1fd7c:	0000 f8e4 0000 f95d 0000 f95e 0000 f960     ......]...^...`.
   1fd8c:	f95f f962 f961 f97c f97b f9b7 0000 f9b8     _.b.a.|.{.......
   1fd9c:	0000 f9c5 c678 c67c 0000 f9cf c67d 0000     ....x.|.....}...
	...
   1fe54:	0000 b3bf 0000 0000 0000 c4d0 f6c9 0000     ................
   1fe64:	c650 c651 0000 b3c0 e0ee 0000 b9a8 e8f0     P.Q.............
   1fe74:	0000 0000 ecb0 ecb1 ecaf efab efaa c247     ..............G.
   1fe84:	f1df efac f1de 0000 0000 f3f3 c451 c453     ............Q.S.
   1fe94:	f3f2 0000 0000 c452 0000 f5b1 f5b3 f5b2     ......R.........
   1fea4:	f6ca c565 0000 c5ef f8e8 f963 0000 0000     ..e.......c.....
   1feb4:	f9d2 b3c1 0000 e4e5 0000 bea2 0000 0000     ................
   1fec4:	0000 ecb3 ecb2 0000 efad 0000 0000 0000     ................
   1fed4:	c454 c4d1 f7c7 f9cb 0000 0000 0000 b3c2     T...............
   1fee4:	bbf2 0000 bea3 0000 f3f4 0000 f874 b6c0     ............t...
	...
   1fefc:	efae 0000 0000 0000 c664 b6c1 bea4 c248     ........d.....H.
   1ff0c:	f875 b6c2 0000 e8f1 c072 ecb4 ecb5 0000     u.......r.......
   1ff1c:	c071 0000 efaf c24c c24a c24b c249 f1e0     q.....L.J.K.I...
   1ff2c:	c35c 0000 0000 0000 f5b5 f5b4 f5b7 f5b6     \...............
   1ff3c:	c4d2 0000 0000 f6cb 0000 f6cd f6cc c566     ..............f.
   1ff4c:	f7c8 0000 f876 f877 c5f0 f964 f97d c675     ....v.w...d.}.u.
   1ff5c:	0000 dcb0 ecb6 efb0 f3f5 e0ef 0000 efb1     ................
   1ff6c:	f1e2 f1e1 0000 0000 0000 0000 f878 c652     ............x.R.
   1ff7c:	0000 f965 f97e 0000 0000 0000 b9a9 e8f2     ..e.~...........
   1ff8c:	e8f3 0000 ecb7 b9aa 0000 c35d f1e3 0000     ..........].....
   1ff9c:	f6cf c567 f6d0 f6ce f879 0000 f8e9 0000     ..g.....y.......
   1ffac:	b9ab 0000 efb4 efb3 efb2 f1e4 0000 0000     ................
   1ffbc:	f1e8 f1e7 f1e6 f1e5 c35e f3f6 f5b9 c4d3     ........^.......
   1ffcc:	f5b8 f6d1 f7cb f7ca c5c4 f7c9 f87c f87b     ............|.{.
   1ffdc:	f87a 0000 0000 bbf3 0000 ecb8 c24d 0000     z...........M...
   1ffec:	f3f7 f3f8 f7cc f87d 0000 0000 f8ea f966     ......}.......f.
   1fffc:	f9b9 f9d4 bbf4 c24e f1e9 f3f9 f6d2 f87e     ......N.......~.
   2000c:	0000 0000 bea6 0000 efb5 f1ea f3fa f3fb     ................
   2001c:	f3fc f5be 0000 f5ba c568 f5bd f5bc c4d4     ........h.......
   2002c:	f5bb c4d6 0000 c4d5 f6d4 f6d3 c569 c56a     ............i.j.
   2003c:	0000 0000 c5c6 f7cd c5c5 0000 f8a3 f8a4     ................
   2004c:	f8a2 f8a1 c654 0000 f8eb f8ec f8ed c653     ....T.........S.
   2005c:	f967 f96a f969 f968 0000 0000 f9d3 0000     g.j.i.h.........
	...
   20084:	0000 c073 0000 0000 c365 f5bf f6d5 0000     ..s.....e.......
   20094:	c5c7 f7ce 0000 0000 f9d5 0000 0000 0000     ................
   200a4:	c074 0000 0000 0000 efb6 0000 f7cf 0000     t...............
   200b4:	f9a1 0000 0000 0000 0000 0000 0000 0000     ................
	...
   20184:	c94a ddfc 0000 0000 0000 0000 0000 0000     J...............
	...
   203cc:	a14a a157 0000 a159 a15b a15f a160 a163     J.W...Y.[._.`.c.
   203dc:	a164 a167 a168 a16b a16c a16f a170 a173     d.g.h.k.l.o.p.s.
   203ec:	a174 a177 a178 a17b a17c 0000 0000 0000     t.w.x.{.|.......
   203fc:	0000 a1c6 a1c7 a1ca a1cb a1c8 a1c9 a15c     ..............\.
   2040c:	a14d a14e a14f 0000 a151 a152 a153 a154     M.N.O...Q.R.S.T.
   2041c:	0000 a17d a17e a1a1 a1a2 a1a3 a1a4 a1cc     ..}.~...........
   2042c:	a1cd a1ce a1de a1df a1e0 a1e1 a1e2 0000     ................
   2043c:	a242 a24c a24d a24e 0000 0000 0000 0000     B.L.M.N.........
	...
   2056c:	0000 a149 0000 a1ad a243 a248 a1ae 0000     ..I.....C.H.....
   2057c:	a15d a15e a1af a1cf a141 a1d0 a144 a1fe     ].^.....A...D...
   2058c:	a2af a2b0 a2b1 a2b2 a2b3 a2b4 a2b5 a2b6     ................
   2059c:	a2b7 a2b8 a147 a146 a1d5 a1d7 a1d6 a148     ....G.F.......H.
   205ac:	a249 a2cf a2d0 a2d1 a2d2 a2d3 a2d4 a2d5     I...............
   205bc:	a2d6 a2d7 a2d8 a2d9 a2da a2db a2dc a2dd     ................
   205cc:	a2de a2df a2e0 a2e1 a2e2 a2e3 a2e4 a2e5     ................
   205dc:	a2e6 a2e7 a2e8 0000 a240 0000 0000 a1c4     ........@.......
   205ec:	0000 a2e9 a2ea a2eb a2ec a2ed a2ee a2ef     ................
   205fc:	a2f0 a2f1 a2f2 a2f3 a2f4 a2f5 a2f6 a2f7     ................
   2060c:	a2f8 a2f9 a2fa a2fb a2fc a2fd a2fe a340     ..............@.
   2061c:	a341 a342 a343 a161 a155 a162 a1e3 0000     A.B.C.a.U.b.....
	...
   2072c:	a246 a247 0000 a1c3 0000 a244 0000 0000     F.G.......D.....
	...
   20770:	705c 0000 7050 0000 7064 0000 7070 0000     \p..Pp..dp..pp..
   20780:	705c 0000                                   \p..

00020784 <LfnOfs>:
   20784:	0301 0705 0e09 1210 1614 1c18 001e 0000     ................

00020794 <defopt.2>:
   20794:	0007 0000 0000 0000 0000 0000 0000 0000     ................

000207a4 <cst32.1>:
   207a4:	0001 0002 0004 0008 0010 0020 0000 0000     .......... .....

000207b4 <cst.0>:
   207b4:	0001 0004 0010 0040 0100 0200 0000 0000     ......@.........
   207c4:	0201 0000 0000 0000 0000 0000 1000 0000     ................

000207d4 <log_level_strings>:
   207d4:	21d8 0002 21e0 0002 21e8 0002 21f0 0002     .!...!...!...!..
   207e4:	21f8 0002                                   .!..

000207e8 <log_level_colors>:
   207e8:	21b0 0002 21b8 0002 21c0 0002 21c8 0002     .!...!...!...!..
   207f8:	21d0 0002 c858 0000 c894 0000 c8e0 0000     .!..X...........
   20808:	c8a8 0000 3130 3332 3534 3736 3938 4241     ....0123456789AB
   20818:	4443 4645 0000 0000 3130 3332 3534 3736     CDEF....01234567
   20828:	3938 6261 6463 6665 0000 0000 6e28 6c75     89abcdef....(nul
   20838:	296c 0000 575b 7261 5d6e 5320 6174 7272     l)..[Warn] Starr
   20848:	5379 796b 3243 6420 656f 2073 6f6e 2074     ySkyC2 does not 
   20858:	6d69 6c70 6d65 6e65 2074 4346 4746 000a     implement FCFG..
   20868:	694c 7262 7261 2f79 7067 6f69 632e 0000     Library/gpio.c..
   20878:	575b 7261 5d6e 5320 6174 7272 5379 796b     [Warn] StarrySky
   20888:	3243 6420 656f 2073 6f6e 2074 6d69 6c70     C2 does not impl
   20898:	6d65 6e65 2074 4950 4d4e 5855 000a 0000     ement PINMUX....
   208a8:	2049 6977 6c6c 7020 6972 746e 203a 7325     I will print: %s
   208b8:	0a0d 0000 654e 6576 2072 6552 6361 6968     ....Never Reachi
   208c8:	676e 6820 7265 2e65 0a0d 0000 6548 6c6c     ng here.....Hell
   208d8:	2c6f 5720 726f 646c 0000 0000 6c66 7361     o, World....flas
   208e8:	0068 0000 2528 2973 6820 7361 6120 7373     h...(%s) has ass
   208f8:	7265 2074 6166 6c69 6465 6120 2074 7325     ert failed at %s
   20908:	002e 0000 7953 7473 6d65 732f 7566 2f64     ....System/sfud/
   20918:	7273 2f63 6673 6475 632e 0000 7473 7461     src/sfud.c..stat
   20928:	7375 0000 7245 6f72 3a72 4620 616c 6873     us..Error: Flash
   20938:	7720 6961 2074 7562 7973 6820 7361 6120      wait busy has a
   20948:	206e 7265 6f72 2e72 0000 0000 6164 6174     n error.....data
   20958:	0000 0000 6c66 7361 2d68 693e 696e 5f74     ....flash->init_
   20968:	6b6f 0000 7245 6f72 3a72 4620 616c 6873     ok..Error: Flash
   20978:	6120 6464 6572 7373 6920 2073 756f 2074      address is out 
   20988:	666f 6220 756f 646e 002e 0000 7245 6f72     of bound....Erro
   20998:	3a72 4320 6e61 7427 6520 616e 6c62 2065     r: Can't enable 
   209a8:	7277 7469 2065 7473 7461 7375 002e 0000     write status....
   209b8:	7245 6f72 3a72 4320 6e61 7427 6420 7369     Error: Can't dis
   209c8:	6261 656c 7720 6972 6574 7320 6174 7574     able write statu
   209d8:	2e73 0000 7245 6f72 3a72 4620 616c 6873     s...Error: Flash
   209e8:	6320 6968 2070 7265 7361 2065 5053 2049      chip erase SPI 
   209f8:	6f63 6d6d 6e75 6369 7461 2065 7265 6f72     communicate erro
   20a08:	2e72 0000 7245 6f72 3a72 4620 616c 6873     r...Error: Flash
   20a18:	6520 6172 6573 5320 4950 6320 6d6f 756d      erase SPI commu
   20a28:	696e 6163 6574 6520 7272 726f 002e 0000     nicate error....
   20a38:	7245 6f72 3a72 4620 616c 6873 7720 6972     Error: Flash wri
   20a48:	6574 5320 4950 6320 6d6f 756d 696e 6163     te SPI communica
   20a58:	6574 6520 7272 726f 002e 0000 7245 6f72     te error....Erro
   20a68:	3a72 5720 6972 6574 735f 6174 7574 2073     r: Write_status 
   20a78:	6572 6967 7473 7265 6620 6961 656c 2e64     register failed.
   20a88:	0000 0000 6c66 7361 2d68 733e 6970 772e     ....flash->spi.w
   20a98:	0072 0000 6854 2065 6c66 7361 2068 6564     r...The flash de
   20aa8:	6976 6563 6d20 6e61 6675 6361 7574 6572     vice manufacture
   20ab8:	2072 4449 6920 2073 7830 3025 5832 202c     r ID is 0x%02X, 
   20ac8:	656d 6f6d 7972 7420 7079 2065 4449 6920     memory type ID i
   20ad8:	2073 7830 3025 5832 202c 6163 6170 6963     s 0x%02X, capaci
   20ae8:	7974 4920 2044 7369 3020 2578 3230 2e58     ty ID is 0x%02X.
   20af8:	0000 0000 7245 6f72 3a72 5220 6165 2064     ....Error: Read 
   20b08:	6c66 7361 2068 6564 6976 6563 4a20 4445     flash device JED
   20b18:	4345 4920 2044 7265 6f72 2e72 0000 0000     EC ID error.....
   20b28:	6157 6e72 6e69 3a67 5420 6968 2073 6c66     Warning: This fl
   20b38:	7361 2068 6564 6976 6563 6920 2073 6f6e     ash device is no
   20b48:	2074 6f66 6e75 2064 726f 6e20 746f 7320     t found or not s
   20b58:	7075 6f70 7472 002e 6946 646e 6120 2520     upport..Find a %
   20b68:	2073 7325 6620 616c 6873 6320 6968 2e70     s %s flash chip.
   20b78:	5320 7a69 2065 7369 2520 646c 6220 7479      Size is %ld byt
   20b88:	7365 002e 6946 646e 6120 2520 2073 6c66     es..Find a %s fl
   20b98:	7361 2068 6863 7069 202e 6953 657a 6920     ash chip. Size i
   20ba8:	2073 6c25 2064 7962 6574 2e73 0000 0000     s %ld bytes.....
   20bb8:	6946 646e 6120 6620 616c 6873 6320 6968     Find a flash chi
   20bc8:	2e70 5320 7a69 2065 7369 2520 646c 6220     p. Size is %ld b
   20bd8:	7479 7365 002e 0000 7245 6f72 3a72 4620     ytes....Error: F
   20be8:	616c 6873 6420 7665 6369 2065 6572 6573     lash device rese
   20bf8:	2074 6166 6c69 6465 002e 0000 6c46 7361     t failed....Flas
   20c08:	2068 6564 6976 6563 7220 7365 7465 7320     h device reset s
   20c18:	6375 6563 7373 002e 6e45 6574 0072 0000     uccess..Enter...
   20c28:	7325 3420 422d 7479 2065 6461 7264 7365     %s 4-Byte addres
   20c38:	6973 676e 6d20 646f 2065 7573 6363 7365     sing mode succes
   20c48:	2e73 0000 7245 6f72 3a72 2520 2073 2d34     s...Error: %s 4-
   20c58:	7942 6574 6120 6464 6572 7373 6e69 2067     Byte addressing 
   20c68:	6f6d 6564 6620 6961 656c 2e64 0000 0000     mode failed.....
   20c78:	7245 6f72 3a72 2520 2073 6c66 7361 2068     Error: %s flash 
   20c88:	6564 6976 6563 6920 2073 6e69 7469 6169     device is initia
   20c98:	696c 657a 6620 6961 2e6c 0000 7325 6620     lize fail...%s f
   20ca8:	616c 6873 6420 7665 6369 2065 7369 6920     lash device is i
   20cb8:	696e 6974 6c61 7a69 2065 7573 6363 7365     nitialize succes
   20cc8:	2e73 0000 2e31 2e31 0030 0000 7453 7261     s...1.1.0...Star
   20cd8:	2074 6e69 7469 6169 696c 657a 5320 7265     t initialize Ser
   20ce8:	6169 206c 6c46 7361 2068 6e55 7669 7265     ial Flash Univer
   20cf8:	6173 206c 7244 7669 7265 5328 5546 2944     sal Driver(SFUD)
   20d08:	5620 7325 002e 0000 6f59 2075 6163 206e      V%s....You can 
   20d18:	6567 2074 6874 2065 616c 6574 7473 7620     get the latest v
   20d28:	7265 6973 6e6f 6f20 206e 7468 7074 3a73     ersion on https:
   20d38:	2f2f 6967 6874 6275 632e 6d6f 612f 6d72     //github.com/arm
   20d48:	6e69 2f6b 4653 4455 2e20 0000 5441 3534     ink/SFUD ...AT45
   20d58:	4244 3631 4531 0000 3257 5135 3034 5642     DB161E..W25Q40BV
   20d68:	0000 0000 3257 5135 3631 5642 0000 0000     ....W25Q16BV....
   20d78:	3257 5135 3233 5642 0000 0000 3257 5135     W25Q32BV....W25Q
   20d88:	3436 5643 0000 0000 3257 5135 3436 5744     64CV....W25Q64DW
   20d98:	0000 0000 3257 5135 3231 4238 0056 0000     ....W25Q128BV...
   20da8:	3257 5135 3532 4636 0056 0000 5353 3254     W25Q256FV...SST2
   20db8:	5635 3046 3038 0042 5353 3254 5635 3046     5VF080B.SST25VF0
   20dc8:	3631 0042 324d 5035 3233 0000 324d 5035     16B.M25P32..M25P
   20dd8:	3038 0000 324d 5035 3034 0000 4e45 3532     80..M25P40..EN25
   20de8:	3351 4232 0000 0000 4447 3532 3651 4234     Q32B....GD25Q64B
   20df8:	0000 0000 4447 3532 3151 4236 0000 0000     ....GD25Q16B....
   20e08:	3253 4635 324c 3631 004b 0000 3253 4635     S25FL216K...S25F
   20e18:	304c 3233 0050 0000 3241 4c35 3830 0030     L032P...A25L080.
   20e28:	3246 4c35 3030 0034 4350 3254 5635 3046     F25L004.PCT25VF0
   20e38:	3631 0042 7943 7270 7365 0073 7546 696a     16B.Cypress.Fuji
   20e48:	7374 0075 4f45 004e 7441 656d 006c 0000     tsu.EON.Atmel...
   20e58:	694d 7263 6e6f 0000 4d41 4349 0000 0000     Micron..AMIC....
   20e68:	6153 796e 006f 0000 6e49 6574 006c 0000     Sanyo...Intel...
   20e78:	5345 544d 0000 0000 7546 6164 006e 0000     ESMT....Fudan...
   20e88:	7948 6e75 6164 0069 5353 0054 6947 6167     Hyundai.SST.Giga
   20e98:	6544 6976 6563 0000 5349 4953 0000 0000     Device..ISSI....
   20ea8:	6957 626e 6e6f 0064 694d 7263 6e6f 7869     Winbond.Micronix
   20eb8:	0000 0000 5053 3049 0000 0000 7953 7473     ....SPI0....Syst
   20ec8:	6d65 732f 7566 2f64 7273 2f63 6673 6475     em/sfud/src/sfud
   20ed8:	735f 6466 2e70 0063 6461 7264 3c20 3120     _sfdp.c.addr < 1
   20ee8:	204c 3c3c 3220 0034 7245 6f72 3a72 4320     L << 24.Error: C
   20ef8:	6e61 7427 7220 6165 2064 4653 5044 6820     an't read SFDP h
   20f08:	6165 6564 2e72 0000 7245 6f72 3a72 4320     eader...Error: C
   20f18:	6568 6b63 5320 4446 2050 6973 6e67 7461     heck SFDP signat
   20f28:	7275 2065 7265 6f72 2e72 4920 2774 2073     ure error. It's 
   20f38:	756d 7473 6220 2065 3035 3434 3634 3335     must be 50444653
   20f48:	2868 5327 2027 4627 2027 4427 2027 5027     h('S' 'F' 'D' 'P
   20f58:	2927 002e 7245 6f72 3a72 5420 6968 2073     ')..Error: This 
   20f68:	6572 6576 7372 6f69 286e 2556 2e64 6425     reversion(V%d.%d
   20f78:	2029 4653 5044 6920 2073 6f6e 2074 7573     ) SFDP is not su
   20f88:	7070 726f 6574 2e64 0000 0000 6843 6365     pported.....Chec
   20f98:	206b 4653 5044 6820 6165 6564 2072 7369     k SFDP header is
   20fa8:	4f20 2e4b 5420 6568 7220 7665 7265 6973      OK. The reversi
   20fb8:	6e6f 6920 2073 2556 2e64 6425 202c 504e     on is V%d.%d, NP
   20fc8:	204e 7369 2520 2e64 0000 0000 7245 6f72     N is %d.....Erro
   20fd8:	3a72 4320 6e61 7427 7220 6165 2064 454a     r: Can't read JE
   20fe8:	4544 2043 6162 6973 2063 6c66 7361 2068     DEC basic flash 
   20ff8:	6170 6172 656d 6574 2072 6568 6461 7265     parameter header
   21008:	002e 0000 7245 6f72 3a72 5420 6968 2073     ....Error: This 
   21018:	6572 6576 7372 6f69 286e 2556 2e64 6425     reversion(V%d.%d
   21028:	2029 454a 4544 2043 6162 6973 2063 6c66     ) JEDEC basic fl
   21038:	7361 2068 6170 6172 656d 6574 2072 6568     ash parameter he
   21048:	6461 7265 6920 2073 6f6e 2074 7573 7070     ader is not supp
   21058:	726f 6574 2e64 0000 7245 6f72 3a72 5420     orted...Error: T
   21068:	6568 4a20 4445 4345 6220 7361 6369 6620     he JEDEC basic f
   21078:	616c 6873 7020 7261 6d61 7465 7265 7420     lash parameter t
   21088:	6261 656c 6c20 6e65 7467 2068 6e28 776f     able length (now
   21098:	6920 2073 6425 2029 7265 6f72 2e72 0000      is %d) error...
   210a8:	6843 6365 206b 454a 4544 2043 6162 6973     Check JEDEC basi
   210b8:	2063 6c66 7361 2068 6170 6172 656d 6574     c flash paramete
   210c8:	2072 6568 6461 7265 6920 2073 4b4f 202e     r header is OK. 
   210d8:	6854 2065 6174 6c62 2065 6469 6920 2073     The table id is 
   210e8:	6425 202c 6572 6576 7372 6f69 206e 7369     %d, reversion is
   210f8:	5620 6425 252e 2c64 6c20 6e65 7467 2068      V%d.%d, length 
   21108:	7369 2520 2c64 7020 7261 6d61 7465 7265     is %d, parameter
   21118:	7420 6261 656c 7020 696f 746e 7265 6920      table pointer i
   21128:	2073 7830 3025 6c36 2e58 0000 6157 6e72     s 0x%06lX...Warn
   21138:	6e69 3a67 4320 6e61 7427 7220 6165 2064     ing: Can't read 
   21148:	454a 4544 2043 6162 6973 2063 6c66 7361     JEDEC basic flas
   21158:	2068 6170 6172 656d 6574 2072 6174 6c62     h parameter tabl
   21168:	2e65 0000 454a 4544 2043 6162 6973 2063     e...JEDEC basic 
   21178:	6c66 7361 2068 6170 6172 656d 6574 2072     flash parameter 
   21188:	6174 6c62 2065 6e69 6f66 003a 534d 2d42     table info:.MSB-
   21198:	534c 2042 3320 2020 2020 2032 2020 3120     LSB  3    2    1
   211a8:	2020 2020 0030 0000 255b 3430 5d64 3020         0...[%04d] 0
   211b8:	2578 3230 2058 7830 3025 5832 3020 2578     x%02X 0x%02X 0x%
   211c8:	3230 2058 7830 3025 5832 0000 2034 424b     02X 0x%02X..4 KB
   211d8:	4520 6172 6573 6920 2073 7573 7070 726f      Erase is suppor
   211e8:	6574 2064 6874 6f72 6775 6f68 7475 7420     ted throughout t
   211f8:	6568 6420 7665 6369 2e65 4320 6d6f 616d     he device. Comma
   21208:	646e 6920 2073 7830 3025 5832 002e 0000     nd is 0x%02X....
   21218:	6e55 6669 726f 206d 2034 424b 6520 6172     Uniform 4 KB era
   21228:	6573 6920 2073 6e75 7661 6961 616c 6c62     se is unavailabl
   21238:	2065 6f66 2072 6874 7369 6420 7665 6369     e for this devic
   21248:	2e65 0000 7245 6f72 3a72 5520 696e 6f66     e...Error: Unifo
   21258:	6d72 3420 4b20 2042 7265 7361 2065 7573     rm 4 KB erase su
   21268:	7070 726f 6574 2064 6e69 6f66 6d72 7461     pported informat
   21278:	6f69 206e 7265 6f72 2e72 0000 7257 7469     ion error...Writ
   21288:	2065 7267 6e61 6c75 7261 7469 2079 7369     e granularity is
   21298:	3120 6220 7479 2e65 0000 0000 7257 7469      1 byte.....Writ
   212a8:	2065 7267 6e61 6c75 7261 7469 2079 7369     e granularity is
   212b8:	3620 2034 7962 6574 2073 726f 6c20 7261      64 bytes or lar
   212c8:	6567 2e72 0000 0000 6154 6772 7465 6620     ger.....Target f
   212d8:	616c 6873 7320 6174 7574 2073 6572 6967     lash status regi
   212e8:	7473 7265 6920 2073 6f6e 2d6e 6f76 616c     ster is non-vola
   212f8:	6974 656c 002e 0000 6c42 636f 206b 7250     tile....Block Pr
   21308:	746f 6365 2074 6962 7374 6920 206e 6564     otect bits in de
   21318:	6976 6563 7327 7320 6174 7574 2073 6572     vice's status re
   21328:	6967 7473 7265 6120 6572 7320 6c6f 6c65     gister are solel
   21338:	2079 6f76 616c 6974 656c 002e 6c46 7361     y volatile..Flas
   21348:	2068 6564 6976 6563 7220 7165 6975 6572     h device require
   21358:	2073 6e69 7473 7572 7463 6f69 206e 3035     s instruction 50
   21368:	2068 7361 7420 6568 7720 6972 6574 6520     h as the write e
   21378:	616e 6c62 2065 7270 6f69 2072 6f74 7020     nable prior to p
   21388:	7265 6f66 6d72 6e69 2067 2061 6f76 616c     erforming a vola
   21398:	6974 656c 7720 6972 6574 7420 206f 6874     tile write to th
   213a8:	2065 7473 7461 7375 7220 6765 7369 6574     e status registe
   213b8:	2e72 0000 6c46 7361 2068 6564 6976 6563     r...Flash device
   213c8:	7220 7165 6975 6572 2073 6e69 7473 7572      requires instru
   213d8:	7463 6f69 206e 3630 2068 7361 7420 6568     ction 06h as the
   213e8:	7720 6972 6574 6520 616e 6c62 2065 7270      write enable pr
   213f8:	6f69 2072 6f74 7020 7265 6f66 6d72 6e69     ior to performin
   21408:	2067 2061 6f76 616c 6974 656c 7720 6972     g a volatile wri
   21418:	6574 7420 206f 6874 2065 7473 7461 7375     te to the status
   21428:	7220 6765 7369 6574 2e72 0000 2d33 7942      register...3-By
   21438:	6574 6f20 6c6e 2079 6461 7264 7365 6973     te only addressi
   21448:	676e 002e 2d33 6f20 2072 2d34 7942 6574     ng..3- or 4-Byte
   21458:	6120 6464 6572 7373 6e69 2e67 0000 0000      addressing.....
   21468:	2d34 7942 6574 6f20 6c6e 2079 6461 7264     4-Byte only addr
   21478:	7365 6973 676e 002e 7245 6f72 3a72 5220     essing..Error: R
   21488:	6165 2064 6461 7264 7365 2073 7962 6574     ead address byte
   21498:	2073 7265 6f72 2172 0000 0000 7245 6f72     s error!....Erro
   214a8:	3a72 5420 6568 6620 616c 6873 6320 7061     r: The flash cap
   214b8:	6361 7469 2079 7369 6720 6172 6574 2072     acity is grater 
   214c8:	6874 6e61 3320 2032 6247 202f 2034 4247     than 32 Gb/ 4 GB
   214d8:	2021 6f4e 2074 7553 7070 726f 6574 2e64     ! Not Supported.
   214e8:	0000 0000 6143 6170 6963 7974 6920 2073     ....Capacity is 
   214f8:	6c25 2064 7942 6574 2e73 0000 6c46 7361     %ld Bytes...Flas
   21508:	2068 6564 6976 6563 7320 7075 6f70 7472     h device support
   21518:	2073 6c25 4b64 2042 6c62 636f 206b 7265     s %ldKB block er
   21528:	7361 2e65 4320 6d6f 616d 646e 6920 2073     ase. Command is 
   21538:	7830 3025 5832 002e 6157 6e72 6e69 3a67     0x%02X..Warning:
   21548:	5220 6165 2064 4653 5044 7020 7261 6d61      Read SFDP param
   21558:	7465 7265 6820 6165 6564 2072 6e69 6f66     eter header info
   21568:	6d72 7461 6f69 206e 6166 6c69 6465 202e     rmation failed. 
   21578:	6854 2065 7325 6920 2073 6f6e 2074 7573     The %s is not su
   21588:	7070 726f 2074 454a 4544 2043 4653 5044     pport JEDEC SFDP
   21598:	002e 0000 6c66 7361 2d68 733e 6466 2e70     ....flash->sfdp.
   215a8:	7661 6961 616c 6c62 0065 0000 455b 7272     available...[Err
   215b8:	726f 205d 654c 7474 7265 732d 6568 6c6c     or] Letter-shell
   215c8:	203a 6f4e 2074 7573 7070 726f 2074 6f66     : Not support fo
   215d8:	2072 6c66 616f 0a74 0000 0000 7953 7473     r float.....Syst
   215e8:	6d65 6c2f 7465 6574 2d72 6873 6c65 2f6c     em/letter-shell/
   215f8:	7273 2f63 6873 6c65 5f6c 7865 2e74 0063     src/shell_ext.c.
   21608:	6157 7469 6e69 2067 6f66 2072 6966 656c     Waiting for file
   21618:	7973 7473 6d65 6220 6f6f 6974 676e 2e2e     system booting..
   21628:	0d2e 000a 6157 7469 6e69 2067 6f66 2072     ....Waiting for 
   21638:	6873 6c65 5f6c 7366 6220 6f6f 6974 676e     shell_fs booting
   21648:	2e2e 0d2e 000a 0000 6157 7469 6e69 2067     ........Waiting 
   21658:	6f66 2072 6873 6c65 206c 6f62 746f 6e69     for shell bootin
   21668:	2e67 2e2e 0a0d 0000 7265 6f72 3a72 0020     g.......error: .
   21678:	6920 2073 6f6e 2074 2061 6964 6572 7463      is not a direct
   21688:	726f 0d79 000a 0000 7453 7261 7972 6b53     ory.....StarrySk
   21698:	0079 0000 6564 6166 6c75 2074 7375 7265     y...default user
   216a8:	0000 0000 6573 5674 7261 0000 6573 2074     ....setVar..set 
   216b8:	6176 0072 7075 0000 6f64 6e77 0000 0000     var.up..down....
   216c8:	6972 6867 0074 0000 656c 7466 0000 0000     right...left....
   216d8:	6174 0062 6162 6b63 7073 6361 0065 0000     tab.backspace...
   216e8:	6564 656c 6574 0000 6e65 6574 0072 0000     delete..enter...
   216f8:	6568 706c 0000 0000 6873 776f 6320 6d6f     help....show com
   21708:	616d 646e 6920 666e 0d6f 680a 6c65 2070     mand info..help 
   21718:	635b 646d 005d 0000 7375 7265 0073 0000     [cmd]...users...
   21728:	696c 7473 6120 6c6c 7520 6573 0072 0000     list all user...
   21738:	6d63 7364 0000 0000 696c 7473 6120 6c6c     cmds....list all
   21748:	6320 646d 0000 0000 6176 7372 0000 0000      cmd....vars....
   21758:	696c 7473 6120 6c6c 7620 7261 0000 0000     list all var....
   21768:	656b 7379 0000 0000 696c 7473 6120 6c6c     keys....list all
   21778:	6b20 7965 0000 0000 6c63 6165 0072 0000      key....clear...
   21788:	6c63 6165 2072 6f63 736e 6c6f 0065 0000     clear console...
   21798:	6c63 0073 6873 0000 7572 206e 6f63 6d6d     cls.sh..run comm
   217a8:	6e61 2064 6964 6572 7463 796c 0000 0000     and directly....
   217b8:	736c 0000 696c 7473 6120 6c6c 6620 6c69     ls..list all fil
   217c8:	7365 0000 6463 0000 6863 6e61 6567 6420     es..cd..change d
   217d8:	7269 0000 6f74 6375 0068 0000 7263 6165     ir..touch...crea
   217e8:	6574 6120 6e20 7765 6620 6c69 0065 0000     te a new file...
   217f8:	6465 7469 0000 0000 6465 7469 6620 6c69     edit....edit fil
   21808:	0d65 650a 6964 2074 663c 6c69 6e65 6d61     e..edit <filenam
   21818:	3e65 0000 6572 6f62 746f 0000 6572 6f6c     e>..reboot..relo
   21828:	6461 7420 6568 7720 6f68 656c 7320 7379     ad the whole sys
   21838:	6574 006d 6e65 4976 746e 0000 2061 6564     tem.envInt..a de
   21848:	6166 6c75 2074 6176 6972 6261 656c 6920     fault variable i
   21858:	206e 6e65 0076 0000 6e65 5376 6f68 7472     n env...envShort
   21868:	0000 0000 6e65 5376 7274 6e69 0067 0000     ....envString...
   21878:	6e65 4376 6168 0072 6e65 4676 6e75 0063     envChar.envFunc.
   21888:	7865 6365 0000 0000 7865 6365 7475 2065     exec....execute 
   21898:	7566 636e 6974 6e6f 7520 646e 6665 6e69     function undefin
   218a8:	6465 0000 002f 0000 003a 0000 2024 0000     ed../...:...$ ..
   218b8:	6c50 6165 6573 6920 706e 7475 7020 7361     Please input pas
   218c8:	7773 726f 3a64 0000 6552 7574 6e72 203a     sword:..Return: 
   218d8:	0000 0000 202c 7830 0000 0000 3030 3030     ...., 0x....0000
   218e8:	3030 3030 3030 0030 4d43 2044 0000 0000     0000000.CMD ....
   218f8:	4156 2052 0000 0000 5355 5245 0000 0000     VAR ....USER....
   21908:	454b 2059 0000 0000 4f4e 454e 0000 0000     KEY ....NONE....
   21918:	2020 0000 2e2e 002e 0a0d 6f43 6d6d 6e61       ........Comman
   21928:	2064 694c 7473 0d3a 000a 0000 0a0d 6156     d List:.......Va
   21938:	2072 694c 7473 0d3a 000a 0000 0a0d 7355     r List:.......Us
   21948:	7265 4c20 7369 3a74 0a0d 0000 0a0d 654b     er List:......Ke
   21958:	2079 694c 7473 0d3a 000a 0000 2008 0008     y List:...... ..
   21968:	0a0d 6157 6e72 6e69 3a67 4320 6d6f 616d     ..Warning: Comma
   21978:	646e 6920 2073 6f74 206f 6f6c 676e 0a0d     nd is too long..
   21988:	0000 0000 3d20 0020 0022 0000 6163 276e     .... = ."...can'
   21998:	2074 6573 2074 6572 6461 6f20 6c6e 2079     t set read only 
   219a8:	6176 0d72 000a 0000 6163 276e 2074 6573     var.....can't se
   219b8:	2074 6f70 6e69 6574 0d72 000a 6156 2072     t pointer...Var 
   219c8:	6f6e 2074 6f46 6e75 0d74 000a 6920 2073     not Fount... is 
   219d8:	6f6e 2074 2061 6176 0d72 000a 5b1b 4a32     not a var....[2J
   219e8:	5b1b 4831 0000 0000 0a0d 5b1b 3233 206d     .[1H.......[32m 
   219f8:	6f2e 6f6f 6f6f 2e6f 6f2e 2020 2020 2e20     .oooooo..o     .
   21a08:	2020 2020 2020 2020 2020 2020 2020 2020                     
   21a18:	2020 2020 2020 2020 2020 2020 2020 2020                     
   21a28:	2020 2020 2020 2020 2020 2020 6f2e 6f6f                 .ooo
   21a38:	6f6f 2e6f 6f2e 6f20 6f6f 206f 2020 2020     ooo..o oooo     
   21a48:	2020 2020 2020 2020 2020 2020 2020 0d20                    .
   21a58:	640a 5038 2027 2020 6020 3859 2020 2e20     .d8P'    `Y8   .
   21a68:	386f 2020 2020 2020 2020 2020 2020 2020     o8              
   21a78:	2020 2020 2020 2020 2020 2020 2020 2020                     
   21a88:	2020 2020 2020 2020 2020 2020 6420 5038                  d8P
   21a98:	2027 2020 6020 3859 6020 3838 2038 2020     '    `Y8 `888   
   21aa8:	2020 2020 2020 2020 2020 2020 2020 2020                     
   21ab8:	0d20 590a 3838 6f62 202e 2020 2020 2e20      ..Y88bo.      .
   21ac8:	386f 3838 6f6f 2020 6f2e 6f6f 2e6f 2020     o888oo  .oooo.  
   21ad8:	6f20 6f6f 206f 3864 2062 6f6f 6f6f 6420      oooo d8b oooo d
   21ae8:	6238 6f20 6f6f 206f 2020 6f20 6f6f 5920     8b oooo    ooo Y
   21af8:	3838 6f62 202e 2020 2020 2020 3838 2038     88bo.       888 
   21b08:	6f20 6f6f 206f 6f20 6f6f 206f 2020 6f20      oooo  oooo    o
   21b18:	6f6f 0d20 200a 2260 3859 3838 6f38 202e     oo .. `"Y8888o. 
   21b28:	2020 3820 3838 2020 6020 2050 2920 3838        888   `P  )88
   21b38:	2062 6020 3838 2238 3822 2050 3860 3838     b  `888""8P `888
   21b48:	2222 5038 2020 3860 2e38 2020 382e 2027     ""8P  `88.  .8' 
   21b58:	2020 2260 3859 3838 6f38 202e 2020 3838       `"Y8888o.   88
   21b68:	2038 382e 2750 2020 2020 3860 2e38 2020     8 .8P'    `88.  
   21b78:	382e 2027 0d20 200a 2020 2020 2260 3859     .8'  ..     `"Y8
   21b88:	6238 2020 3820 3838 2020 2020 6f2e 2250     8b   888    .oP"
   21b98:	3838 2038 2020 3838 2038 2020 2020 3820     888   888      8
   21ba8:	3838 2020 2020 2020 6020 3838 2e2e 2738     88       `88..8'
   21bb8:	2020 2020 2020 2020 2260 3859 6238 2020             `"Y88b  
   21bc8:	3838 3838 3838 202e 2020 2020 6020 3838     888888.      `88
   21bd8:	2e2e 2738 2020 0d20 6f0a 206f 2020 2020     ..8'   ..oo     
   21be8:	642e 5038 2020 3820 3838 2e20 6420 2838     .d8P   888 . d8(
   21bf8:	2020 3838 2038 2020 3838 2038 2020 2020       888   888     
   21c08:	3820 3838 2020 2020 2020 2020 3860 3838      888        `888
   21c18:	2027 2020 6f20 206f 2020 2020 642e 5038     '    oo     .d8P
   21c28:	2020 3838 2038 3860 6238 202e 2020 2020       888 `88b.     
   21c38:	3860 3838 2027 2020 0d20 380a 2222 3838     `888'    ..8""88
   21c48:	3838 5038 2027 2020 2220 3838 2238 6020     888P'    "888" `
   21c58:	3859 3838 2222 6f38 6420 3838 6238 2020     Y888""8o d888b  
   21c68:	2020 3864 3838 2062 2020 2020 2020 2e20       d888b        .
   21c78:	2738 2020 2020 3820 2222 3838 3838 5038     8'     8""88888P
   21c88:	2027 6f20 3838 6f38 6f20 3838 6f38 2020     '  o888o o888o  
   21c98:	2020 2e20 2738 2020 2020 0d20 200a 2020        .8'     ..   
   21ca8:	2020 2020 2020 2020 2020 2020 2020 2020                     
   21cb8:	2020 2020 2020 2020 2020 2020 2020 2020                     
   21cc8:	2020 2020 2020 2020 2020 2020 2e20 2e6f                  .o.
   21cd8:	502e 2027 2020 2020 2020 2020 2020 2020     .P'             
   21ce8:	2020 2020 2020 2020 2020 2020 2020 2020                     
   21cf8:	2e20 2e6f 502e 2027 2020 2020 0d20 200a      .o..P'      .. 
   21d08:	2020 2020 2020 2020 2020 2020 2020 2020                     
   21d18:	2020 2020 2020 2020 2020 2020 2020 2020                     
   21d28:	2020 2020 2020 2020 2020 2020 2020 6020                    `
   21d38:	3859 2750 2020 2020 2020 2020 2020 2020     Y8P'            
   21d48:	2020 2020 2020 2020 2020 2020 2020 2020                     
   21d58:	2020 6020 3859 2750 2020 2020 2020 0d20        `Y8P'       .
   21d68:	0d0a 420a 6975 646c 203a 2020 2020 2020     ...Build:       
   21d78:	2020 2020 2020 754a 206e 3731 3220 3230           Jun 17 202
   21d88:	2036 3731 333a 3a33 3034 0a0d 6853 6c65     6 17:33:40..Shel
   21d98:	206c 6556 7372 6f69 3a6e 2020 2020 3320     l Version:     3
   21da8:	322e 342e 0a0d 6946 6d72 6177 6572 5620     .2.4..Firmware V
   21db8:	7265 6973 6e6f 203a 3120 302e 302e 0a0d     ersion:  1.0.0..
   21dc8:	6e49 7073 7269 6465 4220 3a79 2020 2020     Inspired By:    
   21dd8:	2020 4520 4f43 2d53 4953 2047 2026 654c        ECOS-SIG & Le
   21de8:	7474 7265 532d 6568 6c6c 2620 4620 4e49     tter-Shell & FIN
   21df8:	4c41 0d78 1b0a 305b 006d 0000 6f43 6d6d     ALx...[0m...Comm
   21e08:	6e61 2064 6f6e 2074 6f46 6e75 0d64 000a     and not Found...
   21e18:	0a0d 6170 7373 6f77 6472 6520 7272 726f     ..password error
   21e28:	0a0d 0000 6f63 6d6d 6e61 2064 6568 706c     ....command help
   21e38:	6f20 2066 0000 0000 6150 6172 656d 6574      of ....Paramete
   21e48:	2072 7265 6f72 0d72 000a 0000 465b 5441     r error.....[FAT
   21e58:	5346 455d 746e 7265 7453 7461 7375 202c     FS]EnterStatus, 
   21e68:	6177 7469 6e69 2e67 2e2e 0a0d 0000 0000     waiting.........
   21e78:	7953 7473 6d65 662f 7461 7366 732f 6372     System/fatfs/src
   21e88:	642f 7369 696b 2e6f 0063 0000 465b 5441     /diskio.c...[FAT
   21e98:	5346 455d 6978 5374 6174 7574 2c73 7220     FS]ExitStatus, r
   21ea8:	7465 7275 3a6e 7825 0a0d 0000 465b 5441     eturn:%x....[FAT
   21eb8:	5346 455d 746e 7265 6e49 7469 202c 6177     FS]EnterInit, wa
   21ec8:	7469 6e69 2e67 2e2e 0a0d 0000 465b 5441     iting.......[FAT
   21ed8:	5346 455d 6978 4974 696e 2c74 7220 7465     FS]ExitInit, ret
   21ee8:	7275 3a6e 7825 0a0d 0000 0000 465b 5441     urn:%x......[FAT
   21ef8:	5346 455d 746e 7265 6552 6461 202c 6177     FS]EnterRead, wa
   21f08:	7469 6e69 2e67 2e2e 0a0d 0000 465b 5441     iting.......[FAT
   21f18:	5346 455d 6978 5274 6165 2c64 7220 7465     FS]ExitRead, ret
   21f28:	7275 3a6e 7825 0a0d 0000 0000 465b 5441     urn:%x......[FAT
   21f38:	5346 455d 746e 7265 7257 7469 2c65 7720     FS]EnterWrite, w
   21f48:	6961 6974 676e 2e2e 0d2e 000a 465b 5441     aiting......[FAT
   21f58:	5346 455d 6978 5774 6972 6574 202c 6572     FS]ExitWrite, re
   21f68:	7574 6e72 253a 0d78 000a 0000 4146 3354     turn:%x.....FAT3
   21f78:	2032 2020 0000 0000 3a2a 3e3c 227c 7f3f     2   ....*:<>|"?.
   21f88:	0000 0000 2c2b 3d3b 5d5b 0000 7953 7473     ....+,;=[]..Syst
   21f98:	6d65 662f 7461 7366 732f 6372 662f 2e66     em/fatfs/src/ff.
   21fa8:	0063 0000 5246 4d5f 464b 5f53 4241 524f     c...FR_MKFS_ABOR
   21fb8:	4554 2044 7461 2520 3a73 6425 000a 0000     TED at %s:%d....
   21fc8:	feeb 4d90 4453 534f 2e35 0030 4f4e 4e20     ...MSDOS5.0.NO N
   21fd8:	4d41 2045 2020 4620 5441 3233 2020 0020     AME    FAT32   .
   21fe8:	4f4e 4e20 4d41 2045 2020 4620 5441 2020     NO NAME    FAT  
   21ff8:	2020 0020 7845 6563 6465 7420 6568 6d20        .Exceed the m
   22008:	7861 6d69 6d75 6e20 6d75 6562 2072 666f     aximum number of
   22018:	7220 7465 6972 7365 202c 7865 7469 3a20      retries, exit :
   22028:	0d28 000a 7953 7473 6d65 662f 7461 7366     (...System/fatfs
   22038:	732f 6372 662f 6966 696e 2e74 0063 0000     /src/ffinit.c...
   22048:	6f4d 6e75 6974 676e 4620 6c69 5365 7379     Mounting FileSys
   22058:	6574 2e6d 2e2e 0a0d 0000 0000 3a30 0000     tem.........0:..
   22068:	6f44 6e20 746f 6620 6e69 2064 2061 6946     Do not find a Fi
   22078:	656c 7953 7473 6d65 2e2e 0a2e 0000 0000     leSystem........
   22088:	614d 656b 6120 6e20 7765 4620 6c69 5365     Make a new FileS
   22098:	7379 6574 2e6d 2e2e 000a 0000 6146 6c69     ystem.......Fail
   220a8:	6920 206e 616d 696b 676e 6120 6e20 7765      in making a new
   220b8:	4620 6c69 5365 7379 6574 2c6d 6120 6f62      FileSystem, abo
   220c8:	7472 0d2e 000a 0000 614d 656b 6120 6e20     rt......Make a n
   220d8:	7765 4620 6c69 5365 7379 6574 206d 7573     ew FileSystem su
   220e8:	6363 7365 2c73 6720 206f 6861 6165 2e64     ccess, go ahead.
   220f8:	0a0d 0000 6f4d 6e75 2074 6946 656c 7953     ....Mount FileSy
   22108:	7473 6d65 7320 6375 6563 7373 0d21 000a     stem success!...
   22118:	7265 6f72 3a72 7420 7361 5f6b 6168 646e     error: task_hand
   22128:	656c 2072 7369 4e20 4c55 0a4c 0000 0000     ler is NULL.....
   22138:	3e3e 453e 746e 7265 4920 6c64 2065 6154     >>>Enter Idle Ta
   22148:	6b73 000a 3e3e 533e 7375 6570 646e 5420     sk..>>>Suspend T
   22158:	7361 206b 754e 3a6d 2520 0a64 0000 0000     ask Num: %d.....
   22168:	3e3e 523e 7365 6d75 2065 6154 6b73 4e20     >>>Resume Task N
   22178:	6d75 203a 6425 000a 3e3e 453e 6978 2074     um: %d..>>>Exit 
   22188:	6449 656c 5420 7361 0a6b 000a 5b1b 6d30     Idle Task....[0m
   22198:	0000 0000 7325 255b 5d73 2528 3a73 6425     ....%s[%s](%s:%d
   221a8:	3a29 2509 0073 0000 5b1b 3433 006d 0000     ):.%s....[34m...
   221b8:	5b1b 3233 006d 0000 5b1b 3333 006d 0000     .[32m....[33m...
   221c8:	5b1b 3133 006d 0000 5b1b 3533 006d 0000     .[31m....[35m...
   221d8:	4544 5542 0047 0000 4e49 4f46 0000 0000     DEBUG...INFO....
   221e8:	4157 4e52 0000 0000 5245 4f52 0052 0000     WARN....ERROR...
   221f8:	4146 4154 004c 0000 0a0d 7245 6f72 3a72     FATAL.....Error:
   22208:	6320 6e61 6f6e 2074 706f 6e65 6620 6c69      cannot open fil
   22218:	2065 6328 646f 2065 6425 0d29 000a 0000     e (code %d).....
   22228:	0a0d 7245 6f72 3a72 6620 6c69 2065 6f74     ..Error: file to
   22238:	206f 616c 6772 2065 6d28 7861 2520 2064     o large (max %d 
   22248:	7962 6574 2973 0a0d 0000 0000 0a0d 7245     bytes)........Er
   22258:	6f72 3a72 7220 6165 2064 6166 6c69 6465     ror: read failed
   22268:	2820 6f63 6564 2520 2964 0a0d 0000 0000      (code %d)......
   22278:	3a30 7325 0000 0000 3a30 7325 7325 0000     0:%s....0:%s%s..
   22288:	3a30 7325 252f 0073 0a0d 7355 6761 3a65     0:%s/%s...Usage:
   22298:	6520 6964 2074 663c 6c69 6e65 6d61 3e65      edit <filename>
   222a8:	0a0d 0000 5b1b 4a32 5b1b 1b48 3f5b 3532     .....[2J.[H.[?25
   222b8:	0068 0000 5b1b 4a32 5b1b 1b48 3f5b 3532     h....[2J.[H.[?25
   222c8:	006c 0000 5b1b 6425 253b 4864 0000 0000     l....[%d;%dH....
   222d8:	5b1b 3634 1b6d 335b 6d30 5b1b 6d31 0000     .[46m.[30m.[1m..
   222e8:	2020 255b 5d73 002a 2020 255b 5d73 0000       [%s]*.  [%s]..
   222f8:	5b1b 3039 006d 0000 2a25 2064 0000 0000     .[90m...%*d ....
   22308:	5b1b 6d30 5b1b 3734 333b 6d30 0000 0000     .[0m.[47;30m....
   22318:	5b1b 6d30 5b1b 3733 006d 0000 5b1b 6d30     .[0m.[37m....[0m
   22328:	5b1b 004b 5b1b 6d30 1b7e 4b5b 0000 0000     .[K..[0m~.[K....
   22338:	5b1b 3334 1b6d 335b 6d30 5b1b 6d31 0000     .[43m.[30m.[1m..
   22348:	2020 6f4e 2074 6173 6576 2164 5020 6572       Not saved! Pre
   22358:	7373 4520 6373 6120 6167 6e69 7420 206f     ss Esc again to 
   22368:	6f63 666e 7269 206d 7865 7469 0000 0000     confirm exit....
   22378:	2020 6153 6576 6620 6961 656c 2164 0000       Save failed!..
   22388:	2020 6e4c 2520 2c75 4320 6c6f 2520 2075       Ln %u, Col %u 
   22398:	207c 7443 6c72 572b 5320 7661 2065 4520     | Ctrl+W Save  E
   223a8:	6373 4520 6978 0074 5b1b 323f 6835 0000     sc Exit..[?25h..

000223b8 <CSWTCH.12>:
   223b8:	0102 0002                                   ....

000223bc <CSWTCH.11>:
   223bc:	0802 0010                                   ....

000223c0 <shellCommandCount>:
   223c0:	001f 0000                                   ....
